   1              	 .syntax unified
   2              	 .cpu cortex-m4
   3              	 .eabi_attribute 27,3
   4              	 .fpu fpv4-sp-d16
   5              	 .eabi_attribute 20,1
   6              	 .eabi_attribute 21,1
   7              	 .eabi_attribute 23,3
   8              	 .eabi_attribute 24,1
   9              	 .eabi_attribute 25,1
  10              	 .eabi_attribute 26,1
  11              	 .eabi_attribute 30,6
  12              	 .eabi_attribute 34,1
  13              	 .eabi_attribute 18,4
  14              	 .thumb
  15              	 .file "init_hw.c"
  16              	 .text
  17              	.Ltext0:
  18              	 .cfi_sections .debug_frame
  19              	 .section .text.init_hw,"ax",%progbits
  20              	 .align 2
  21              	 .global init_hw
  22              	 .thumb
  23              	 .thumb_func
  25              	init_hw:
  26              	.LFB605:
  27              	 .file 1 "../VCU_PROCESS/init_hw.c"
   1:../VCU_PROCESS/init_hw.c **** /*
   2:../VCU_PROCESS/init_hw.c ****  * init_hw.c
   3:../VCU_PROCESS/init_hw.c ****  *
   4:../VCU_PROCESS/init_hw.c ****  *  Created on: 09-Aug-2023
   5:../VCU_PROCESS/init_hw.c ****  *      Author: Suchit Sawant
   6:../VCU_PROCESS/init_hw.c ****  */
   7:../VCU_PROCESS/init_hw.c **** 
   8:../VCU_PROCESS/init_hw.c **** #include "DAVE.h"
   9:../VCU_PROCESS/init_hw.c **** 
  10:../VCU_PROCESS/init_hw.c **** void init_hw(void)
  11:../VCU_PROCESS/init_hw.c **** {
  28              	 .loc 1 11 0
  29              	 .cfi_startproc
  30              	 
  31              	 
  32 0000 80B5     	 push {r7,lr}
  33              	.LCFI0:
  34              	 .cfi_def_cfa_offset 8
  35              	 .cfi_offset 7,-8
  36              	 .cfi_offset 14,-4
  37 0002 82B0     	 sub sp,sp,#8
  38              	.LCFI1:
  39              	 .cfi_def_cfa_offset 16
  40 0004 00AF     	 add r7,sp,#0
  41              	.LCFI2:
  42              	 .cfi_def_cfa_register 7
  12:../VCU_PROCESS/init_hw.c **** 	DAVE_STATUS_t init_status = DAVE_STATUS_SUCCESS;
  43              	 .loc 1 12 0
  44 0006 0023     	 movs r3,#0
  45 0008 FB71     	 strb r3,[r7,#7]
  13:../VCU_PROCESS/init_hw.c **** 
  14:../VCU_PROCESS/init_hw.c **** 	if (init_status == DAVE_STATUS_SUCCESS)
  46              	 .loc 1 14 0
  47 000a FB79     	 ldrb r3,[r7,#7]
  48 000c 002B     	 cmp r3,#0
  49 000e 04D1     	 bne .L2
  15:../VCU_PROCESS/init_hw.c **** 	{
  16:../VCU_PROCESS/init_hw.c **** 	 /**  Initialization of CAN_NODE APP instance CAN_NODE_0 */
  17:../VCU_PROCESS/init_hw.c **** 	 init_status = (DAVE_STATUS_t)CAN_NODE_Init(&CAN_NODE_0);
  50              	 .loc 1 17 0
  51 0010 0748     	 ldr r0,.L4
  52 0012 FFF7FEFF 	 bl CAN_NODE_Init
  53 0016 0346     	 mov r3,r0
  54 0018 FB71     	 strb r3,[r7,#7]
  55              	.L2:
  18:../VCU_PROCESS/init_hw.c **** 	}
  19:../VCU_PROCESS/init_hw.c **** 	if (init_status == DAVE_STATUS_SUCCESS)
  56              	 .loc 1 19 0
  57 001a FB79     	 ldrb r3,[r7,#7]
  58 001c 002B     	 cmp r3,#0
  59 001e 04D1     	 bne .L1
  20:../VCU_PROCESS/init_hw.c **** 	{
  21:../VCU_PROCESS/init_hw.c **** 	 /**  Initialization of CAN_NODE APP instance CAN_NODE_1 */
  22:../VCU_PROCESS/init_hw.c **** 	 init_status = (DAVE_STATUS_t)CAN_NODE_Init(&CAN_NODE_1);
  60              	 .loc 1 22 0
  61 0020 0448     	 ldr r0,.L4+4
  62 0022 FFF7FEFF 	 bl CAN_NODE_Init
  63 0026 0346     	 mov r3,r0
  64 0028 FB71     	 strb r3,[r7,#7]
  65              	.L1:
  23:../VCU_PROCESS/init_hw.c ****    }
  24:../VCU_PROCESS/init_hw.c **** 
  25:../VCU_PROCESS/init_hw.c **** }
  66              	 .loc 1 25 0
  67 002a 0837     	 adds r7,r7,#8
  68              	.LCFI3:
  69              	 .cfi_def_cfa_offset 8
  70 002c BD46     	 mov sp,r7
  71              	.LCFI4:
  72              	 .cfi_def_cfa_register 13
  73              	 
  74 002e 80BD     	 pop {r7,pc}
  75              	.L5:
  76              	 .align 2
  77              	.L4:
  78 0030 00000000 	 .word CAN_NODE_0
  79 0034 00000000 	 .word CAN_NODE_1
  80              	 .cfi_endproc
  81              	.LFE605:
  83              	 .text
  84              	.Letext0:
  85              	 .file 2 "c:\\infineon\\tools\\dave ide\\4.5.0.202105191637\\eclipse\\arm-gcc-49\\arm-none-eabi\\include\\machine\\_default_types.h"
  86              	 .file 3 "c:\\infineon\\tools\\dave ide\\4.5.0.202105191637\\eclipse\\arm-gcc-49\\arm-none-eabi\\include\\stdint.h"
  87              	 .file 4 "D:/Projects/VCU Firmware Main/IRP/Git Repo/VCU14_29bit_overCAN_withIRP_new4g_proto26_adding_All10sec_data/Libraries/CMSIS/Infineon/XMC4700_series/Include/XMC4700.h"
  88              	 .file 5 "D:/Projects/VCU Firmware Main/IRP/Git Repo/VCU14_29bit_overCAN_withIRP_new4g_proto26_adding_All10sec_data/Libraries/XMCLib/inc/xmc_gpio.h"
  89              	 .file 6 "D:/Projects/VCU Firmware Main/IRP/Git Repo/VCU14_29bit_overCAN_withIRP_new4g_proto26_adding_All10sec_data/Libraries/XMCLib/inc/xmc4_gpio.h"
  90              	 .file 7 "D:/Projects/VCU Firmware Main/IRP/Git Repo/VCU14_29bit_overCAN_withIRP_new4g_proto26_adding_All10sec_data/Libraries/XMCLib/inc/xmc_can.h"
  91              	 .file 8 "D:/Projects/VCU Firmware Main/IRP/Git Repo/VCU14_29bit_overCAN_withIRP_new4g_proto26_adding_All10sec_data/Dave/Generated/GLOBAL_CAN/global_can.h"
  92              	 .file 9 "D:/Projects/VCU Firmware Main/IRP/Git Repo/VCU14_29bit_overCAN_withIRP_new4g_proto26_adding_All10sec_data/Dave/Generated/CAN_NODE/can_node.h"
  93              	 .file 10 "D:/Projects/VCU Firmware Main/IRP/Git Repo/VCU14_29bit_overCAN_withIRP_new4g_proto26_adding_All10sec_data/Dave/Generated/DAVE.h"
  94              	 .file 11 "D:/Projects/VCU Firmware Main/IRP/Git Repo/VCU14_29bit_overCAN_withIRP_new4g_proto26_adding_All10sec_data/Libraries/CMSIS/Include/cmsis_gcc.h"
  95              	 .file 12 "D:/Projects/VCU Firmware Main/IRP/Git Repo/VCU14_29bit_overCAN_withIRP_new4g_proto26_adding_All10sec_data/Libraries/CMSIS/Include/core_cm4.h"
  96              	 .file 13 "D:/Projects/VCU Firmware Main/IRP/Git Repo/VCU14_29bit_overCAN_withIRP_new4g_proto26_adding_All10sec_data/Libraries/CMSIS/Infineon/XMC4700_series/Include/system_XMC4700.h"
  97              	 .file 14 "D:/Projects/VCU Firmware Main/IRP/Git Repo/VCU14_29bit_overCAN_withIRP_new4g_proto26_adding_All10sec_data/Dave/Generated/CAN_NODE/can_node_extern.h"