   1              	 .syntax unified
   2              	 .cpu cortex-m4
   3              	 .eabi_attribute 27,3
   4              	 .fpu fpv4-sp-d16
   5              	 .eabi_attribute 20,1
   6              	 .eabi_attribute 21,1
   7              	 .eabi_attribute 23,3
   8              	 .eabi_attribute 24,1
   9              	 .eabi_attribute 25,1
  10              	 .eabi_attribute 26,1
  11              	 .eabi_attribute 30,6
  12              	 .eabi_attribute 34,1
  13              	 .eabi_attribute 18,4
  14              	 .thumb
  15              	 .file "RTC.c"
  16              	 .text
  17              	.Ltext0:
  18              	 .cfi_sections .debug_frame
  19              	 .section .text.RTC_Start,"ax",%progbits
  20              	 .align 2
  21              	 .thumb
  22              	 .thumb_func
  24              	RTC_Start:
  25              	.LFB527:
  26              	 .file 1 "D:/Projects/VCU Firmware Main/IRP/Git Repo/VCU14_29bit_overCAN_withIRP_new4g_proto26_adding_All10sec_data/Dave/Generated/RTC/rtc.h"
   1:D:/Projects/VCU Firmware Main/IRP/Git Repo/VCU14_29bit_overCAN_withIRP_new4g_proto26_adding_All10sec_data/Dave/Generated/RTC\rtc.h **** /**
   2:D:/Projects/VCU Firmware Main/IRP/Git Repo/VCU14_29bit_overCAN_withIRP_new4g_proto26_adding_All10sec_data/Dave/Generated/RTC\rtc.h ****  * @file rtc.h
   3:D:/Projects/VCU Firmware Main/IRP/Git Repo/VCU14_29bit_overCAN_withIRP_new4g_proto26_adding_All10sec_data/Dave/Generated/RTC\rtc.h ****  * @date 2021-01-08
   4:D:/Projects/VCU Firmware Main/IRP/Git Repo/VCU14_29bit_overCAN_withIRP_new4g_proto26_adding_All10sec_data/Dave/Generated/RTC\rtc.h ****  *
   5:D:/Projects/VCU Firmware Main/IRP/Git Repo/VCU14_29bit_overCAN_withIRP_new4g_proto26_adding_All10sec_data/Dave/Generated/RTC\rtc.h ****  * NOTE:
   6:D:/Projects/VCU Firmware Main/IRP/Git Repo/VCU14_29bit_overCAN_withIRP_new4g_proto26_adding_All10sec_data/Dave/Generated/RTC\rtc.h ****  * This file is generated by DAVE. Any manual modification done to this file will be lost when the 
   7:D:/Projects/VCU Firmware Main/IRP/Git Repo/VCU14_29bit_overCAN_withIRP_new4g_proto26_adding_All10sec_data/Dave/Generated/RTC\rtc.h ****  * regenerated.
   8:D:/Projects/VCU Firmware Main/IRP/Git Repo/VCU14_29bit_overCAN_withIRP_new4g_proto26_adding_All10sec_data/Dave/Generated/RTC\rtc.h ****  */
   9:D:/Projects/VCU Firmware Main/IRP/Git Repo/VCU14_29bit_overCAN_withIRP_new4g_proto26_adding_All10sec_data/Dave/Generated/RTC\rtc.h **** /**
  10:D:/Projects/VCU Firmware Main/IRP/Git Repo/VCU14_29bit_overCAN_withIRP_new4g_proto26_adding_All10sec_data/Dave/Generated/RTC\rtc.h ****  * @cond
  11:D:/Projects/VCU Firmware Main/IRP/Git Repo/VCU14_29bit_overCAN_withIRP_new4g_proto26_adding_All10sec_data/Dave/Generated/RTC\rtc.h ****  **************************************************************************************************
  12:D:/Projects/VCU Firmware Main/IRP/Git Repo/VCU14_29bit_overCAN_withIRP_new4g_proto26_adding_All10sec_data/Dave/Generated/RTC\rtc.h ****  * RTC v4.1.16 Facilitates to generate real time clock and alarm
  13:D:/Projects/VCU Firmware Main/IRP/Git Repo/VCU14_29bit_overCAN_withIRP_new4g_proto26_adding_All10sec_data/Dave/Generated/RTC\rtc.h ****  *
  14:D:/Projects/VCU Firmware Main/IRP/Git Repo/VCU14_29bit_overCAN_withIRP_new4g_proto26_adding_All10sec_data/Dave/Generated/RTC\rtc.h ****  * Copyright (c) 2015-2020, Infineon Technologies AG
  15:D:/Projects/VCU Firmware Main/IRP/Git Repo/VCU14_29bit_overCAN_withIRP_new4g_proto26_adding_All10sec_data/Dave/Generated/RTC\rtc.h ****  * All rights reserved.
  16:D:/Projects/VCU Firmware Main/IRP/Git Repo/VCU14_29bit_overCAN_withIRP_new4g_proto26_adding_All10sec_data/Dave/Generated/RTC\rtc.h ****  *
  17:D:/Projects/VCU Firmware Main/IRP/Git Repo/VCU14_29bit_overCAN_withIRP_new4g_proto26_adding_All10sec_data/Dave/Generated/RTC\rtc.h ****  * Redistribution and use in source and binary forms, with or without modification,are permitted pr
  18:D:/Projects/VCU Firmware Main/IRP/Git Repo/VCU14_29bit_overCAN_withIRP_new4g_proto26_adding_All10sec_data/Dave/Generated/RTC\rtc.h ****  * following conditions are met:
  19:D:/Projects/VCU Firmware Main/IRP/Git Repo/VCU14_29bit_overCAN_withIRP_new4g_proto26_adding_All10sec_data/Dave/Generated/RTC\rtc.h ****  *
  20:D:/Projects/VCU Firmware Main/IRP/Git Repo/VCU14_29bit_overCAN_withIRP_new4g_proto26_adding_All10sec_data/Dave/Generated/RTC\rtc.h ****  *   Redistributions of source code must retain the above copyright notice, this list of conditions
  21:D:/Projects/VCU Firmware Main/IRP/Git Repo/VCU14_29bit_overCAN_withIRP_new4g_proto26_adding_All10sec_data/Dave/Generated/RTC\rtc.h ****  *   disclaimer.
  22:D:/Projects/VCU Firmware Main/IRP/Git Repo/VCU14_29bit_overCAN_withIRP_new4g_proto26_adding_All10sec_data/Dave/Generated/RTC\rtc.h ****  *
  23:D:/Projects/VCU Firmware Main/IRP/Git Repo/VCU14_29bit_overCAN_withIRP_new4g_proto26_adding_All10sec_data/Dave/Generated/RTC\rtc.h ****  *   Redistributions in binary form must reproduce the above copyright notice, this list of conditi
  24:D:/Projects/VCU Firmware Main/IRP/Git Repo/VCU14_29bit_overCAN_withIRP_new4g_proto26_adding_All10sec_data/Dave/Generated/RTC\rtc.h ****  *   following disclaimer in the documentation and/or other materials provided with the distributio
  25:D:/Projects/VCU Firmware Main/IRP/Git Repo/VCU14_29bit_overCAN_withIRP_new4g_proto26_adding_All10sec_data/Dave/Generated/RTC\rtc.h ****  *
  26:D:/Projects/VCU Firmware Main/IRP/Git Repo/VCU14_29bit_overCAN_withIRP_new4g_proto26_adding_All10sec_data/Dave/Generated/RTC\rtc.h ****  *   Neither the name of the copyright holders nor the names of its contributors may be used to end
  27:D:/Projects/VCU Firmware Main/IRP/Git Repo/VCU14_29bit_overCAN_withIRP_new4g_proto26_adding_All10sec_data/Dave/Generated/RTC\rtc.h ****  *   products derived from this software without specific prior written permission.
  28:D:/Projects/VCU Firmware Main/IRP/Git Repo/VCU14_29bit_overCAN_withIRP_new4g_proto26_adding_All10sec_data/Dave/Generated/RTC\rtc.h ****  *
  29:D:/Projects/VCU Firmware Main/IRP/Git Repo/VCU14_29bit_overCAN_withIRP_new4g_proto26_adding_All10sec_data/Dave/Generated/RTC\rtc.h ****  * THIS SOFTWARE IS PROVIDED BY THE COPYRIGHT HOLDERS AND CONTRIBUTORS "AS IS" AND ANY EXPRESS OR I
  30:D:/Projects/VCU Firmware Main/IRP/Git Repo/VCU14_29bit_overCAN_withIRP_new4g_proto26_adding_All10sec_data/Dave/Generated/RTC\rtc.h ****  * INCLUDING, BUT NOT LIMITED TO, THE IMPLIED WARRANTIES OF MERCHANTABILITY AND FITNESS FOR A PARTI
  31:D:/Projects/VCU Firmware Main/IRP/Git Repo/VCU14_29bit_overCAN_withIRP_new4g_proto26_adding_All10sec_data/Dave/Generated/RTC\rtc.h ****  * DISCLAIMED. IN NO EVENT SHALL THE COPYRIGHT HOLDER OR CONTRIBUTORS BE LIABLE  FOR ANY DIRECT, IN
  32:D:/Projects/VCU Firmware Main/IRP/Git Repo/VCU14_29bit_overCAN_withIRP_new4g_proto26_adding_All10sec_data/Dave/Generated/RTC\rtc.h ****  * SPECIAL, EXEMPLARY, OR CONSEQUENTIAL DAMAGES (INCLUDING, BUT NOT LIMITED TO, PROCUREMENT OF SUBS
  33:D:/Projects/VCU Firmware Main/IRP/Git Repo/VCU14_29bit_overCAN_withIRP_new4g_proto26_adding_All10sec_data/Dave/Generated/RTC\rtc.h ****  * SERVICES; LOSS OF USE, DATA, OR PROFITS; OR BUSINESS INTERRUPTION) HOWEVER CAUSED AND ON ANY THE
  34:D:/Projects/VCU Firmware Main/IRP/Git Repo/VCU14_29bit_overCAN_withIRP_new4g_proto26_adding_All10sec_data/Dave/Generated/RTC\rtc.h ****  * WHETHER IN CONTRACT, STRICT LIABILITY,OR TORT (INCLUDING NEGLIGENCE OR OTHERWISE) ARISING IN ANY
  35:D:/Projects/VCU Firmware Main/IRP/Git Repo/VCU14_29bit_overCAN_withIRP_new4g_proto26_adding_All10sec_data/Dave/Generated/RTC\rtc.h ****  * USE OF THIS SOFTWARE, EVEN IF ADVISED OF THE POSSIBILITY OF SUCH DAMAGE.
  36:D:/Projects/VCU Firmware Main/IRP/Git Repo/VCU14_29bit_overCAN_withIRP_new4g_proto26_adding_All10sec_data/Dave/Generated/RTC\rtc.h ****  *
  37:D:/Projects/VCU Firmware Main/IRP/Git Repo/VCU14_29bit_overCAN_withIRP_new4g_proto26_adding_All10sec_data/Dave/Generated/RTC\rtc.h ****  * To improve the quality of the software, users are encouraged to share modifications, enhancement
  38:D:/Projects/VCU Firmware Main/IRP/Git Repo/VCU14_29bit_overCAN_withIRP_new4g_proto26_adding_All10sec_data/Dave/Generated/RTC\rtc.h ****  * with Infineon Technologies AG (dave@infineon.com).
  39:D:/Projects/VCU Firmware Main/IRP/Git Repo/VCU14_29bit_overCAN_withIRP_new4g_proto26_adding_All10sec_data/Dave/Generated/RTC\rtc.h ****  **************************************************************************************************
  40:D:/Projects/VCU Firmware Main/IRP/Git Repo/VCU14_29bit_overCAN_withIRP_new4g_proto26_adding_All10sec_data/Dave/Generated/RTC\rtc.h ****  *
  41:D:/Projects/VCU Firmware Main/IRP/Git Repo/VCU14_29bit_overCAN_withIRP_new4g_proto26_adding_All10sec_data/Dave/Generated/RTC\rtc.h ****  * Change History
  42:D:/Projects/VCU Firmware Main/IRP/Git Repo/VCU14_29bit_overCAN_withIRP_new4g_proto26_adding_All10sec_data/Dave/Generated/RTC\rtc.h ****  * --------------
  43:D:/Projects/VCU Firmware Main/IRP/Git Repo/VCU14_29bit_overCAN_withIRP_new4g_proto26_adding_All10sec_data/Dave/Generated/RTC\rtc.h ****  *
  44:D:/Projects/VCU Firmware Main/IRP/Git Repo/VCU14_29bit_overCAN_withIRP_new4g_proto26_adding_All10sec_data/Dave/Generated/RTC\rtc.h ****  * 2015-02-16:
  45:D:/Projects/VCU Firmware Main/IRP/Git Repo/VCU14_29bit_overCAN_withIRP_new4g_proto26_adding_All10sec_data/Dave/Generated/RTC\rtc.h ****  *     - Initial version<br>
  46:D:/Projects/VCU Firmware Main/IRP/Git Repo/VCU14_29bit_overCAN_withIRP_new4g_proto26_adding_All10sec_data/Dave/Generated/RTC\rtc.h ****  *
  47:D:/Projects/VCU Firmware Main/IRP/Git Repo/VCU14_29bit_overCAN_withIRP_new4g_proto26_adding_All10sec_data/Dave/Generated/RTC\rtc.h ****  * 2015-05-18:
  48:D:/Projects/VCU Firmware Main/IRP/Git Repo/VCU14_29bit_overCAN_withIRP_new4g_proto26_adding_All10sec_data/Dave/Generated/RTC\rtc.h ****  *     - LLD version check added
  49:D:/Projects/VCU Firmware Main/IRP/Git Repo/VCU14_29bit_overCAN_withIRP_new4g_proto26_adding_All10sec_data/Dave/Generated/RTC\rtc.h ****  * 2016-07-15:
  50:D:/Projects/VCU Firmware Main/IRP/Git Repo/VCU14_29bit_overCAN_withIRP_new4g_proto26_adding_All10sec_data/Dave/Generated/RTC\rtc.h ****  *     - Added APIs to set and get time and alarm in standard time format.<br>
  51:D:/Projects/VCU Firmware Main/IRP/Git Repo/VCU14_29bit_overCAN_withIRP_new4g_proto26_adding_All10sec_data/Dave/Generated/RTC\rtc.h ****  * 2021-01-08:
  52:D:/Projects/VCU Firmware Main/IRP/Git Repo/VCU14_29bit_overCAN_withIRP_new4g_proto26_adding_All10sec_data/Dave/Generated/RTC\rtc.h ****  *     - Modified check for minimum XMCLib version
  53:D:/Projects/VCU Firmware Main/IRP/Git Repo/VCU14_29bit_overCAN_withIRP_new4g_proto26_adding_All10sec_data/Dave/Generated/RTC\rtc.h ****  *
  54:D:/Projects/VCU Firmware Main/IRP/Git Repo/VCU14_29bit_overCAN_withIRP_new4g_proto26_adding_All10sec_data/Dave/Generated/RTC\rtc.h ****  * @endcond
  55:D:/Projects/VCU Firmware Main/IRP/Git Repo/VCU14_29bit_overCAN_withIRP_new4g_proto26_adding_All10sec_data/Dave/Generated/RTC\rtc.h ****  *
  56:D:/Projects/VCU Firmware Main/IRP/Git Repo/VCU14_29bit_overCAN_withIRP_new4g_proto26_adding_All10sec_data/Dave/Generated/RTC\rtc.h ****  */
  57:D:/Projects/VCU Firmware Main/IRP/Git Repo/VCU14_29bit_overCAN_withIRP_new4g_proto26_adding_All10sec_data/Dave/Generated/RTC\rtc.h **** 
  58:D:/Projects/VCU Firmware Main/IRP/Git Repo/VCU14_29bit_overCAN_withIRP_new4g_proto26_adding_All10sec_data/Dave/Generated/RTC\rtc.h **** #ifndef RTC_H
  59:D:/Projects/VCU Firmware Main/IRP/Git Repo/VCU14_29bit_overCAN_withIRP_new4g_proto26_adding_All10sec_data/Dave/Generated/RTC\rtc.h **** #define RTC_H
  60:D:/Projects/VCU Firmware Main/IRP/Git Repo/VCU14_29bit_overCAN_withIRP_new4g_proto26_adding_All10sec_data/Dave/Generated/RTC\rtc.h **** 
  61:D:/Projects/VCU Firmware Main/IRP/Git Repo/VCU14_29bit_overCAN_withIRP_new4g_proto26_adding_All10sec_data/Dave/Generated/RTC\rtc.h **** 
  62:D:/Projects/VCU Firmware Main/IRP/Git Repo/VCU14_29bit_overCAN_withIRP_new4g_proto26_adding_All10sec_data/Dave/Generated/RTC\rtc.h **** /**************************************************************************************************
  63:D:/Projects/VCU Firmware Main/IRP/Git Repo/VCU14_29bit_overCAN_withIRP_new4g_proto26_adding_All10sec_data/Dave/Generated/RTC\rtc.h ****  * HEADER FILES
  64:D:/Projects/VCU Firmware Main/IRP/Git Repo/VCU14_29bit_overCAN_withIRP_new4g_proto26_adding_All10sec_data/Dave/Generated/RTC\rtc.h ****  **************************************************************************************************
  65:D:/Projects/VCU Firmware Main/IRP/Git Repo/VCU14_29bit_overCAN_withIRP_new4g_proto26_adding_All10sec_data/Dave/Generated/RTC\rtc.h **** #include "xmc_scu.h"
  66:D:/Projects/VCU Firmware Main/IRP/Git Repo/VCU14_29bit_overCAN_withIRP_new4g_proto26_adding_All10sec_data/Dave/Generated/RTC\rtc.h **** #include "xmc_rtc.h"
  67:D:/Projects/VCU Firmware Main/IRP/Git Repo/VCU14_29bit_overCAN_withIRP_new4g_proto26_adding_All10sec_data/Dave/Generated/RTC\rtc.h **** #include "rtc_conf.h"
  68:D:/Projects/VCU Firmware Main/IRP/Git Repo/VCU14_29bit_overCAN_withIRP_new4g_proto26_adding_All10sec_data/Dave/Generated/RTC\rtc.h **** #include "DAVE_Common.h"
  69:D:/Projects/VCU Firmware Main/IRP/Git Repo/VCU14_29bit_overCAN_withIRP_new4g_proto26_adding_All10sec_data/Dave/Generated/RTC\rtc.h **** 
  70:D:/Projects/VCU Firmware Main/IRP/Git Repo/VCU14_29bit_overCAN_withIRP_new4g_proto26_adding_All10sec_data/Dave/Generated/RTC\rtc.h **** /**************************************************************************************************
  71:D:/Projects/VCU Firmware Main/IRP/Git Repo/VCU14_29bit_overCAN_withIRP_new4g_proto26_adding_All10sec_data/Dave/Generated/RTC\rtc.h ****  * MACROS
  72:D:/Projects/VCU Firmware Main/IRP/Git Repo/VCU14_29bit_overCAN_withIRP_new4g_proto26_adding_All10sec_data/Dave/Generated/RTC\rtc.h ****  **************************************************************************************************
  73:D:/Projects/VCU Firmware Main/IRP/Git Repo/VCU14_29bit_overCAN_withIRP_new4g_proto26_adding_All10sec_data/Dave/Generated/RTC\rtc.h **** #define RTC_XMC_LIB_MAJOR_VERSION 2
  74:D:/Projects/VCU Firmware Main/IRP/Git Repo/VCU14_29bit_overCAN_withIRP_new4g_proto26_adding_All10sec_data/Dave/Generated/RTC\rtc.h **** #define RTC_XMC_LIB_MINOR_VERSION 0
  75:D:/Projects/VCU Firmware Main/IRP/Git Repo/VCU14_29bit_overCAN_withIRP_new4g_proto26_adding_All10sec_data/Dave/Generated/RTC\rtc.h **** #define RTC_XMC_LIB_PATCH_VERSION 0
  76:D:/Projects/VCU Firmware Main/IRP/Git Repo/VCU14_29bit_overCAN_withIRP_new4g_proto26_adding_All10sec_data/Dave/Generated/RTC\rtc.h **** 
  77:D:/Projects/VCU Firmware Main/IRP/Git Repo/VCU14_29bit_overCAN_withIRP_new4g_proto26_adding_All10sec_data/Dave/Generated/RTC\rtc.h **** #if !((XMC_LIB_MAJOR_VERSION > RTC_XMC_LIB_MAJOR_VERSION) ||\
  78:D:/Projects/VCU Firmware Main/IRP/Git Repo/VCU14_29bit_overCAN_withIRP_new4g_proto26_adding_All10sec_data/Dave/Generated/RTC\rtc.h ****       ((XMC_LIB_MAJOR_VERSION == RTC_XMC_LIB_MAJOR_VERSION) && (XMC_LIB_MINOR_VERSION > RTC_XMC_LIB
  79:D:/Projects/VCU Firmware Main/IRP/Git Repo/VCU14_29bit_overCAN_withIRP_new4g_proto26_adding_All10sec_data/Dave/Generated/RTC\rtc.h ****       ((XMC_LIB_MAJOR_VERSION == RTC_XMC_LIB_MAJOR_VERSION) && (XMC_LIB_MINOR_VERSION == RTC_XMC_LI
  80:D:/Projects/VCU Firmware Main/IRP/Git Repo/VCU14_29bit_overCAN_withIRP_new4g_proto26_adding_All10sec_data/Dave/Generated/RTC\rtc.h **** #error "RTC APP requires XMC Peripheral Library v2.0.0 or higher"
  81:D:/Projects/VCU Firmware Main/IRP/Git Repo/VCU14_29bit_overCAN_withIRP_new4g_proto26_adding_All10sec_data/Dave/Generated/RTC\rtc.h **** #endif
  82:D:/Projects/VCU Firmware Main/IRP/Git Repo/VCU14_29bit_overCAN_withIRP_new4g_proto26_adding_All10sec_data/Dave/Generated/RTC\rtc.h **** 
  83:D:/Projects/VCU Firmware Main/IRP/Git Repo/VCU14_29bit_overCAN_withIRP_new4g_proto26_adding_All10sec_data/Dave/Generated/RTC\rtc.h **** /**************************************************************************************************
  84:D:/Projects/VCU Firmware Main/IRP/Git Repo/VCU14_29bit_overCAN_withIRP_new4g_proto26_adding_All10sec_data/Dave/Generated/RTC\rtc.h ****  * ENUMS
  85:D:/Projects/VCU Firmware Main/IRP/Git Repo/VCU14_29bit_overCAN_withIRP_new4g_proto26_adding_All10sec_data/Dave/Generated/RTC\rtc.h ****  **************************************************************************************************
  86:D:/Projects/VCU Firmware Main/IRP/Git Repo/VCU14_29bit_overCAN_withIRP_new4g_proto26_adding_All10sec_data/Dave/Generated/RTC\rtc.h **** /**
  87:D:/Projects/VCU Firmware Main/IRP/Git Repo/VCU14_29bit_overCAN_withIRP_new4g_proto26_adding_All10sec_data/Dave/Generated/RTC\rtc.h ****  * @ingroup RTC_enumerations
  88:D:/Projects/VCU Firmware Main/IRP/Git Repo/VCU14_29bit_overCAN_withIRP_new4g_proto26_adding_All10sec_data/Dave/Generated/RTC\rtc.h ****  * @{
  89:D:/Projects/VCU Firmware Main/IRP/Git Repo/VCU14_29bit_overCAN_withIRP_new4g_proto26_adding_All10sec_data/Dave/Generated/RTC\rtc.h ****  */
  90:D:/Projects/VCU Firmware Main/IRP/Git Repo/VCU14_29bit_overCAN_withIRP_new4g_proto26_adding_All10sec_data/Dave/Generated/RTC\rtc.h **** 
  91:D:/Projects/VCU Firmware Main/IRP/Git Repo/VCU14_29bit_overCAN_withIRP_new4g_proto26_adding_All10sec_data/Dave/Generated/RTC\rtc.h **** typedef enum RTC_STATUS
  92:D:/Projects/VCU Firmware Main/IRP/Git Repo/VCU14_29bit_overCAN_withIRP_new4g_proto26_adding_All10sec_data/Dave/Generated/RTC\rtc.h **** {
  93:D:/Projects/VCU Firmware Main/IRP/Git Repo/VCU14_29bit_overCAN_withIRP_new4g_proto26_adding_All10sec_data/Dave/Generated/RTC\rtc.h ****   RTC_STATUS_SUCCESS = 0U,    /**< APP initialization status success */
  94:D:/Projects/VCU Firmware Main/IRP/Git Repo/VCU14_29bit_overCAN_withIRP_new4g_proto26_adding_All10sec_data/Dave/Generated/RTC\rtc.h ****   RTC_STATUS_FAILURE = 1U     /**< APP initialization status failure */
  95:D:/Projects/VCU Firmware Main/IRP/Git Repo/VCU14_29bit_overCAN_withIRP_new4g_proto26_adding_All10sec_data/Dave/Generated/RTC\rtc.h **** } RTC_STATUS_t;
  96:D:/Projects/VCU Firmware Main/IRP/Git Repo/VCU14_29bit_overCAN_withIRP_new4g_proto26_adding_All10sec_data/Dave/Generated/RTC\rtc.h **** 
  97:D:/Projects/VCU Firmware Main/IRP/Git Repo/VCU14_29bit_overCAN_withIRP_new4g_proto26_adding_All10sec_data/Dave/Generated/RTC\rtc.h **** /**
  98:D:/Projects/VCU Firmware Main/IRP/Git Repo/VCU14_29bit_overCAN_withIRP_new4g_proto26_adding_All10sec_data/Dave/Generated/RTC\rtc.h ****  * This enumeration defines RTC Module Enable and Disable values.
  99:D:/Projects/VCU Firmware Main/IRP/Git Repo/VCU14_29bit_overCAN_withIRP_new4g_proto26_adding_All10sec_data/Dave/Generated/RTC\rtc.h ****  */
 100:D:/Projects/VCU Firmware Main/IRP/Git Repo/VCU14_29bit_overCAN_withIRP_new4g_proto26_adding_All10sec_data/Dave/Generated/RTC\rtc.h **** 
 101:D:/Projects/VCU Firmware Main/IRP/Git Repo/VCU14_29bit_overCAN_withIRP_new4g_proto26_adding_All10sec_data/Dave/Generated/RTC\rtc.h **** typedef enum RTC_START
 102:D:/Projects/VCU Firmware Main/IRP/Git Repo/VCU14_29bit_overCAN_withIRP_new4g_proto26_adding_All10sec_data/Dave/Generated/RTC\rtc.h **** {
 103:D:/Projects/VCU Firmware Main/IRP/Git Repo/VCU14_29bit_overCAN_withIRP_new4g_proto26_adding_All10sec_data/Dave/Generated/RTC\rtc.h ****   RTC_START_DISABLE = 0x0U, /**< Disable RTC start */
 104:D:/Projects/VCU Firmware Main/IRP/Git Repo/VCU14_29bit_overCAN_withIRP_new4g_proto26_adding_All10sec_data/Dave/Generated/RTC\rtc.h ****   RTC_START_ENABLE = 0x1U   /**< Enable RTC start */
 105:D:/Projects/VCU Firmware Main/IRP/Git Repo/VCU14_29bit_overCAN_withIRP_new4g_proto26_adding_All10sec_data/Dave/Generated/RTC\rtc.h **** } RTC_START_t;
 106:D:/Projects/VCU Firmware Main/IRP/Git Repo/VCU14_29bit_overCAN_withIRP_new4g_proto26_adding_All10sec_data/Dave/Generated/RTC\rtc.h **** 
 107:D:/Projects/VCU Firmware Main/IRP/Git Repo/VCU14_29bit_overCAN_withIRP_new4g_proto26_adding_All10sec_data/Dave/Generated/RTC\rtc.h **** 
 108:D:/Projects/VCU Firmware Main/IRP/Git Repo/VCU14_29bit_overCAN_withIRP_new4g_proto26_adding_All10sec_data/Dave/Generated/RTC\rtc.h **** /**
 109:D:/Projects/VCU Firmware Main/IRP/Git Repo/VCU14_29bit_overCAN_withIRP_new4g_proto26_adding_All10sec_data/Dave/Generated/RTC\rtc.h ****  * This enumeration defines RTC Module Interrupt Related Events Enable and
 110:D:/Projects/VCU Firmware Main/IRP/Git Repo/VCU14_29bit_overCAN_withIRP_new4g_proto26_adding_All10sec_data/Dave/Generated/RTC\rtc.h ****  * Disable values.
 111:D:/Projects/VCU Firmware Main/IRP/Git Repo/VCU14_29bit_overCAN_withIRP_new4g_proto26_adding_All10sec_data/Dave/Generated/RTC\rtc.h ****  */
 112:D:/Projects/VCU Firmware Main/IRP/Git Repo/VCU14_29bit_overCAN_withIRP_new4g_proto26_adding_All10sec_data/Dave/Generated/RTC\rtc.h **** 
 113:D:/Projects/VCU Firmware Main/IRP/Git Repo/VCU14_29bit_overCAN_withIRP_new4g_proto26_adding_All10sec_data/Dave/Generated/RTC\rtc.h **** typedef enum RTC_INT
 114:D:/Projects/VCU Firmware Main/IRP/Git Repo/VCU14_29bit_overCAN_withIRP_new4g_proto26_adding_All10sec_data/Dave/Generated/RTC\rtc.h **** {
 115:D:/Projects/VCU Firmware Main/IRP/Git Repo/VCU14_29bit_overCAN_withIRP_new4g_proto26_adding_All10sec_data/Dave/Generated/RTC\rtc.h ****   RTC_INT_PERIODIC_SEC_DISABLE = 0x0U,          /**< Timer Periodic Seconds Interrupt Disable */
 116:D:/Projects/VCU Firmware Main/IRP/Git Repo/VCU14_29bit_overCAN_withIRP_new4g_proto26_adding_All10sec_data/Dave/Generated/RTC\rtc.h ****   RTC_INT_PERIODIC_SEC_ENABLE = 0x1U,           /**< Timer Periodic Seconds Interrupt Enable */
 117:D:/Projects/VCU Firmware Main/IRP/Git Repo/VCU14_29bit_overCAN_withIRP_new4g_proto26_adding_All10sec_data/Dave/Generated/RTC\rtc.h ****   RTC_INT_PERIODIC_MIN_DISABLE = 0x0U,          /**< Timer Periodic Minutes Interrupt Disable */
 118:D:/Projects/VCU Firmware Main/IRP/Git Repo/VCU14_29bit_overCAN_withIRP_new4g_proto26_adding_All10sec_data/Dave/Generated/RTC\rtc.h ****   RTC_INT_PERIODIC_MIN_ENABLE = 0x1U,           /**< Timer Periodic Minutes Interrupt Enable */
 119:D:/Projects/VCU Firmware Main/IRP/Git Repo/VCU14_29bit_overCAN_withIRP_new4g_proto26_adding_All10sec_data/Dave/Generated/RTC\rtc.h ****   RTC_INT_PERIODIC_HOUR_DISABLE = 0x0U,         /**< Timer Periodic Hours Interrupt Disable */
 120:D:/Projects/VCU Firmware Main/IRP/Git Repo/VCU14_29bit_overCAN_withIRP_new4g_proto26_adding_All10sec_data/Dave/Generated/RTC\rtc.h ****   RTC_INT_PERIODIC_HOUR_ENABLE = 0x1U,          /**< Timer Periodic Hours Interrupt Enable */
 121:D:/Projects/VCU Firmware Main/IRP/Git Repo/VCU14_29bit_overCAN_withIRP_new4g_proto26_adding_All10sec_data/Dave/Generated/RTC\rtc.h ****   RTC_INT_PERIODIC_DAY_DISABLE = 0x0U,          /**< Timer Periodic Days Interrupt Disable */
 122:D:/Projects/VCU Firmware Main/IRP/Git Repo/VCU14_29bit_overCAN_withIRP_new4g_proto26_adding_All10sec_data/Dave/Generated/RTC\rtc.h ****   RTC_INT_PERIODIC_DAY_ENABLE = 0x1U,           /**< Timer Periodic Days Interrupt Enable */
 123:D:/Projects/VCU Firmware Main/IRP/Git Repo/VCU14_29bit_overCAN_withIRP_new4g_proto26_adding_All10sec_data/Dave/Generated/RTC\rtc.h ****   RTC_INT_PERIODIC_MONTH_DISABLE = 0x0U,        /**< Timer Periodic Month Interrupt Disable */
 124:D:/Projects/VCU Firmware Main/IRP/Git Repo/VCU14_29bit_overCAN_withIRP_new4g_proto26_adding_All10sec_data/Dave/Generated/RTC\rtc.h ****   RTC_INT_PERIODIC_MONTH_ENABLE = 0x1U,         /**< Timer Periodic Month Interrupt Enable */
 125:D:/Projects/VCU Firmware Main/IRP/Git Repo/VCU14_29bit_overCAN_withIRP_new4g_proto26_adding_All10sec_data/Dave/Generated/RTC\rtc.h ****   RTC_INT_PERIODIC_YEAR_DISABLE = 0x0U,         /**< Timer Periodic Years Interrupt Disable */
 126:D:/Projects/VCU Firmware Main/IRP/Git Repo/VCU14_29bit_overCAN_withIRP_new4g_proto26_adding_All10sec_data/Dave/Generated/RTC\rtc.h ****   RTC_INT_PERIODIC_YEAR_ENABLE = 0x1U,          /**< Timer Periodic Years Interrupt Enable */
 127:D:/Projects/VCU Firmware Main/IRP/Git Repo/VCU14_29bit_overCAN_withIRP_new4g_proto26_adding_All10sec_data/Dave/Generated/RTC\rtc.h ****   RTC_INT_ALARM_DISABLE = 0x0U,                 /**< Alarm Interrupt Disable */
 128:D:/Projects/VCU Firmware Main/IRP/Git Repo/VCU14_29bit_overCAN_withIRP_new4g_proto26_adding_All10sec_data/Dave/Generated/RTC\rtc.h ****   RTC_INT_ALARM_ENABLE = 0x1U                   /**< Alarm Interrupt Enable */
 129:D:/Projects/VCU Firmware Main/IRP/Git Repo/VCU14_29bit_overCAN_withIRP_new4g_proto26_adding_All10sec_data/Dave/Generated/RTC\rtc.h **** } RTC_INT_t;
 130:D:/Projects/VCU Firmware Main/IRP/Git Repo/VCU14_29bit_overCAN_withIRP_new4g_proto26_adding_All10sec_data/Dave/Generated/RTC\rtc.h **** 
 131:D:/Projects/VCU Firmware Main/IRP/Git Repo/VCU14_29bit_overCAN_withIRP_new4g_proto26_adding_All10sec_data/Dave/Generated/RTC\rtc.h **** /**************************************************************************************************
 132:D:/Projects/VCU Firmware Main/IRP/Git Repo/VCU14_29bit_overCAN_withIRP_new4g_proto26_adding_All10sec_data/Dave/Generated/RTC\rtc.h **** * DATA STRUCTURES
 133:D:/Projects/VCU Firmware Main/IRP/Git Repo/VCU14_29bit_overCAN_withIRP_new4g_proto26_adding_All10sec_data/Dave/Generated/RTC\rtc.h **** ***************************************************************************************************
 134:D:/Projects/VCU Firmware Main/IRP/Git Repo/VCU14_29bit_overCAN_withIRP_new4g_proto26_adding_All10sec_data/Dave/Generated/RTC\rtc.h **** /**
 135:D:/Projects/VCU Firmware Main/IRP/Git Repo/VCU14_29bit_overCAN_withIRP_new4g_proto26_adding_All10sec_data/Dave/Generated/RTC\rtc.h ****   * @ingroup RTC_datastructures
 136:D:/Projects/VCU Firmware Main/IRP/Git Repo/VCU14_29bit_overCAN_withIRP_new4g_proto26_adding_All10sec_data/Dave/Generated/RTC\rtc.h ****   * @{
 137:D:/Projects/VCU Firmware Main/IRP/Git Repo/VCU14_29bit_overCAN_withIRP_new4g_proto26_adding_All10sec_data/Dave/Generated/RTC\rtc.h ****   */
 138:D:/Projects/VCU Firmware Main/IRP/Git Repo/VCU14_29bit_overCAN_withIRP_new4g_proto26_adding_All10sec_data/Dave/Generated/RTC\rtc.h **** 
 139:D:/Projects/VCU Firmware Main/IRP/Git Repo/VCU14_29bit_overCAN_withIRP_new4g_proto26_adding_All10sec_data/Dave/Generated/RTC\rtc.h **** /**
 140:D:/Projects/VCU Firmware Main/IRP/Git Repo/VCU14_29bit_overCAN_withIRP_new4g_proto26_adding_All10sec_data/Dave/Generated/RTC\rtc.h ****  * RTC APP Handle structure. Stores configured parameters in APP UI.
 141:D:/Projects/VCU Firmware Main/IRP/Git Repo/VCU14_29bit_overCAN_withIRP_new4g_proto26_adding_All10sec_data/Dave/Generated/RTC\rtc.h ****  */
 142:D:/Projects/VCU Firmware Main/IRP/Git Repo/VCU14_29bit_overCAN_withIRP_new4g_proto26_adding_All10sec_data/Dave/Generated/RTC\rtc.h **** 
 143:D:/Projects/VCU Firmware Main/IRP/Git Repo/VCU14_29bit_overCAN_withIRP_new4g_proto26_adding_All10sec_data/Dave/Generated/RTC\rtc.h **** typedef struct RTC_CONFIG
 144:D:/Projects/VCU Firmware Main/IRP/Git Repo/VCU14_29bit_overCAN_withIRP_new4g_proto26_adding_All10sec_data/Dave/Generated/RTC\rtc.h **** {
 145:D:/Projects/VCU Firmware Main/IRP/Git Repo/VCU14_29bit_overCAN_withIRP_new4g_proto26_adding_All10sec_data/Dave/Generated/RTC\rtc.h ****  RTC_START_t start;                           /**< rtc start */
 146:D:/Projects/VCU Firmware Main/IRP/Git Repo/VCU14_29bit_overCAN_withIRP_new4g_proto26_adding_All10sec_data/Dave/Generated/RTC\rtc.h **** 
 147:D:/Projects/VCU Firmware Main/IRP/Git Repo/VCU14_29bit_overCAN_withIRP_new4g_proto26_adding_All10sec_data/Dave/Generated/RTC\rtc.h ****  RTC_INT_t periodic_sec_intr;                 /**< periodic seconds interrupt */
 148:D:/Projects/VCU Firmware Main/IRP/Git Repo/VCU14_29bit_overCAN_withIRP_new4g_proto26_adding_All10sec_data/Dave/Generated/RTC\rtc.h ****  RTC_INT_t periodic_min_intr;                 /**< periodic minutes interrupt */
 149:D:/Projects/VCU Firmware Main/IRP/Git Repo/VCU14_29bit_overCAN_withIRP_new4g_proto26_adding_All10sec_data/Dave/Generated/RTC\rtc.h ****  RTC_INT_t periodic_hour_intr;                /**< periodic hours interrupt */
 150:D:/Projects/VCU Firmware Main/IRP/Git Repo/VCU14_29bit_overCAN_withIRP_new4g_proto26_adding_All10sec_data/Dave/Generated/RTC\rtc.h ****  RTC_INT_t periodic_day_intr;                 /**< periodic days interrupt */
 151:D:/Projects/VCU Firmware Main/IRP/Git Repo/VCU14_29bit_overCAN_withIRP_new4g_proto26_adding_All10sec_data/Dave/Generated/RTC\rtc.h ****  RTC_INT_t periodic_month_intr;               /**< periodic months interrupt */
 152:D:/Projects/VCU Firmware Main/IRP/Git Repo/VCU14_29bit_overCAN_withIRP_new4g_proto26_adding_All10sec_data/Dave/Generated/RTC\rtc.h ****  RTC_INT_t periodic_year_intr;                /**< periodic years interrupt */
 153:D:/Projects/VCU Firmware Main/IRP/Git Repo/VCU14_29bit_overCAN_withIRP_new4g_proto26_adding_All10sec_data/Dave/Generated/RTC\rtc.h **** 
 154:D:/Projects/VCU Firmware Main/IRP/Git Repo/VCU14_29bit_overCAN_withIRP_new4g_proto26_adding_All10sec_data/Dave/Generated/RTC\rtc.h ****  RTC_INT_t alarm_intr;                        /**< alarm interrupt */
 155:D:/Projects/VCU Firmware Main/IRP/Git Repo/VCU14_29bit_overCAN_withIRP_new4g_proto26_adding_All10sec_data/Dave/Generated/RTC\rtc.h **** 
 156:D:/Projects/VCU Firmware Main/IRP/Git Repo/VCU14_29bit_overCAN_withIRP_new4g_proto26_adding_All10sec_data/Dave/Generated/RTC\rtc.h **** #if ((UC_FAMILY == XMC4) && (RTC_INTERRUPT_ENABLED == 1))
 157:D:/Projects/VCU Firmware Main/IRP/Git Repo/VCU14_29bit_overCAN_withIRP_new4g_proto26_adding_All10sec_data/Dave/Generated/RTC\rtc.h ****  GLOBAL_SCU_XMC4_EVENT_HANDLER_t pi_listener;            /**< periodic interrupt listener */
 158:D:/Projects/VCU Firmware Main/IRP/Git Repo/VCU14_29bit_overCAN_withIRP_new4g_proto26_adding_All10sec_data/Dave/Generated/RTC\rtc.h ****  GLOBAL_SCU_XMC4_EVENT_HANDLER_t ai_listener;            /**< alarm interrupt listener */
 159:D:/Projects/VCU Firmware Main/IRP/Git Repo/VCU14_29bit_overCAN_withIRP_new4g_proto26_adding_All10sec_data/Dave/Generated/RTC\rtc.h **** #endif
 160:D:/Projects/VCU Firmware Main/IRP/Git Repo/VCU14_29bit_overCAN_withIRP_new4g_proto26_adding_All10sec_data/Dave/Generated/RTC\rtc.h **** 
 161:D:/Projects/VCU Firmware Main/IRP/Git Repo/VCU14_29bit_overCAN_withIRP_new4g_proto26_adding_All10sec_data/Dave/Generated/RTC\rtc.h **** #if ((UC_FAMILY == XMC1) && (RTC_INTERRUPT_ENABLED == 1))
 162:D:/Projects/VCU Firmware Main/IRP/Git Repo/VCU14_29bit_overCAN_withIRP_new4g_proto26_adding_All10sec_data/Dave/Generated/RTC\rtc.h ****  GLOBAL_SCU_XMC1_EVENT_HANDLER_t pi_listener;            /**< periodic interrupt listener */
 163:D:/Projects/VCU Firmware Main/IRP/Git Repo/VCU14_29bit_overCAN_withIRP_new4g_proto26_adding_All10sec_data/Dave/Generated/RTC\rtc.h ****  GLOBAL_SCU_XMC1_EVENT_HANDLER_t ai_listener;            /**< alarm interrupt listener */
 164:D:/Projects/VCU Firmware Main/IRP/Git Repo/VCU14_29bit_overCAN_withIRP_new4g_proto26_adding_All10sec_data/Dave/Generated/RTC\rtc.h **** #endif
 165:D:/Projects/VCU Firmware Main/IRP/Git Repo/VCU14_29bit_overCAN_withIRP_new4g_proto26_adding_All10sec_data/Dave/Generated/RTC\rtc.h **** } RTC_CONFIG_t;
 166:D:/Projects/VCU Firmware Main/IRP/Git Repo/VCU14_29bit_overCAN_withIRP_new4g_proto26_adding_All10sec_data/Dave/Generated/RTC\rtc.h **** 
 167:D:/Projects/VCU Firmware Main/IRP/Git Repo/VCU14_29bit_overCAN_withIRP_new4g_proto26_adding_All10sec_data/Dave/Generated/RTC\rtc.h **** /**
 168:D:/Projects/VCU Firmware Main/IRP/Git Repo/VCU14_29bit_overCAN_withIRP_new4g_proto26_adding_All10sec_data/Dave/Generated/RTC\rtc.h ****  * Runtime RTC handler.
 169:D:/Projects/VCU Firmware Main/IRP/Git Repo/VCU14_29bit_overCAN_withIRP_new4g_proto26_adding_All10sec_data/Dave/Generated/RTC\rtc.h ****  */
 170:D:/Projects/VCU Firmware Main/IRP/Git Repo/VCU14_29bit_overCAN_withIRP_new4g_proto26_adding_All10sec_data/Dave/Generated/RTC\rtc.h **** typedef struct RealTimeClock
 171:D:/Projects/VCU Firmware Main/IRP/Git Repo/VCU14_29bit_overCAN_withIRP_new4g_proto26_adding_All10sec_data/Dave/Generated/RTC\rtc.h **** {
 172:D:/Projects/VCU Firmware Main/IRP/Git Repo/VCU14_29bit_overCAN_withIRP_new4g_proto26_adding_All10sec_data/Dave/Generated/RTC\rtc.h ****   const XMC_RTC_CONFIG_t *const time_alarm_config; /** Pointer to RTC LLD configuration data */
 173:D:/Projects/VCU Firmware Main/IRP/Git Repo/VCU14_29bit_overCAN_withIRP_new4g_proto26_adding_All10sec_data/Dave/Generated/RTC\rtc.h ****   const RTC_CONFIG_t *const config;                /** Pointer to configuration data */
 174:D:/Projects/VCU Firmware Main/IRP/Git Repo/VCU14_29bit_overCAN_withIRP_new4g_proto26_adding_All10sec_data/Dave/Generated/RTC\rtc.h ****   bool initialized;                                /** status for initialized or not */
 175:D:/Projects/VCU Firmware Main/IRP/Git Repo/VCU14_29bit_overCAN_withIRP_new4g_proto26_adding_All10sec_data/Dave/Generated/RTC\rtc.h **** } RTC_t;
 176:D:/Projects/VCU Firmware Main/IRP/Git Repo/VCU14_29bit_overCAN_withIRP_new4g_proto26_adding_All10sec_data/Dave/Generated/RTC\rtc.h **** /**
 177:D:/Projects/VCU Firmware Main/IRP/Git Repo/VCU14_29bit_overCAN_withIRP_new4g_proto26_adding_All10sec_data/Dave/Generated/RTC\rtc.h ****  *@}
 178:D:/Projects/VCU Firmware Main/IRP/Git Repo/VCU14_29bit_overCAN_withIRP_new4g_proto26_adding_All10sec_data/Dave/Generated/RTC\rtc.h ****  */
 179:D:/Projects/VCU Firmware Main/IRP/Git Repo/VCU14_29bit_overCAN_withIRP_new4g_proto26_adding_All10sec_data/Dave/Generated/RTC\rtc.h **** 
 180:D:/Projects/VCU Firmware Main/IRP/Git Repo/VCU14_29bit_overCAN_withIRP_new4g_proto26_adding_All10sec_data/Dave/Generated/RTC\rtc.h **** #ifdef __cplusplus
 181:D:/Projects/VCU Firmware Main/IRP/Git Repo/VCU14_29bit_overCAN_withIRP_new4g_proto26_adding_All10sec_data/Dave/Generated/RTC\rtc.h **** extern "C" {
 182:D:/Projects/VCU Firmware Main/IRP/Git Repo/VCU14_29bit_overCAN_withIRP_new4g_proto26_adding_All10sec_data/Dave/Generated/RTC\rtc.h **** #endif
 183:D:/Projects/VCU Firmware Main/IRP/Git Repo/VCU14_29bit_overCAN_withIRP_new4g_proto26_adding_All10sec_data/Dave/Generated/RTC\rtc.h **** /**************************************************************************************************
 184:D:/Projects/VCU Firmware Main/IRP/Git Repo/VCU14_29bit_overCAN_withIRP_new4g_proto26_adding_All10sec_data/Dave/Generated/RTC\rtc.h ****  * API PROTOTYPES
 185:D:/Projects/VCU Firmware Main/IRP/Git Repo/VCU14_29bit_overCAN_withIRP_new4g_proto26_adding_All10sec_data/Dave/Generated/RTC\rtc.h **** ***************************************************************************************************
 186:D:/Projects/VCU Firmware Main/IRP/Git Repo/VCU14_29bit_overCAN_withIRP_new4g_proto26_adding_All10sec_data/Dave/Generated/RTC\rtc.h **** 
 187:D:/Projects/VCU Firmware Main/IRP/Git Repo/VCU14_29bit_overCAN_withIRP_new4g_proto26_adding_All10sec_data/Dave/Generated/RTC\rtc.h **** /**
 188:D:/Projects/VCU Firmware Main/IRP/Git Repo/VCU14_29bit_overCAN_withIRP_new4g_proto26_adding_All10sec_data/Dave/Generated/RTC\rtc.h ****  * @ingroup RTC_apidoc
 189:D:/Projects/VCU Firmware Main/IRP/Git Repo/VCU14_29bit_overCAN_withIRP_new4g_proto26_adding_All10sec_data/Dave/Generated/RTC\rtc.h ****  * @{
 190:D:/Projects/VCU Firmware Main/IRP/Git Repo/VCU14_29bit_overCAN_withIRP_new4g_proto26_adding_All10sec_data/Dave/Generated/RTC\rtc.h ****  */
 191:D:/Projects/VCU Firmware Main/IRP/Git Repo/VCU14_29bit_overCAN_withIRP_new4g_proto26_adding_All10sec_data/Dave/Generated/RTC\rtc.h **** 
 192:D:/Projects/VCU Firmware Main/IRP/Git Repo/VCU14_29bit_overCAN_withIRP_new4g_proto26_adding_All10sec_data/Dave/Generated/RTC\rtc.h **** /**
 193:D:/Projects/VCU Firmware Main/IRP/Git Repo/VCU14_29bit_overCAN_withIRP_new4g_proto26_adding_All10sec_data/Dave/Generated/RTC\rtc.h ****  * @brief Get RTC APP version.
 194:D:/Projects/VCU Firmware Main/IRP/Git Repo/VCU14_29bit_overCAN_withIRP_new4g_proto26_adding_All10sec_data/Dave/Generated/RTC\rtc.h ****  * @return @ref DAVE_APP_VERSION_t APP version information (major, minor and patch number)
 195:D:/Projects/VCU Firmware Main/IRP/Git Repo/VCU14_29bit_overCAN_withIRP_new4g_proto26_adding_All10sec_data/Dave/Generated/RTC\rtc.h ****  *
 196:D:/Projects/VCU Firmware Main/IRP/Git Repo/VCU14_29bit_overCAN_withIRP_new4g_proto26_adding_All10sec_data/Dave/Generated/RTC\rtc.h ****  * \par<b>Description: </b><br>
 197:D:/Projects/VCU Firmware Main/IRP/Git Repo/VCU14_29bit_overCAN_withIRP_new4g_proto26_adding_All10sec_data/Dave/Generated/RTC\rtc.h ****  * The function can be used to check application software compatibility with a
 198:D:/Projects/VCU Firmware Main/IRP/Git Repo/VCU14_29bit_overCAN_withIRP_new4g_proto26_adding_All10sec_data/Dave/Generated/RTC\rtc.h ****  * specific version of the APP.
 199:D:/Projects/VCU Firmware Main/IRP/Git Repo/VCU14_29bit_overCAN_withIRP_new4g_proto26_adding_All10sec_data/Dave/Generated/RTC\rtc.h ****  *
 200:D:/Projects/VCU Firmware Main/IRP/Git Repo/VCU14_29bit_overCAN_withIRP_new4g_proto26_adding_All10sec_data/Dave/Generated/RTC\rtc.h ****  * @code
 201:D:/Projects/VCU Firmware Main/IRP/Git Repo/VCU14_29bit_overCAN_withIRP_new4g_proto26_adding_All10sec_data/Dave/Generated/RTC\rtc.h ****  *  #include "DAVE.h"
 202:D:/Projects/VCU Firmware Main/IRP/Git Repo/VCU14_29bit_overCAN_withIRP_new4g_proto26_adding_All10sec_data/Dave/Generated/RTC\rtc.h ****  *
 203:D:/Projects/VCU Firmware Main/IRP/Git Repo/VCU14_29bit_overCAN_withIRP_new4g_proto26_adding_All10sec_data/Dave/Generated/RTC\rtc.h ****  *  int main(void)
 204:D:/Projects/VCU Firmware Main/IRP/Git Repo/VCU14_29bit_overCAN_withIRP_new4g_proto26_adding_All10sec_data/Dave/Generated/RTC\rtc.h ****  *  {
 205:D:/Projects/VCU Firmware Main/IRP/Git Repo/VCU14_29bit_overCAN_withIRP_new4g_proto26_adding_All10sec_data/Dave/Generated/RTC\rtc.h ****  *    DAVE_APP_VERSION_t version;
 206:D:/Projects/VCU Firmware Main/IRP/Git Repo/VCU14_29bit_overCAN_withIRP_new4g_proto26_adding_All10sec_data/Dave/Generated/RTC\rtc.h ****  *    DAVE_Init();
 207:D:/Projects/VCU Firmware Main/IRP/Git Repo/VCU14_29bit_overCAN_withIRP_new4g_proto26_adding_All10sec_data/Dave/Generated/RTC\rtc.h ****  *    version = RTC_GetAppVersion();
 208:D:/Projects/VCU Firmware Main/IRP/Git Repo/VCU14_29bit_overCAN_withIRP_new4g_proto26_adding_All10sec_data/Dave/Generated/RTC\rtc.h ****  *    if(version.major != 4U)
 209:D:/Projects/VCU Firmware Main/IRP/Git Repo/VCU14_29bit_overCAN_withIRP_new4g_proto26_adding_All10sec_data/Dave/Generated/RTC\rtc.h ****  *    {
 210:D:/Projects/VCU Firmware Main/IRP/Git Repo/VCU14_29bit_overCAN_withIRP_new4g_proto26_adding_All10sec_data/Dave/Generated/RTC\rtc.h ****  *    }
 211:D:/Projects/VCU Firmware Main/IRP/Git Repo/VCU14_29bit_overCAN_withIRP_new4g_proto26_adding_All10sec_data/Dave/Generated/RTC\rtc.h ****  *    return 0;
 212:D:/Projects/VCU Firmware Main/IRP/Git Repo/VCU14_29bit_overCAN_withIRP_new4g_proto26_adding_All10sec_data/Dave/Generated/RTC\rtc.h ****  *  }
 213:D:/Projects/VCU Firmware Main/IRP/Git Repo/VCU14_29bit_overCAN_withIRP_new4g_proto26_adding_All10sec_data/Dave/Generated/RTC\rtc.h ****  * @endcode<BR> </p>
 214:D:/Projects/VCU Firmware Main/IRP/Git Repo/VCU14_29bit_overCAN_withIRP_new4g_proto26_adding_All10sec_data/Dave/Generated/RTC\rtc.h ****  */
 215:D:/Projects/VCU Firmware Main/IRP/Git Repo/VCU14_29bit_overCAN_withIRP_new4g_proto26_adding_All10sec_data/Dave/Generated/RTC\rtc.h **** DAVE_APP_VERSION_t RTC_GetAppVersion(void);
 216:D:/Projects/VCU Firmware Main/IRP/Git Repo/VCU14_29bit_overCAN_withIRP_new4g_proto26_adding_All10sec_data/Dave/Generated/RTC\rtc.h **** 
 217:D:/Projects/VCU Firmware Main/IRP/Git Repo/VCU14_29bit_overCAN_withIRP_new4g_proto26_adding_All10sec_data/Dave/Generated/RTC\rtc.h **** 
 218:D:/Projects/VCU Firmware Main/IRP/Git Repo/VCU14_29bit_overCAN_withIRP_new4g_proto26_adding_All10sec_data/Dave/Generated/RTC\rtc.h ****  /**
 219:D:/Projects/VCU Firmware Main/IRP/Git Repo/VCU14_29bit_overCAN_withIRP_new4g_proto26_adding_All10sec_data/Dave/Generated/RTC\rtc.h ****  * @brief Initializes RTC module.
 220:D:/Projects/VCU Firmware Main/IRP/Git Repo/VCU14_29bit_overCAN_withIRP_new4g_proto26_adding_All10sec_data/Dave/Generated/RTC\rtc.h ****  * @param handle Constant pointer to RTC structure of type @ref RTC_t
 221:D:/Projects/VCU Firmware Main/IRP/Git Repo/VCU14_29bit_overCAN_withIRP_new4g_proto26_adding_All10sec_data/Dave/Generated/RTC\rtc.h ****  * @return @ref RTC_STATUS_t
 222:D:/Projects/VCU Firmware Main/IRP/Git Repo/VCU14_29bit_overCAN_withIRP_new4g_proto26_adding_All10sec_data/Dave/Generated/RTC\rtc.h ****  *
 223:D:/Projects/VCU Firmware Main/IRP/Git Repo/VCU14_29bit_overCAN_withIRP_new4g_proto26_adding_All10sec_data/Dave/Generated/RTC\rtc.h ****  * \par<b>Description:</b><br>
 224:D:/Projects/VCU Firmware Main/IRP/Git Repo/VCU14_29bit_overCAN_withIRP_new4g_proto26_adding_All10sec_data/Dave/Generated/RTC\rtc.h ****  * Configures the RTC module registers as per settings updated in
 225:D:/Projects/VCU Firmware Main/IRP/Git Repo/VCU14_29bit_overCAN_withIRP_new4g_proto26_adding_All10sec_data/Dave/Generated/RTC\rtc.h ****  * UI and enables the RTC module.
 226:D:/Projects/VCU Firmware Main/IRP/Git Repo/VCU14_29bit_overCAN_withIRP_new4g_proto26_adding_All10sec_data/Dave/Generated/RTC\rtc.h ****  *
 227:D:/Projects/VCU Firmware Main/IRP/Git Repo/VCU14_29bit_overCAN_withIRP_new4g_proto26_adding_All10sec_data/Dave/Generated/RTC\rtc.h ****  * <P ALIGN="LEFT"><B>Example:</B>
 228:D:/Projects/VCU Firmware Main/IRP/Git Repo/VCU14_29bit_overCAN_withIRP_new4g_proto26_adding_All10sec_data/Dave/Generated/RTC\rtc.h ****  * Pre-requisite: Instantiate RTC APP and generate code before copying below code snippet.
 229:D:/Projects/VCU Firmware Main/IRP/Git Repo/VCU14_29bit_overCAN_withIRP_new4g_proto26_adding_All10sec_data/Dave/Generated/RTC\rtc.h ****  * @code
 230:D:/Projects/VCU Firmware Main/IRP/Git Repo/VCU14_29bit_overCAN_withIRP_new4g_proto26_adding_All10sec_data/Dave/Generated/RTC\rtc.h ****  *  #include "DAVE.h"
 231:D:/Projects/VCU Firmware Main/IRP/Git Repo/VCU14_29bit_overCAN_withIRP_new4g_proto26_adding_All10sec_data/Dave/Generated/RTC\rtc.h ****  * 
 232:D:/Projects/VCU Firmware Main/IRP/Git Repo/VCU14_29bit_overCAN_withIRP_new4g_proto26_adding_All10sec_data/Dave/Generated/RTC\rtc.h ****  *  int main(void)
 233:D:/Projects/VCU Firmware Main/IRP/Git Repo/VCU14_29bit_overCAN_withIRP_new4g_proto26_adding_All10sec_data/Dave/Generated/RTC\rtc.h ****  *  {
 234:D:/Projects/VCU Firmware Main/IRP/Git Repo/VCU14_29bit_overCAN_withIRP_new4g_proto26_adding_All10sec_data/Dave/Generated/RTC\rtc.h ****  *    DAVE_Init(); // RTC_Init(&RTC_0) will be called within DAVE_Init()
 235:D:/Projects/VCU Firmware Main/IRP/Git Repo/VCU14_29bit_overCAN_withIRP_new4g_proto26_adding_All10sec_data/Dave/Generated/RTC\rtc.h ****  *    // ... infinite loop ...
 236:D:/Projects/VCU Firmware Main/IRP/Git Repo/VCU14_29bit_overCAN_withIRP_new4g_proto26_adding_All10sec_data/Dave/Generated/RTC\rtc.h ****  *    while(1)
 237:D:/Projects/VCU Firmware Main/IRP/Git Repo/VCU14_29bit_overCAN_withIRP_new4g_proto26_adding_All10sec_data/Dave/Generated/RTC\rtc.h ****  *    {}
 238:D:/Projects/VCU Firmware Main/IRP/Git Repo/VCU14_29bit_overCAN_withIRP_new4g_proto26_adding_All10sec_data/Dave/Generated/RTC\rtc.h ****  *  }
 239:D:/Projects/VCU Firmware Main/IRP/Git Repo/VCU14_29bit_overCAN_withIRP_new4g_proto26_adding_All10sec_data/Dave/Generated/RTC\rtc.h ****  * @endcode<BR> </p> 
 240:D:/Projects/VCU Firmware Main/IRP/Git Repo/VCU14_29bit_overCAN_withIRP_new4g_proto26_adding_All10sec_data/Dave/Generated/RTC\rtc.h ****  */
 241:D:/Projects/VCU Firmware Main/IRP/Git Repo/VCU14_29bit_overCAN_withIRP_new4g_proto26_adding_All10sec_data/Dave/Generated/RTC\rtc.h **** RTC_STATUS_t RTC_Init(RTC_t *const handle);
 242:D:/Projects/VCU Firmware Main/IRP/Git Repo/VCU14_29bit_overCAN_withIRP_new4g_proto26_adding_All10sec_data/Dave/Generated/RTC\rtc.h **** 
 243:D:/Projects/VCU Firmware Main/IRP/Git Repo/VCU14_29bit_overCAN_withIRP_new4g_proto26_adding_All10sec_data/Dave/Generated/RTC\rtc.h **** /**
 244:D:/Projects/VCU Firmware Main/IRP/Git Repo/VCU14_29bit_overCAN_withIRP_new4g_proto26_adding_All10sec_data/Dave/Generated/RTC\rtc.h ****  * @brief Returns the time in seconds since the epoch time(01/01/1970).
 245:D:/Projects/VCU Firmware Main/IRP/Git Repo/VCU14_29bit_overCAN_withIRP_new4g_proto26_adding_All10sec_data/Dave/Generated/RTC\rtc.h ****  * @param time_value Pointer to structure of type @ref time_t
 246:D:/Projects/VCU Firmware Main/IRP/Git Repo/VCU14_29bit_overCAN_withIRP_new4g_proto26_adding_All10sec_data/Dave/Generated/RTC\rtc.h ****  * @return @ref RTC_STATUS_t
 247:D:/Projects/VCU Firmware Main/IRP/Git Repo/VCU14_29bit_overCAN_withIRP_new4g_proto26_adding_All10sec_data/Dave/Generated/RTC\rtc.h ****  *
 248:D:/Projects/VCU Firmware Main/IRP/Git Repo/VCU14_29bit_overCAN_withIRP_new4g_proto26_adding_All10sec_data/Dave/Generated/RTC\rtc.h ****  * <P ALIGN="LEFT"><B>Example:</B>
 249:D:/Projects/VCU Firmware Main/IRP/Git Repo/VCU14_29bit_overCAN_withIRP_new4g_proto26_adding_All10sec_data/Dave/Generated/RTC\rtc.h ****  * Pre-requisite: Instantiate RTC APP and generate code before copying below code snippet.
 250:D:/Projects/VCU Firmware Main/IRP/Git Repo/VCU14_29bit_overCAN_withIRP_new4g_proto26_adding_All10sec_data/Dave/Generated/RTC\rtc.h ****  * @code 
 251:D:/Projects/VCU Firmware Main/IRP/Git Repo/VCU14_29bit_overCAN_withIRP_new4g_proto26_adding_All10sec_data/Dave/Generated/RTC\rtc.h ****  * #include "DAVE.h"
 252:D:/Projects/VCU Firmware Main/IRP/Git Repo/VCU14_29bit_overCAN_withIRP_new4g_proto26_adding_All10sec_data/Dave/Generated/RTC\rtc.h ****  * 
 253:D:/Projects/VCU Firmware Main/IRP/Git Repo/VCU14_29bit_overCAN_withIRP_new4g_proto26_adding_All10sec_data/Dave/Generated/RTC\rtc.h ****  * int main(void)
 254:D:/Projects/VCU Firmware Main/IRP/Git Repo/VCU14_29bit_overCAN_withIRP_new4g_proto26_adding_All10sec_data/Dave/Generated/RTC\rtc.h ****  * {
 255:D:/Projects/VCU Firmware Main/IRP/Git Repo/VCU14_29bit_overCAN_withIRP_new4g_proto26_adding_All10sec_data/Dave/Generated/RTC\rtc.h ****  *   RTC_STATUS_t status = RTC_STATUS_FAILURE;
 256:D:/Projects/VCU Firmware Main/IRP/Git Repo/VCU14_29bit_overCAN_withIRP_new4g_proto26_adding_All10sec_data/Dave/Generated/RTC\rtc.h ****  *   time_t Time_Sec;
 257:D:/Projects/VCU Firmware Main/IRP/Git Repo/VCU14_29bit_overCAN_withIRP_new4g_proto26_adding_All10sec_data/Dave/Generated/RTC\rtc.h ****  *   DAVE_Init();  // RTC_Init(&RTC_0) will be called within DAVE_Init()
 258:D:/Projects/VCU Firmware Main/IRP/Git Repo/VCU14_29bit_overCAN_withIRP_new4g_proto26_adding_All10sec_data/Dave/Generated/RTC\rtc.h ****  *   status = RTC_Time(&Time_Sec);
 259:D:/Projects/VCU Firmware Main/IRP/Git Repo/VCU14_29bit_overCAN_withIRP_new4g_proto26_adding_All10sec_data/Dave/Generated/RTC\rtc.h ****  *   if(status != RTC_STATUS_SUCCESS)
 260:D:/Projects/VCU Firmware Main/IRP/Git Repo/VCU14_29bit_overCAN_withIRP_new4g_proto26_adding_All10sec_data/Dave/Generated/RTC\rtc.h ****  *   {
 261:D:/Projects/VCU Firmware Main/IRP/Git Repo/VCU14_29bit_overCAN_withIRP_new4g_proto26_adding_All10sec_data/Dave/Generated/RTC\rtc.h ****  *	   //error
 262:D:/Projects/VCU Firmware Main/IRP/Git Repo/VCU14_29bit_overCAN_withIRP_new4g_proto26_adding_All10sec_data/Dave/Generated/RTC\rtc.h ****  *   }
 263:D:/Projects/VCU Firmware Main/IRP/Git Repo/VCU14_29bit_overCAN_withIRP_new4g_proto26_adding_All10sec_data/Dave/Generated/RTC\rtc.h ****  *   // ... infinite loop ...
 264:D:/Projects/VCU Firmware Main/IRP/Git Repo/VCU14_29bit_overCAN_withIRP_new4g_proto26_adding_All10sec_data/Dave/Generated/RTC\rtc.h ****  *   while(1)
 265:D:/Projects/VCU Firmware Main/IRP/Git Repo/VCU14_29bit_overCAN_withIRP_new4g_proto26_adding_All10sec_data/Dave/Generated/RTC\rtc.h ****  *   {}
 266:D:/Projects/VCU Firmware Main/IRP/Git Repo/VCU14_29bit_overCAN_withIRP_new4g_proto26_adding_All10sec_data/Dave/Generated/RTC\rtc.h ****  * }
 267:D:/Projects/VCU Firmware Main/IRP/Git Repo/VCU14_29bit_overCAN_withIRP_new4g_proto26_adding_All10sec_data/Dave/Generated/RTC\rtc.h ****  * @endcode<BR> </p> 
 268:D:/Projects/VCU Firmware Main/IRP/Git Repo/VCU14_29bit_overCAN_withIRP_new4g_proto26_adding_All10sec_data/Dave/Generated/RTC\rtc.h ****  */
 269:D:/Projects/VCU Firmware Main/IRP/Git Repo/VCU14_29bit_overCAN_withIRP_new4g_proto26_adding_All10sec_data/Dave/Generated/RTC\rtc.h **** RTC_STATUS_t RTC_Time(time_t* time_value) ;
 270:D:/Projects/VCU Firmware Main/IRP/Git Repo/VCU14_29bit_overCAN_withIRP_new4g_proto26_adding_All10sec_data/Dave/Generated/RTC\rtc.h **** 
 271:D:/Projects/VCU Firmware Main/IRP/Git Repo/VCU14_29bit_overCAN_withIRP_new4g_proto26_adding_All10sec_data/Dave/Generated/RTC\rtc.h **** /**
 272:D:/Projects/VCU Firmware Main/IRP/Git Repo/VCU14_29bit_overCAN_withIRP_new4g_proto26_adding_All10sec_data/Dave/Generated/RTC\rtc.h ****  * @brief Starts the RTC running
 273:D:/Projects/VCU Firmware Main/IRP/Git Repo/VCU14_29bit_overCAN_withIRP_new4g_proto26_adding_All10sec_data/Dave/Generated/RTC\rtc.h ****  * @return None
 274:D:/Projects/VCU Firmware Main/IRP/Git Repo/VCU14_29bit_overCAN_withIRP_new4g_proto26_adding_All10sec_data/Dave/Generated/RTC\rtc.h ****  *
 275:D:/Projects/VCU Firmware Main/IRP/Git Repo/VCU14_29bit_overCAN_withIRP_new4g_proto26_adding_All10sec_data/Dave/Generated/RTC\rtc.h ****  *\par<b>Description: </b><br>
 276:D:/Projects/VCU Firmware Main/IRP/Git Repo/VCU14_29bit_overCAN_withIRP_new4g_proto26_adding_All10sec_data/Dave/Generated/RTC\rtc.h ****  * Before verifying this API it is required to deselect "Start after initialization" checbox in UI.
 277:D:/Projects/VCU Firmware Main/IRP/Git Repo/VCU14_29bit_overCAN_withIRP_new4g_proto26_adding_All10sec_data/Dave/Generated/RTC\rtc.h ****  * Thereby this API shall be used to start the RTC module.
 278:D:/Projects/VCU Firmware Main/IRP/Git Repo/VCU14_29bit_overCAN_withIRP_new4g_proto26_adding_All10sec_data/Dave/Generated/RTC\rtc.h ****  * <P ALIGN="LEFT"><B>Example:</B>
 279:D:/Projects/VCU Firmware Main/IRP/Git Repo/VCU14_29bit_overCAN_withIRP_new4g_proto26_adding_All10sec_data/Dave/Generated/RTC\rtc.h ****  * Pre-requisite:
 280:D:/Projects/VCU Firmware Main/IRP/Git Repo/VCU14_29bit_overCAN_withIRP_new4g_proto26_adding_All10sec_data/Dave/Generated/RTC\rtc.h ****  * 1. Instantiate RTC APP <br>
 281:D:/Projects/VCU Firmware Main/IRP/Git Repo/VCU14_29bit_overCAN_withIRP_new4g_proto26_adding_All10sec_data/Dave/Generated/RTC\rtc.h ****  * 2. Unselect "Start after initialization checkbox in UI" <br>
 282:D:/Projects/VCU Firmware Main/IRP/Git Repo/VCU14_29bit_overCAN_withIRP_new4g_proto26_adding_All10sec_data/Dave/Generated/RTC\rtc.h ****  * 3. Generate code before copying below code snippet. <br>
 283:D:/Projects/VCU Firmware Main/IRP/Git Repo/VCU14_29bit_overCAN_withIRP_new4g_proto26_adding_All10sec_data/Dave/Generated/RTC\rtc.h ****  * @code
 284:D:/Projects/VCU Firmware Main/IRP/Git Repo/VCU14_29bit_overCAN_withIRP_new4g_proto26_adding_All10sec_data/Dave/Generated/RTC\rtc.h ****  * #include "DAVE.h"
 285:D:/Projects/VCU Firmware Main/IRP/Git Repo/VCU14_29bit_overCAN_withIRP_new4g_proto26_adding_All10sec_data/Dave/Generated/RTC\rtc.h ****  * 
 286:D:/Projects/VCU Firmware Main/IRP/Git Repo/VCU14_29bit_overCAN_withIRP_new4g_proto26_adding_All10sec_data/Dave/Generated/RTC\rtc.h ****  * int main(void)
 287:D:/Projects/VCU Firmware Main/IRP/Git Repo/VCU14_29bit_overCAN_withIRP_new4g_proto26_adding_All10sec_data/Dave/Generated/RTC\rtc.h ****  * {
 288:D:/Projects/VCU Firmware Main/IRP/Git Repo/VCU14_29bit_overCAN_withIRP_new4g_proto26_adding_All10sec_data/Dave/Generated/RTC\rtc.h ****  *   DAVE_Init();// RTC_Init(&RTC_0) will be called within DAVE_Init()
 289:D:/Projects/VCU Firmware Main/IRP/Git Repo/VCU14_29bit_overCAN_withIRP_new4g_proto26_adding_All10sec_data/Dave/Generated/RTC\rtc.h ****  *   RTC_Stop();
 290:D:/Projects/VCU Firmware Main/IRP/Git Repo/VCU14_29bit_overCAN_withIRP_new4g_proto26_adding_All10sec_data/Dave/Generated/RTC\rtc.h ****  *   if (XMC_RTC_IsRunning() == false)
 291:D:/Projects/VCU Firmware Main/IRP/Git Repo/VCU14_29bit_overCAN_withIRP_new4g_proto26_adding_All10sec_data/Dave/Generated/RTC\rtc.h ****  *   {
 292:D:/Projects/VCU Firmware Main/IRP/Git Repo/VCU14_29bit_overCAN_withIRP_new4g_proto26_adding_All10sec_data/Dave/Generated/RTC\rtc.h ****  *     RTC_Start();
 293:D:/Projects/VCU Firmware Main/IRP/Git Repo/VCU14_29bit_overCAN_withIRP_new4g_proto26_adding_All10sec_data/Dave/Generated/RTC\rtc.h ****  *   }
 294:D:/Projects/VCU Firmware Main/IRP/Git Repo/VCU14_29bit_overCAN_withIRP_new4g_proto26_adding_All10sec_data/Dave/Generated/RTC\rtc.h ****  *   // ... infinite loop ...
 295:D:/Projects/VCU Firmware Main/IRP/Git Repo/VCU14_29bit_overCAN_withIRP_new4g_proto26_adding_All10sec_data/Dave/Generated/RTC\rtc.h ****  *   while(1)
 296:D:/Projects/VCU Firmware Main/IRP/Git Repo/VCU14_29bit_overCAN_withIRP_new4g_proto26_adding_All10sec_data/Dave/Generated/RTC\rtc.h ****  *   {}
 297:D:/Projects/VCU Firmware Main/IRP/Git Repo/VCU14_29bit_overCAN_withIRP_new4g_proto26_adding_All10sec_data/Dave/Generated/RTC\rtc.h ****  * }
 298:D:/Projects/VCU Firmware Main/IRP/Git Repo/VCU14_29bit_overCAN_withIRP_new4g_proto26_adding_All10sec_data/Dave/Generated/RTC\rtc.h ****  * @endcode<BR> </p>
 299:D:/Projects/VCU Firmware Main/IRP/Git Repo/VCU14_29bit_overCAN_withIRP_new4g_proto26_adding_All10sec_data/Dave/Generated/RTC\rtc.h ****  */
 300:D:/Projects/VCU Firmware Main/IRP/Git Repo/VCU14_29bit_overCAN_withIRP_new4g_proto26_adding_All10sec_data/Dave/Generated/RTC\rtc.h **** __STATIC_INLINE void RTC_Start(void)
 301:D:/Projects/VCU Firmware Main/IRP/Git Repo/VCU14_29bit_overCAN_withIRP_new4g_proto26_adding_All10sec_data/Dave/Generated/RTC\rtc.h **** {
  27              	 .loc 1 301 0
  28              	 .cfi_startproc
  29              	 
  30              	 
  31 0000 80B5     	 push {r7,lr}
  32              	.LCFI0:
  33              	 .cfi_def_cfa_offset 8
  34              	 .cfi_offset 7,-8
  35              	 .cfi_offset 14,-4
  36 0002 00AF     	 add r7,sp,#0
  37              	.LCFI1:
  38              	 .cfi_def_cfa_register 7
 302:D:/Projects/VCU Firmware Main/IRP/Git Repo/VCU14_29bit_overCAN_withIRP_new4g_proto26_adding_All10sec_data/Dave/Generated/RTC\rtc.h **** 	XMC_RTC_Start();
  39              	 .loc 1 302 0
  40 0004 FFF7FEFF 	 bl XMC_RTC_Start
 303:D:/Projects/VCU Firmware Main/IRP/Git Repo/VCU14_29bit_overCAN_withIRP_new4g_proto26_adding_All10sec_data/Dave/Generated/RTC\rtc.h **** }
  41              	 .loc 1 303 0
  42 0008 80BD     	 pop {r7,pc}
  43              	 .cfi_endproc
  44              	.LFE527:
  46 000a 00BF     	 .section .text.RTC_Stop,"ax",%progbits
  47              	 .align 2
  48              	 .thumb
  49              	 .thumb_func
  51              	RTC_Stop:
  52              	.LFB528:
 304:D:/Projects/VCU Firmware Main/IRP/Git Repo/VCU14_29bit_overCAN_withIRP_new4g_proto26_adding_All10sec_data/Dave/Generated/RTC\rtc.h **** 
 305:D:/Projects/VCU Firmware Main/IRP/Git Repo/VCU14_29bit_overCAN_withIRP_new4g_proto26_adding_All10sec_data/Dave/Generated/RTC\rtc.h **** /**
 306:D:/Projects/VCU Firmware Main/IRP/Git Repo/VCU14_29bit_overCAN_withIRP_new4g_proto26_adding_All10sec_data/Dave/Generated/RTC\rtc.h ****  * @brief Stops the RTC running
 307:D:/Projects/VCU Firmware Main/IRP/Git Repo/VCU14_29bit_overCAN_withIRP_new4g_proto26_adding_All10sec_data/Dave/Generated/RTC\rtc.h ****  * @return None
 308:D:/Projects/VCU Firmware Main/IRP/Git Repo/VCU14_29bit_overCAN_withIRP_new4g_proto26_adding_All10sec_data/Dave/Generated/RTC\rtc.h ****  *
 309:D:/Projects/VCU Firmware Main/IRP/Git Repo/VCU14_29bit_overCAN_withIRP_new4g_proto26_adding_All10sec_data/Dave/Generated/RTC\rtc.h ****  * <P ALIGN="LEFT"><B>Example:</B>
 310:D:/Projects/VCU Firmware Main/IRP/Git Repo/VCU14_29bit_overCAN_withIRP_new4g_proto26_adding_All10sec_data/Dave/Generated/RTC\rtc.h ****  * Pre-requisite: Instantiate RTC APP <br>
 311:D:/Projects/VCU Firmware Main/IRP/Git Repo/VCU14_29bit_overCAN_withIRP_new4g_proto26_adding_All10sec_data/Dave/Generated/RTC\rtc.h ****  * Enable periodic seconds event in "Interrupt Settings" tab. <br>
 312:D:/Projects/VCU Firmware Main/IRP/Git Repo/VCU14_29bit_overCAN_withIRP_new4g_proto26_adding_All10sec_data/Dave/Generated/RTC\rtc.h ****  * Generate code before copying below code snippet.
 313:D:/Projects/VCU Firmware Main/IRP/Git Repo/VCU14_29bit_overCAN_withIRP_new4g_proto26_adding_All10sec_data/Dave/Generated/RTC\rtc.h ****  *
 314:D:/Projects/VCU Firmware Main/IRP/Git Repo/VCU14_29bit_overCAN_withIRP_new4g_proto26_adding_All10sec_data/Dave/Generated/RTC\rtc.h ****  * @code
 315:D:/Projects/VCU Firmware Main/IRP/Git Repo/VCU14_29bit_overCAN_withIRP_new4g_proto26_adding_All10sec_data/Dave/Generated/RTC\rtc.h ****  * #include "DAVE.h"
 316:D:/Projects/VCU Firmware Main/IRP/Git Repo/VCU14_29bit_overCAN_withIRP_new4g_proto26_adding_All10sec_data/Dave/Generated/RTC\rtc.h ****  *
 317:D:/Projects/VCU Firmware Main/IRP/Git Repo/VCU14_29bit_overCAN_withIRP_new4g_proto26_adding_All10sec_data/Dave/Generated/RTC\rtc.h ****  * void Time_Handler(void)
 318:D:/Projects/VCU Firmware Main/IRP/Git Repo/VCU14_29bit_overCAN_withIRP_new4g_proto26_adding_All10sec_data/Dave/Generated/RTC\rtc.h ****  * {
 319:D:/Projects/VCU Firmware Main/IRP/Git Repo/VCU14_29bit_overCAN_withIRP_new4g_proto26_adding_All10sec_data/Dave/Generated/RTC\rtc.h ****  *    static uint32_t seconds = 0;
 320:D:/Projects/VCU Firmware Main/IRP/Git Repo/VCU14_29bit_overCAN_withIRP_new4g_proto26_adding_All10sec_data/Dave/Generated/RTC\rtc.h ****  *    seconds++;
 321:D:/Projects/VCU Firmware Main/IRP/Git Repo/VCU14_29bit_overCAN_withIRP_new4g_proto26_adding_All10sec_data/Dave/Generated/RTC\rtc.h ****  *
 322:D:/Projects/VCU Firmware Main/IRP/Git Repo/VCU14_29bit_overCAN_withIRP_new4g_proto26_adding_All10sec_data/Dave/Generated/RTC\rtc.h ****  *    if(seconds == 30)
 323:D:/Projects/VCU Firmware Main/IRP/Git Repo/VCU14_29bit_overCAN_withIRP_new4g_proto26_adding_All10sec_data/Dave/Generated/RTC\rtc.h ****  *    {
 324:D:/Projects/VCU Firmware Main/IRP/Git Repo/VCU14_29bit_overCAN_withIRP_new4g_proto26_adding_All10sec_data/Dave/Generated/RTC\rtc.h ****  *      RTC_Stop();
 325:D:/Projects/VCU Firmware Main/IRP/Git Repo/VCU14_29bit_overCAN_withIRP_new4g_proto26_adding_All10sec_data/Dave/Generated/RTC\rtc.h ****  *    }
 326:D:/Projects/VCU Firmware Main/IRP/Git Repo/VCU14_29bit_overCAN_withIRP_new4g_proto26_adding_All10sec_data/Dave/Generated/RTC\rtc.h ****  * }
 327:D:/Projects/VCU Firmware Main/IRP/Git Repo/VCU14_29bit_overCAN_withIRP_new4g_proto26_adding_All10sec_data/Dave/Generated/RTC\rtc.h ****  * int main(void)
 328:D:/Projects/VCU Firmware Main/IRP/Git Repo/VCU14_29bit_overCAN_withIRP_new4g_proto26_adding_All10sec_data/Dave/Generated/RTC\rtc.h ****  * {
 329:D:/Projects/VCU Firmware Main/IRP/Git Repo/VCU14_29bit_overCAN_withIRP_new4g_proto26_adding_All10sec_data/Dave/Generated/RTC\rtc.h ****  *   DAVE_Init(); // RTC_Init(&RTC_0) will be called within DAVE_Init()
 330:D:/Projects/VCU Firmware Main/IRP/Git Repo/VCU14_29bit_overCAN_withIRP_new4g_proto26_adding_All10sec_data/Dave/Generated/RTC\rtc.h ****  *   // ... infinite loop ...
 331:D:/Projects/VCU Firmware Main/IRP/Git Repo/VCU14_29bit_overCAN_withIRP_new4g_proto26_adding_All10sec_data/Dave/Generated/RTC\rtc.h ****  *   while(1)
 332:D:/Projects/VCU Firmware Main/IRP/Git Repo/VCU14_29bit_overCAN_withIRP_new4g_proto26_adding_All10sec_data/Dave/Generated/RTC\rtc.h ****  *   {}
 333:D:/Projects/VCU Firmware Main/IRP/Git Repo/VCU14_29bit_overCAN_withIRP_new4g_proto26_adding_All10sec_data/Dave/Generated/RTC\rtc.h ****  * }
 334:D:/Projects/VCU Firmware Main/IRP/Git Repo/VCU14_29bit_overCAN_withIRP_new4g_proto26_adding_All10sec_data/Dave/Generated/RTC\rtc.h ****  * @endcode<BR> </p>
 335:D:/Projects/VCU Firmware Main/IRP/Git Repo/VCU14_29bit_overCAN_withIRP_new4g_proto26_adding_All10sec_data/Dave/Generated/RTC\rtc.h ****  */
 336:D:/Projects/VCU Firmware Main/IRP/Git Repo/VCU14_29bit_overCAN_withIRP_new4g_proto26_adding_All10sec_data/Dave/Generated/RTC\rtc.h **** __STATIC_INLINE void RTC_Stop(void)
 337:D:/Projects/VCU Firmware Main/IRP/Git Repo/VCU14_29bit_overCAN_withIRP_new4g_proto26_adding_All10sec_data/Dave/Generated/RTC\rtc.h **** {
  53              	 .loc 1 337 0
  54              	 .cfi_startproc
  55              	 
  56              	 
  57 0000 80B5     	 push {r7,lr}
  58              	.LCFI2:
  59              	 .cfi_def_cfa_offset 8
  60              	 .cfi_offset 7,-8
  61              	 .cfi_offset 14,-4
  62 0002 00AF     	 add r7,sp,#0
  63              	.LCFI3:
  64              	 .cfi_def_cfa_register 7
 338:D:/Projects/VCU Firmware Main/IRP/Git Repo/VCU14_29bit_overCAN_withIRP_new4g_proto26_adding_All10sec_data/Dave/Generated/RTC\rtc.h **** 	XMC_RTC_Stop();
  65              	 .loc 1 338 0
  66 0004 FFF7FEFF 	 bl XMC_RTC_Stop
 339:D:/Projects/VCU Firmware Main/IRP/Git Repo/VCU14_29bit_overCAN_withIRP_new4g_proto26_adding_All10sec_data/Dave/Generated/RTC\rtc.h **** }
  67              	 .loc 1 339 0
  68 0008 80BD     	 pop {r7,pc}
  69              	 .cfi_endproc
  70              	.LFE528:
  72              	 .comm cluster_door_in,4,4
  73              	 .comm Vcu_OutPuts,3,4
  74              	 .comm Combi_Switch_IN,8,4
  75              	 .comm Seat_Switch_IN,3,4
  76              	 .comm Door_Switch_IN,7,4
  77              	 .comm Relay_Control_Switch_OUT,47,4
  78              	 .comm Hvac_IN,24,4
  79              	 .comm Switch_Ios_IN,20,4
  80              	 .comm Motor_controller_OUT,5,4
  81              	 .comm Lights_OUT,8,4
  82              	 .comm Sensors_OUT,8,4
  83              	 .comm Aux_Inputs,6,4
  84              	 .comm Instrument_Cluster_OUT,18,4
  85              	 .comm Seat_Belt_OUT,3,4
  86              	 .comm Gear_OUT,4,4
  87              	 .comm Instrumetcluster_DriveMode_OUT,4,4
  88              	 .comm Door_Switch_OUT,7,4
  89              	 .comm instrument_cluster_doorsvar,7,4
  90              	 .comm cluster_door_out,4,4
  91              	 .comm current_time,8,4
  92              	 .comm timeval,8,4
  93              	 .comm GPS_data_val,16,4
  94              	 .comm epoch,4,4
  95              	 .comm ambient_temp,1,1
  96 000a 00BF     	 .section .text.RTC_init,"ax",%progbits
  97              	 .align 2
  98              	 .global RTC_init
  99              	 .thumb
 100              	 .thumb_func
 102              	RTC_init:
 103              	.LFB605:
 104              	 .file 2 "../VCU_PROCESS/RTC.c"
   1:../VCU_PROCESS/RTC.c **** 
   2:../VCU_PROCESS/RTC.c **** #include "VCU_PROCESS/Vcu_Process.h"
   3:../VCU_PROCESS/RTC.c **** #include "Vcu_Config.h"
   4:../VCU_PROCESS/RTC.c **** 
   5:../VCU_PROCESS/RTC.c **** #include "xmc_rtc.h"
   6:../VCU_PROCESS/RTC.c **** #include <time.h>
   7:../VCU_PROCESS/RTC.c **** void RTC_init(void)
   8:../VCU_PROCESS/RTC.c **** {
 105              	 .loc 2 8 0
 106              	 .cfi_startproc
 107              	 
 108              	 
 109 0000 80B5     	 push {r7,lr}
 110              	.LCFI4:
 111              	 .cfi_def_cfa_offset 8
 112              	 .cfi_offset 7,-8
 113              	 .cfi_offset 14,-4
 114 0002 82B0     	 sub sp,sp,#8
 115              	.LCFI5:
 116              	 .cfi_def_cfa_offset 16
 117 0004 00AF     	 add r7,sp,#0
 118              	.LCFI6:
 119              	 .cfi_def_cfa_register 7
   9:../VCU_PROCESS/RTC.c **** 
  10:../VCU_PROCESS/RTC.c **** 	RTC_STATUS_t status_r = RTC_STATUS_FAILURE;
 120              	 .loc 2 10 0
 121 0006 0123     	 movs r3,#1
 122 0008 FB71     	 strb r3,[r7,#7]
  11:../VCU_PROCESS/RTC.c **** 	RTC_Stop();
 123              	 .loc 2 11 0
 124 000a FFF7FEFF 	 bl RTC_Stop
  12:../VCU_PROCESS/RTC.c **** 
  13:../VCU_PROCESS/RTC.c ****     status_r =  RTC_SetTime(&timeval);
 125              	 .loc 2 13 0
 126 000e 0648     	 ldr r0,.L5
 127 0010 FFF7FEFF 	 bl RTC_SetTime
 128 0014 0346     	 mov r3,r0
 129 0016 FB71     	 strb r3,[r7,#7]
  14:../VCU_PROCESS/RTC.c **** 
  15:../VCU_PROCESS/RTC.c ****     if(status_r == RTC_STATUS_SUCCESS)
 130              	 .loc 2 15 0
 131 0018 FB79     	 ldrb r3,[r7,#7]
 132 001a 002B     	 cmp r3,#0
 133 001c 01D1     	 bne .L3
  16:../VCU_PROCESS/RTC.c ****     {
  17:../VCU_PROCESS/RTC.c ****  	 RTC_Start();
 134              	 .loc 2 17 0
 135 001e FFF7FEFF 	 bl RTC_Start
 136              	.L3:
  18:../VCU_PROCESS/RTC.c ****     }
  19:../VCU_PROCESS/RTC.c **** }
 137              	 .loc 2 19 0
 138 0022 0837     	 adds r7,r7,#8
 139              	.LCFI7:
 140              	 .cfi_def_cfa_offset 8
 141 0024 BD46     	 mov sp,r7
 142              	.LCFI8:
 143              	 .cfi_def_cfa_register 13
 144              	 
 145 0026 80BD     	 pop {r7,pc}
 146              	.L6:
 147              	 .align 2
 148              	.L5:
 149 0028 00000000 	 .word timeval
 150              	 .cfi_endproc
 151              	.LFE605:
 153              	 .text
 154              	.Letext0:
 155              	 .file 3 "c:\\infineon\\tools\\dave ide\\4.5.0.202105191637\\eclipse\\arm-gcc-49\\arm-none-eabi\\include\\machine\\_default_types.h"
 156              	 .file 4 "c:\\infineon\\tools\\dave ide\\4.5.0.202105191637\\eclipse\\arm-gcc-49\\arm-none-eabi\\include\\stdint.h"
 157              	 .file 5 "D:/Projects/VCU Firmware Main/IRP/Git Repo/VCU14_29bit_overCAN_withIRP_new4g_proto26_adding_All10sec_data/Libraries/XMCLib/inc/xmc_usic.h"
 158              	 .file 6 "c:\\infineon\\tools\\dave ide\\4.5.0.202105191637\\eclipse\\arm-gcc-49\\arm-none-eabi\\include\\sys\\types.h"
 159              	 .file 7 "D:/Projects/VCU Firmware Main/IRP/Git Repo/VCU14_29bit_overCAN_withIRP_new4g_proto26_adding_All10sec_data/Libraries/XMCLib/inc/xmc_rtc.h"
 160              	 .file 8 "D:/Projects/VCU Firmware Main/IRP/Git Repo/VCU14_29bit_overCAN_withIRP_new4g_proto26_adding_All10sec_data/Libraries/XMCLib/inc/xmc_spi.h"
 161              	 .file 9 "D:/Projects/VCU Firmware Main/IRP/Git Repo/VCU14_29bit_overCAN_withIRP_new4g_proto26_adding_All10sec_data/Vcu_Config.h"
 162              	 .file 10 "D:/Projects/VCU Firmware Main/IRP/Git Repo/VCU14_29bit_overCAN_withIRP_new4g_proto26_adding_All10sec_data/Libraries/CMSIS/Include/cmsis_gcc.h"
 163              	 .file 11 "D:/Projects/VCU Firmware Main/IRP/Git Repo/VCU14_29bit_overCAN_withIRP_new4g_proto26_adding_All10sec_data/Libraries/CMSIS/Include/core_cm4.h"
 164              	 .file 12 "D:/Projects/VCU Firmware Main/IRP/Git Repo/VCU14_29bit_overCAN_withIRP_new4g_proto26_adding_All10sec_data/Libraries/CMSIS/Infineon/XMC4700_series/Include/system_XMC4700.h"