   1              	 .syntax unified
   2              	 .cpu cortex-m4
   3              	 .eabi_attribute 27,3
   4              	 .fpu fpv4-sp-d16
   5              	 .eabi_attribute 20,1
   6              	 .eabi_attribute 21,1
   7              	 .eabi_attribute 23,3
   8              	 .eabi_attribute 24,1
   9              	 .eabi_attribute 25,1
  10              	 .eabi_attribute 26,1
  11              	 .eabi_attribute 30,6
  12              	 .eabi_attribute 34,1
  13              	 .eabi_attribute 18,4
  14              	 .thumb
  15              	 .file "DAVE.c"
  16              	 .text
  17              	.Ltext0:
  18              	 .cfi_sections .debug_frame
  19              	 .section .text.DAVE_Init,"ax",%progbits
  20              	 .align 2
  21              	 .weak DAVE_Init
  22              	 .thumb
  23              	 .thumb_func
  25              	DAVE_Init:
  26              	.LFB605:
  27              	 .file 1 "../Dave/Generated/DAVE.c"
   1:../Dave/Generated/DAVE.c **** 
   2:../Dave/Generated/DAVE.c **** /**
   3:../Dave/Generated/DAVE.c ****  * @cond
   4:../Dave/Generated/DAVE.c ****  **************************************************************************************************
   5:../Dave/Generated/DAVE.c ****  *
   6:../Dave/Generated/DAVE.c ****  * Copyright (c) 2015-2020, Infineon Technologies AG
   7:../Dave/Generated/DAVE.c ****  * All rights reserved.
   8:../Dave/Generated/DAVE.c ****  *
   9:../Dave/Generated/DAVE.c ****  * Redistribution and use in source and binary forms, with or without modification,are permitted pr
  10:../Dave/Generated/DAVE.c ****  * following conditions are met:
  11:../Dave/Generated/DAVE.c ****  *
  12:../Dave/Generated/DAVE.c ****  *   Redistributions of source code must retain the above copyright notice, this list of conditions
  13:../Dave/Generated/DAVE.c ****  *   disclaimer.
  14:../Dave/Generated/DAVE.c ****  *
  15:../Dave/Generated/DAVE.c ****  *   Redistributions in binary form must reproduce the above copyright notice, this list of conditi
  16:../Dave/Generated/DAVE.c ****  *   following disclaimer in the documentation and/or other materials provided with the distributio
  17:../Dave/Generated/DAVE.c ****  *
  18:../Dave/Generated/DAVE.c ****  *   Neither the name of the copyright holders nor the names of its contributors may be used to end
  19:../Dave/Generated/DAVE.c ****  *   products derived from this software without specific prior written permission.
  20:../Dave/Generated/DAVE.c ****  *
  21:../Dave/Generated/DAVE.c ****  * THIS SOFTWARE IS PROVIDED BY THE COPYRIGHT HOLDERS AND CONTRIBUTORS "AS IS" AND ANY EXPRESS OR I
  22:../Dave/Generated/DAVE.c ****  * INCLUDING, BUT NOT LIMITED TO, THE IMPLIED WARRANTIES OF MERCHANTABILITY AND FITNESS FOR A PARTI
  23:../Dave/Generated/DAVE.c ****  * DISCLAIMED. IN NO EVENT SHALL THE COPYRIGHT HOLDER OR CONTRIBUTORS BE LIABLE  FOR ANY DIRECT, IN
  24:../Dave/Generated/DAVE.c ****  * SPECIAL, EXEMPLARY, OR CONSEQUENTIAL DAMAGES (INCLUDING, BUT NOT LIMITED TO, PROCUREMENT OF SUBS
  25:../Dave/Generated/DAVE.c ****  * SERVICES; LOSS OF USE, DATA, OR PROFITS; OR BUSINESS INTERRUPTION) HOWEVER CAUSED AND ON ANY THE
  26:../Dave/Generated/DAVE.c ****  * WHETHER IN CONTRACT, STRICT LIABILITY,OR TORT (INCLUDING NEGLIGENCE OR OTHERWISE) ARISING IN ANY
  27:../Dave/Generated/DAVE.c ****  * USE OF THIS SOFTWARE, EVEN IF ADVISED OF THE POSSIBILITY OF SUCH DAMAGE.
  28:../Dave/Generated/DAVE.c ****  *
  29:../Dave/Generated/DAVE.c ****  * To improve the quality of the software, users are encouraged to share modifications, enhancement
  30:../Dave/Generated/DAVE.c ****  * with Infineon Technologies AG (dave@infineon.com).
  31:../Dave/Generated/DAVE.c ****  **************************************************************************************************
  32:../Dave/Generated/DAVE.c ****  *
  33:../Dave/Generated/DAVE.c ****  * Change History
  34:../Dave/Generated/DAVE.c ****  * --------------
  35:../Dave/Generated/DAVE.c ****  *
  36:../Dave/Generated/DAVE.c ****  * 2014-06-16:
  37:../Dave/Generated/DAVE.c ****  *     - Initial version<br>
  38:../Dave/Generated/DAVE.c ****  * 2015-08-28:
  39:../Dave/Generated/DAVE.c ****  *     - Added CLOCK_XMC1_Init conditionally
  40:../Dave/Generated/DAVE.c ****  * 2018-08-08:
  41:../Dave/Generated/DAVE.c ****  *     - Add creation of projectData.bak file
  42:../Dave/Generated/DAVE.c ****  * 2019-01-30:
  43:../Dave/Generated/DAVE.c ****  *     - Fix creation of projectData.bak file
  44:../Dave/Generated/DAVE.c ****  * 2019-04-29:
  45:../Dave/Generated/DAVE.c ****  *     - Make DAVE_Init() weak, the user can reimplement the function
  46:../Dave/Generated/DAVE.c ****  *
  47:../Dave/Generated/DAVE.c ****  * @endcond
  48:../Dave/Generated/DAVE.c ****  *
  49:../Dave/Generated/DAVE.c ****  */
  50:../Dave/Generated/DAVE.c **** 
  51:../Dave/Generated/DAVE.c **** /**************************************************************************************************
  52:../Dave/Generated/DAVE.c ****  * HEADER FILES
  53:../Dave/Generated/DAVE.c ****  **************************************************************************************************
  54:../Dave/Generated/DAVE.c **** #include "DAVE.h"
  55:../Dave/Generated/DAVE.c **** 
  56:../Dave/Generated/DAVE.c **** /**************************************************************************************************
  57:../Dave/Generated/DAVE.c ****  * API IMPLEMENTATION
  58:../Dave/Generated/DAVE.c ****  **************************************************************************************************
  59:../Dave/Generated/DAVE.c **** 
  60:../Dave/Generated/DAVE.c **** /*******************************************************************************
  61:../Dave/Generated/DAVE.c ****  * @brief This function initializes the APPs Init Functions.
  62:../Dave/Generated/DAVE.c ****  *
  63:../Dave/Generated/DAVE.c ****  * @param[in]  None
  64:../Dave/Generated/DAVE.c ****  *
  65:../Dave/Generated/DAVE.c ****  * @return  DAVE_STATUS_t <BR>
  66:../Dave/Generated/DAVE.c ****  ******************************************************************************/
  67:../Dave/Generated/DAVE.c **** __WEAK DAVE_STATUS_t DAVE_Init(void)
  68:../Dave/Generated/DAVE.c **** {
  28              	 .loc 1 68 0
  29              	 .cfi_startproc
  30              	 
  31              	 
  32 0000 80B5     	 push {r7,lr}
  33              	.LCFI0:
  34              	 .cfi_def_cfa_offset 8
  35              	 .cfi_offset 7,-8
  36              	 .cfi_offset 14,-4
  37 0002 82B0     	 sub sp,sp,#8
  38              	.LCFI1:
  39              	 .cfi_def_cfa_offset 16
  40 0004 00AF     	 add r7,sp,#0
  41              	.LCFI2:
  42              	 .cfi_def_cfa_register 7
  69:../Dave/Generated/DAVE.c ****   DAVE_STATUS_t init_status;
  70:../Dave/Generated/DAVE.c ****   
  71:../Dave/Generated/DAVE.c ****   init_status = DAVE_STATUS_SUCCESS;
  43              	 .loc 1 71 0
  44 0006 0023     	 movs r3,#0
  45 0008 FB71     	 strb r3,[r7,#7]
  72:../Dave/Generated/DAVE.c ****      /** @Initialization of APPs Init Functions */
  73:../Dave/Generated/DAVE.c ****      init_status = (DAVE_STATUS_t)CLOCK_XMC4_Init(&CLOCK_XMC4_0);
  46              	 .loc 1 73 0
  47 000a B748     	 ldr r0,.L85
  48 000c FFF7FEFF 	 bl CLOCK_XMC4_Init
  49 0010 0346     	 mov r3,r0
  50 0012 FB71     	 strb r3,[r7,#7]
  74:../Dave/Generated/DAVE.c **** 
  75:../Dave/Generated/DAVE.c ****   if (init_status == DAVE_STATUS_SUCCESS)
  51              	 .loc 1 75 0
  52 0014 FB79     	 ldrb r3,[r7,#7]
  53 0016 002B     	 cmp r3,#0
  54 0018 04D1     	 bne .L2
  76:../Dave/Generated/DAVE.c ****   {
  77:../Dave/Generated/DAVE.c **** 	 /**  Initialization of DIGITAL_IO APP instance DC_DC_EN_OUT_D */
  78:../Dave/Generated/DAVE.c **** 	 init_status = (DAVE_STATUS_t)DIGITAL_IO_Init(&DC_DC_EN_OUT_D); 
  55              	 .loc 1 78 0
  56 001a B448     	 ldr r0,.L85+4
  57 001c FFF7FEFF 	 bl DIGITAL_IO_Init
  58 0020 0346     	 mov r3,r0
  59 0022 FB71     	 strb r3,[r7,#7]
  60              	.L2:
  79:../Dave/Generated/DAVE.c ****    } 
  80:../Dave/Generated/DAVE.c ****   if (init_status == DAVE_STATUS_SUCCESS)
  61              	 .loc 1 80 0
  62 0024 FB79     	 ldrb r3,[r7,#7]
  63 0026 002B     	 cmp r3,#0
  64 0028 04D1     	 bne .L3
  81:../Dave/Generated/DAVE.c ****   {
  82:../Dave/Generated/DAVE.c **** 	 /**  Initialization of DIGITAL_IO APP instance VACUUM_PUMP_OUT_D */
  83:../Dave/Generated/DAVE.c **** 	 init_status = (DAVE_STATUS_t)DIGITAL_IO_Init(&VACUUM_PUMP_OUT_D); 
  65              	 .loc 1 83 0
  66 002a B148     	 ldr r0,.L85+8
  67 002c FFF7FEFF 	 bl DIGITAL_IO_Init
  68 0030 0346     	 mov r3,r0
  69 0032 FB71     	 strb r3,[r7,#7]
  70              	.L3:
  84:../Dave/Generated/DAVE.c ****    } 
  85:../Dave/Generated/DAVE.c ****   if (init_status == DAVE_STATUS_SUCCESS)
  71              	 .loc 1 85 0
  72 0034 FB79     	 ldrb r3,[r7,#7]
  73 0036 002B     	 cmp r3,#0
  74 0038 04D1     	 bne .L4
  86:../Dave/Generated/DAVE.c ****   {
  87:../Dave/Generated/DAVE.c **** 	 /**  Initialization of DIGITAL_IO APP instance HEADLAMPS_ADJ_PWR_OUT_D */
  88:../Dave/Generated/DAVE.c **** 	 init_status = (DAVE_STATUS_t)DIGITAL_IO_Init(&HEADLAMPS_ADJ_PWR_OUT_D); 
  75              	 .loc 1 88 0
  76 003a AE48     	 ldr r0,.L85+12
  77 003c FFF7FEFF 	 bl DIGITAL_IO_Init
  78 0040 0346     	 mov r3,r0
  79 0042 FB71     	 strb r3,[r7,#7]
  80              	.L4:
  89:../Dave/Generated/DAVE.c ****    } 
  90:../Dave/Generated/DAVE.c ****   if (init_status == DAVE_STATUS_SUCCESS)
  81              	 .loc 1 90 0
  82 0044 FB79     	 ldrb r3,[r7,#7]
  83 0046 002B     	 cmp r3,#0
  84 0048 04D1     	 bne .L5
  91:../Dave/Generated/DAVE.c ****   {
  92:../Dave/Generated/DAVE.c **** 	 /**  Initialization of DIGITAL_IO APP instance AC_RADIATOR_OUT_D */
  93:../Dave/Generated/DAVE.c **** 	 init_status = (DAVE_STATUS_t)DIGITAL_IO_Init(&AC_RADIATOR_OUT_D); 
  85              	 .loc 1 93 0
  86 004a AB48     	 ldr r0,.L85+16
  87 004c FFF7FEFF 	 bl DIGITAL_IO_Init
  88 0050 0346     	 mov r3,r0
  89 0052 FB71     	 strb r3,[r7,#7]
  90              	.L5:
  94:../Dave/Generated/DAVE.c ****    } 
  95:../Dave/Generated/DAVE.c ****   if (init_status == DAVE_STATUS_SUCCESS)
  91              	 .loc 1 95 0
  92 0054 FB79     	 ldrb r3,[r7,#7]
  93 0056 002B     	 cmp r3,#0
  94 0058 04D1     	 bne .L6
  96:../Dave/Generated/DAVE.c ****   {
  97:../Dave/Generated/DAVE.c **** 	 /**  Initialization of DIGITAL_IO APP instance INSTRUMENT_CON_PWR_OUT_D */
  98:../Dave/Generated/DAVE.c **** 	 init_status = (DAVE_STATUS_t)DIGITAL_IO_Init(&INSTRUMENT_CON_PWR_OUT_D); 
  95              	 .loc 1 98 0
  96 005a A848     	 ldr r0,.L85+20
  97 005c FFF7FEFF 	 bl DIGITAL_IO_Init
  98 0060 0346     	 mov r3,r0
  99 0062 FB71     	 strb r3,[r7,#7]
 100              	.L6:
  99:../Dave/Generated/DAVE.c ****    } 
 100:../Dave/Generated/DAVE.c ****   if (init_status == DAVE_STATUS_SUCCESS)
 101              	 .loc 1 100 0
 102 0064 FB79     	 ldrb r3,[r7,#7]
 103 0066 002B     	 cmp r3,#0
 104 0068 04D1     	 bne .L7
 101:../Dave/Generated/DAVE.c ****   {
 102:../Dave/Generated/DAVE.c **** 	 /**  Initialization of DIGITAL_IO APP instance ACCEL_CS_OUT */
 103:../Dave/Generated/DAVE.c **** 	 init_status = (DAVE_STATUS_t)DIGITAL_IO_Init(&ACCEL_CS_OUT); 
 105              	 .loc 1 103 0
 106 006a A548     	 ldr r0,.L85+24
 107 006c FFF7FEFF 	 bl DIGITAL_IO_Init
 108 0070 0346     	 mov r3,r0
 109 0072 FB71     	 strb r3,[r7,#7]
 110              	.L7:
 104:../Dave/Generated/DAVE.c ****    } 
 105:../Dave/Generated/DAVE.c ****   if (init_status == DAVE_STATUS_SUCCESS)
 111              	 .loc 1 105 0
 112 0074 FB79     	 ldrb r3,[r7,#7]
 113 0076 002B     	 cmp r3,#0
 114 0078 04D1     	 bne .L8
 106:../Dave/Generated/DAVE.c ****   {
 107:../Dave/Generated/DAVE.c **** 	 /**  Initialization of DIGITAL_IO APP instance ELECT_HANDBRAKE_EN_OUT_D */
 108:../Dave/Generated/DAVE.c **** 	 init_status = (DAVE_STATUS_t)DIGITAL_IO_Init(&ELECT_HANDBRAKE_EN_OUT_D); 
 115              	 .loc 1 108 0
 116 007a A248     	 ldr r0,.L85+28
 117 007c FFF7FEFF 	 bl DIGITAL_IO_Init
 118 0080 0346     	 mov r3,r0
 119 0082 FB71     	 strb r3,[r7,#7]
 120              	.L8:
 109:../Dave/Generated/DAVE.c ****    } 
 110:../Dave/Generated/DAVE.c ****   if (init_status == DAVE_STATUS_SUCCESS)
 121              	 .loc 1 110 0
 122 0084 FB79     	 ldrb r3,[r7,#7]
 123 0086 002B     	 cmp r3,#0
 124 0088 04D1     	 bne .L9
 111:../Dave/Generated/DAVE.c ****   {
 112:../Dave/Generated/DAVE.c **** 	 /**  Initialization of DIGITAL_IO APP instance MC_CONTACTOR_RELAY_OUT_D */
 113:../Dave/Generated/DAVE.c **** 	 init_status = (DAVE_STATUS_t)DIGITAL_IO_Init(&MC_CONTACTOR_RELAY_OUT_D); 
 125              	 .loc 1 113 0
 126 008a 9F48     	 ldr r0,.L85+32
 127 008c FFF7FEFF 	 bl DIGITAL_IO_Init
 128 0090 0346     	 mov r3,r0
 129 0092 FB71     	 strb r3,[r7,#7]
 130              	.L9:
 114:../Dave/Generated/DAVE.c ****    } 
 115:../Dave/Generated/DAVE.c ****   if (init_status == DAVE_STATUS_SUCCESS)
 131              	 .loc 1 115 0
 132 0094 FB79     	 ldrb r3,[r7,#7]
 133 0096 002B     	 cmp r3,#0
 134 0098 04D1     	 bne .L10
 116:../Dave/Generated/DAVE.c ****   {
 117:../Dave/Generated/DAVE.c **** 	 /**  Initialization of DIGITAL_IO APP instance MC_PARK_RELAY_OUT_D */
 118:../Dave/Generated/DAVE.c **** 	 init_status = (DAVE_STATUS_t)DIGITAL_IO_Init(&MC_PARK_RELAY_OUT_D); 
 135              	 .loc 1 118 0
 136 009a 9C48     	 ldr r0,.L85+36
 137 009c FFF7FEFF 	 bl DIGITAL_IO_Init
 138 00a0 0346     	 mov r3,r0
 139 00a2 FB71     	 strb r3,[r7,#7]
 140              	.L10:
 119:../Dave/Generated/DAVE.c ****    } 
 120:../Dave/Generated/DAVE.c ****   if (init_status == DAVE_STATUS_SUCCESS)
 141              	 .loc 1 120 0
 142 00a4 FB79     	 ldrb r3,[r7,#7]
 143 00a6 002B     	 cmp r3,#0
 144 00a8 04D1     	 bne .L11
 121:../Dave/Generated/DAVE.c ****   {
 122:../Dave/Generated/DAVE.c **** 	 /**  Initialization of DIGITAL_IO APP instance MC_REV_RELAY_OUT_D */
 123:../Dave/Generated/DAVE.c **** 	 init_status = (DAVE_STATUS_t)DIGITAL_IO_Init(&MC_REV_RELAY_OUT_D); 
 145              	 .loc 1 123 0
 146 00aa 9948     	 ldr r0,.L85+40
 147 00ac FFF7FEFF 	 bl DIGITAL_IO_Init
 148 00b0 0346     	 mov r3,r0
 149 00b2 FB71     	 strb r3,[r7,#7]
 150              	.L11:
 124:../Dave/Generated/DAVE.c ****    } 
 125:../Dave/Generated/DAVE.c ****   if (init_status == DAVE_STATUS_SUCCESS)
 151              	 .loc 1 125 0
 152 00b4 FB79     	 ldrb r3,[r7,#7]
 153 00b6 002B     	 cmp r3,#0
 154 00b8 04D1     	 bne .L12
 126:../Dave/Generated/DAVE.c ****   {
 127:../Dave/Generated/DAVE.c **** 	 /**  Initialization of DIGITAL_IO APP instance MC_FWD_RELAY_OUT_D */
 128:../Dave/Generated/DAVE.c **** 	 init_status = (DAVE_STATUS_t)DIGITAL_IO_Init(&MC_FWD_RELAY_OUT_D); 
 155              	 .loc 1 128 0
 156 00ba 9648     	 ldr r0,.L85+44
 157 00bc FFF7FEFF 	 bl DIGITAL_IO_Init
 158 00c0 0346     	 mov r3,r0
 159 00c2 FB71     	 strb r3,[r7,#7]
 160              	.L12:
 129:../Dave/Generated/DAVE.c ****    } 
 130:../Dave/Generated/DAVE.c ****   if (init_status == DAVE_STATUS_SUCCESS)
 161              	 .loc 1 130 0
 162 00c4 FB79     	 ldrb r3,[r7,#7]
 163 00c6 002B     	 cmp r3,#0
 164 00c8 04D1     	 bne .L13
 131:../Dave/Generated/DAVE.c ****   {
 132:../Dave/Generated/DAVE.c **** 	 /**  Initialization of DIGITAL_IO APP instance MC_REGEN_RELAY_OUT_D */
 133:../Dave/Generated/DAVE.c **** 	 init_status = (DAVE_STATUS_t)DIGITAL_IO_Init(&MC_REGEN_RELAY_OUT_D); 
 165              	 .loc 1 133 0
 166 00ca 9348     	 ldr r0,.L85+48
 167 00cc FFF7FEFF 	 bl DIGITAL_IO_Init
 168 00d0 0346     	 mov r3,r0
 169 00d2 FB71     	 strb r3,[r7,#7]
 170              	.L13:
 134:../Dave/Generated/DAVE.c ****    } 
 135:../Dave/Generated/DAVE.c ****   if (init_status == DAVE_STATUS_SUCCESS)
 171              	 .loc 1 135 0
 172 00d4 FB79     	 ldrb r3,[r7,#7]
 173 00d6 002B     	 cmp r3,#0
 174 00d8 04D1     	 bne .L14
 136:../Dave/Generated/DAVE.c ****   {
 137:../Dave/Generated/DAVE.c **** 	 /**  Initialization of DIGITAL_IO APP instance MC_ELOCK_RELAY_OUT_D */
 138:../Dave/Generated/DAVE.c **** 	 init_status = (DAVE_STATUS_t)DIGITAL_IO_Init(&MC_ELOCK_RELAY_OUT_D); 
 175              	 .loc 1 138 0
 176 00da 9048     	 ldr r0,.L85+52
 177 00dc FFF7FEFF 	 bl DIGITAL_IO_Init
 178 00e0 0346     	 mov r3,r0
 179 00e2 FB71     	 strb r3,[r7,#7]
 180              	.L14:
 139:../Dave/Generated/DAVE.c ****    } 
 140:../Dave/Generated/DAVE.c ****   if (init_status == DAVE_STATUS_SUCCESS)
 181              	 .loc 1 140 0
 182 00e4 FB79     	 ldrb r3,[r7,#7]
 183 00e6 002B     	 cmp r3,#0
 184 00e8 04D1     	 bne .L15
 141:../Dave/Generated/DAVE.c ****   {
 142:../Dave/Generated/DAVE.c **** 	 /**  Initialization of DIGITAL_IO APP instance POS_OUT_D */
 143:../Dave/Generated/DAVE.c **** 	 init_status = (DAVE_STATUS_t)DIGITAL_IO_Init(&POS_OUT_D); 
 185              	 .loc 1 143 0
 186 00ea 8D48     	 ldr r0,.L85+56
 187 00ec FFF7FEFF 	 bl DIGITAL_IO_Init
 188 00f0 0346     	 mov r3,r0
 189 00f2 FB71     	 strb r3,[r7,#7]
 190              	.L15:
 144:../Dave/Generated/DAVE.c ****    } 
 145:../Dave/Generated/DAVE.c ****   if (init_status == DAVE_STATUS_SUCCESS)
 191              	 .loc 1 145 0
 192 00f4 FB79     	 ldrb r3,[r7,#7]
 193 00f6 002B     	 cmp r3,#0
 194 00f8 04D1     	 bne .L16
 146:../Dave/Generated/DAVE.c ****   {
 147:../Dave/Generated/DAVE.c **** 	 /**  Initialization of DIGITAL_IO APP instance VCU_FAN_PWR_OUT_D */
 148:../Dave/Generated/DAVE.c **** 	 init_status = (DAVE_STATUS_t)DIGITAL_IO_Init(&VCU_FAN_PWR_OUT_D); 
 195              	 .loc 1 148 0
 196 00fa 8A48     	 ldr r0,.L85+60
 197 00fc FFF7FEFF 	 bl DIGITAL_IO_Init
 198 0100 0346     	 mov r3,r0
 199 0102 FB71     	 strb r3,[r7,#7]
 200              	.L16:
 149:../Dave/Generated/DAVE.c ****    } 
 150:../Dave/Generated/DAVE.c ****   if (init_status == DAVE_STATUS_SUCCESS)
 201              	 .loc 1 150 0
 202 0104 FB79     	 ldrb r3,[r7,#7]
 203 0106 002B     	 cmp r3,#0
 204 0108 04D1     	 bne .L17
 151:../Dave/Generated/DAVE.c ****   {
 152:../Dave/Generated/DAVE.c **** 	 /**  Initialization of DIGITAL_IO APP instance AUX_EFUSE_1_OUT_D */
 153:../Dave/Generated/DAVE.c **** 	 init_status = (DAVE_STATUS_t)DIGITAL_IO_Init(&AUX_EFUSE_1_OUT_D); 
 205              	 .loc 1 153 0
 206 010a 8748     	 ldr r0,.L85+64
 207 010c FFF7FEFF 	 bl DIGITAL_IO_Init
 208 0110 0346     	 mov r3,r0
 209 0112 FB71     	 strb r3,[r7,#7]
 210              	.L17:
 154:../Dave/Generated/DAVE.c ****    } 
 155:../Dave/Generated/DAVE.c ****   if (init_status == DAVE_STATUS_SUCCESS)
 211              	 .loc 1 155 0
 212 0114 FB79     	 ldrb r3,[r7,#7]
 213 0116 002B     	 cmp r3,#0
 214 0118 04D1     	 bne .L18
 156:../Dave/Generated/DAVE.c ****   {
 157:../Dave/Generated/DAVE.c **** 	 /**  Initialization of DIGITAL_IO APP instance WIPER_PWR_OUT_D */
 158:../Dave/Generated/DAVE.c **** 	 init_status = (DAVE_STATUS_t)DIGITAL_IO_Init(&WIPER_PWR_OUT_D); 
 215              	 .loc 1 158 0
 216 011a 8448     	 ldr r0,.L85+68
 217 011c FFF7FEFF 	 bl DIGITAL_IO_Init
 218 0120 0346     	 mov r3,r0
 219 0122 FB71     	 strb r3,[r7,#7]
 220              	.L18:
 159:../Dave/Generated/DAVE.c ****    } 
 160:../Dave/Generated/DAVE.c ****   if (init_status == DAVE_STATUS_SUCCESS)
 221              	 .loc 1 160 0
 222 0124 FB79     	 ldrb r3,[r7,#7]
 223 0126 002B     	 cmp r3,#0
 224 0128 04D1     	 bne .L19
 161:../Dave/Generated/DAVE.c ****   {
 162:../Dave/Generated/DAVE.c **** 	 /**  Initialization of DIGITAL_IO APP instance THROTTLE_POT_CS_OUT_D */
 163:../Dave/Generated/DAVE.c **** 	 init_status = (DAVE_STATUS_t)DIGITAL_IO_Init(&THROTTLE_POT_CS_OUT_D); 
 225              	 .loc 1 163 0
 226 012a 8148     	 ldr r0,.L85+72
 227 012c FFF7FEFF 	 bl DIGITAL_IO_Init
 228 0130 0346     	 mov r3,r0
 229 0132 FB71     	 strb r3,[r7,#7]
 230              	.L19:
 164:../Dave/Generated/DAVE.c ****    } 
 165:../Dave/Generated/DAVE.c ****   if (init_status == DAVE_STATUS_SUCCESS)
 231              	 .loc 1 165 0
 232 0134 FB79     	 ldrb r3,[r7,#7]
 233 0136 002B     	 cmp r3,#0
 234 0138 04D1     	 bne .L20
 166:../Dave/Generated/DAVE.c ****   {
 167:../Dave/Generated/DAVE.c **** 	 /**  Initialization of DIGITAL_IO APP instance LIGHTS_PWR_OUT_D */
 168:../Dave/Generated/DAVE.c **** 	 init_status = (DAVE_STATUS_t)DIGITAL_IO_Init(&LIGHTS_PWR_OUT_D); 
 235              	 .loc 1 168 0
 236 013a 7E48     	 ldr r0,.L85+76
 237 013c FFF7FEFF 	 bl DIGITAL_IO_Init
 238 0140 0346     	 mov r3,r0
 239 0142 FB71     	 strb r3,[r7,#7]
 240              	.L20:
 169:../Dave/Generated/DAVE.c ****    } 
 170:../Dave/Generated/DAVE.c ****   if (init_status == DAVE_STATUS_SUCCESS)
 241              	 .loc 1 170 0
 242 0144 FB79     	 ldrb r3,[r7,#7]
 243 0146 002B     	 cmp r3,#0
 244 0148 04D1     	 bne .L21
 171:../Dave/Generated/DAVE.c ****   {
 172:../Dave/Generated/DAVE.c **** 	 /**  Initialization of DIGITAL_IO APP instance INFOTAINMENT_PWR_OUT_D */
 173:../Dave/Generated/DAVE.c **** 	 init_status = (DAVE_STATUS_t)DIGITAL_IO_Init(&INFOTAINMENT_PWR_OUT_D); 
 245              	 .loc 1 173 0
 246 014a 7B48     	 ldr r0,.L85+80
 247 014c FFF7FEFF 	 bl DIGITAL_IO_Init
 248 0150 0346     	 mov r3,r0
 249 0152 FB71     	 strb r3,[r7,#7]
 250              	.L21:
 174:../Dave/Generated/DAVE.c ****    } 
 175:../Dave/Generated/DAVE.c ****   if (init_status == DAVE_STATUS_SUCCESS)
 251              	 .loc 1 175 0
 252 0154 FB79     	 ldrb r3,[r7,#7]
 253 0156 002B     	 cmp r3,#0
 254 0158 04D1     	 bne .L22
 176:../Dave/Generated/DAVE.c ****   {
 177:../Dave/Generated/DAVE.c **** 	 /**  Initialization of DIGITAL_IO APP instance AUDIO_AMP_OUT_D */
 178:../Dave/Generated/DAVE.c **** 	 init_status = (DAVE_STATUS_t)DIGITAL_IO_Init(&AUDIO_AMP_OUT_D); 
 255              	 .loc 1 178 0
 256 015a 7848     	 ldr r0,.L85+84
 257 015c FFF7FEFF 	 bl DIGITAL_IO_Init
 258 0160 0346     	 mov r3,r0
 259 0162 FB71     	 strb r3,[r7,#7]
 260              	.L22:
 179:../Dave/Generated/DAVE.c ****    } 
 180:../Dave/Generated/DAVE.c ****   if (init_status == DAVE_STATUS_SUCCESS)
 261              	 .loc 1 180 0
 262 0164 FB79     	 ldrb r3,[r7,#7]
 263 0166 002B     	 cmp r3,#0
 264 0168 04D1     	 bne .L23
 181:../Dave/Generated/DAVE.c ****   {
 182:../Dave/Generated/DAVE.c **** 	 /**  Initialization of DIGITAL_IO APP instance VACUUM_SENSOR_PWR_OUT_D */
 183:../Dave/Generated/DAVE.c **** 	 init_status = (DAVE_STATUS_t)DIGITAL_IO_Init(&VACUUM_SENSOR_PWR_OUT_D); 
 265              	 .loc 1 183 0
 266 016a 7548     	 ldr r0,.L85+88
 267 016c FFF7FEFF 	 bl DIGITAL_IO_Init
 268 0170 0346     	 mov r3,r0
 269 0172 FB71     	 strb r3,[r7,#7]
 270              	.L23:
 184:../Dave/Generated/DAVE.c ****    } 
 185:../Dave/Generated/DAVE.c ****   if (init_status == DAVE_STATUS_SUCCESS)
 271              	 .loc 1 185 0
 272 0174 FB79     	 ldrb r3,[r7,#7]
 273 0176 002B     	 cmp r3,#0
 274 0178 04D1     	 bne .L24
 186:../Dave/Generated/DAVE.c ****   {
 187:../Dave/Generated/DAVE.c **** 	 /**  Initialization of DIGITAL_IO APP instance BRAKE_LIGHT_OUT_D */
 188:../Dave/Generated/DAVE.c **** 	 init_status = (DAVE_STATUS_t)DIGITAL_IO_Init(&BRAKE_LIGHT_OUT_D); 
 275              	 .loc 1 188 0
 276 017a 7248     	 ldr r0,.L85+92
 277 017c FFF7FEFF 	 bl DIGITAL_IO_Init
 278 0180 0346     	 mov r3,r0
 279 0182 FB71     	 strb r3,[r7,#7]
 280              	.L24:
 189:../Dave/Generated/DAVE.c ****    } 
 190:../Dave/Generated/DAVE.c ****   if (init_status == DAVE_STATUS_SUCCESS)
 281              	 .loc 1 190 0
 282 0184 FB79     	 ldrb r3,[r7,#7]
 283 0186 002B     	 cmp r3,#0
 284 0188 04D1     	 bne .L25
 191:../Dave/Generated/DAVE.c ****   {
 192:../Dave/Generated/DAVE.c **** 	 /**  Initialization of DIGITAL_IO APP instance HORN_PWR_OUT_D */
 193:../Dave/Generated/DAVE.c **** 	 init_status = (DAVE_STATUS_t)DIGITAL_IO_Init(&HORN_PWR_OUT_D); 
 285              	 .loc 1 193 0
 286 018a 6F48     	 ldr r0,.L85+96
 287 018c FFF7FEFF 	 bl DIGITAL_IO_Init
 288 0190 0346     	 mov r3,r0
 289 0192 FB71     	 strb r3,[r7,#7]
 290              	.L25:
 194:../Dave/Generated/DAVE.c ****    } 
 195:../Dave/Generated/DAVE.c ****   if (init_status == DAVE_STATUS_SUCCESS)
 291              	 .loc 1 195 0
 292 0194 FB79     	 ldrb r3,[r7,#7]
 293 0196 002B     	 cmp r3,#0
 294 0198 04D1     	 bne .L26
 196:../Dave/Generated/DAVE.c ****   {
 197:../Dave/Generated/DAVE.c **** 	 /**  Initialization of DIGITAL_IO APP instance DOOR_LOCK_OUT_D */
 198:../Dave/Generated/DAVE.c **** 	 init_status = (DAVE_STATUS_t)DIGITAL_IO_Init(&DOOR_LOCK_OUT_D); 
 295              	 .loc 1 198 0
 296 019a 6C48     	 ldr r0,.L85+100
 297 019c FFF7FEFF 	 bl DIGITAL_IO_Init
 298 01a0 0346     	 mov r3,r0
 299 01a2 FB71     	 strb r3,[r7,#7]
 300              	.L26:
 199:../Dave/Generated/DAVE.c ****    } 
 200:../Dave/Generated/DAVE.c ****   if (init_status == DAVE_STATUS_SUCCESS)
 301              	 .loc 1 200 0
 302 01a4 FB79     	 ldrb r3,[r7,#7]
 303 01a6 002B     	 cmp r3,#0
 304 01a8 04D1     	 bne .L27
 201:../Dave/Generated/DAVE.c ****   {
 202:../Dave/Generated/DAVE.c **** 	 /**  Initialization of DIGITAL_IO APP instance RIGHT_INDICATOR_OUT_D */
 203:../Dave/Generated/DAVE.c **** 	 init_status = (DAVE_STATUS_t)DIGITAL_IO_Init(&RIGHT_INDICATOR_OUT_D); 
 305              	 .loc 1 203 0
 306 01aa 6948     	 ldr r0,.L85+104
 307 01ac FFF7FEFF 	 bl DIGITAL_IO_Init
 308 01b0 0346     	 mov r3,r0
 309 01b2 FB71     	 strb r3,[r7,#7]
 310              	.L27:
 204:../Dave/Generated/DAVE.c ****    } 
 205:../Dave/Generated/DAVE.c ****   if (init_status == DAVE_STATUS_SUCCESS)
 311              	 .loc 1 205 0
 312 01b4 FB79     	 ldrb r3,[r7,#7]
 313 01b6 002B     	 cmp r3,#0
 314 01b8 04D1     	 bne .L28
 206:../Dave/Generated/DAVE.c ****   {
 207:../Dave/Generated/DAVE.c **** 	 /**  Initialization of DIGITAL_IO APP instance HIGH_BEAM_OUT_D */
 208:../Dave/Generated/DAVE.c **** 	 init_status = (DAVE_STATUS_t)DIGITAL_IO_Init(&HIGH_BEAM_OUT_D); 
 315              	 .loc 1 208 0
 316 01ba 6648     	 ldr r0,.L85+108
 317 01bc FFF7FEFF 	 bl DIGITAL_IO_Init
 318 01c0 0346     	 mov r3,r0
 319 01c2 FB71     	 strb r3,[r7,#7]
 320              	.L28:
 209:../Dave/Generated/DAVE.c ****    } 
 210:../Dave/Generated/DAVE.c ****   if (init_status == DAVE_STATUS_SUCCESS)
 321              	 .loc 1 210 0
 322 01c4 FB79     	 ldrb r3,[r7,#7]
 323 01c6 002B     	 cmp r3,#0
 324 01c8 04D1     	 bne .L29
 211:../Dave/Generated/DAVE.c ****   {
 212:../Dave/Generated/DAVE.c **** 	 /**  Initialization of DIGITAL_IO APP instance LOW_BEAM_OUT_D */
 213:../Dave/Generated/DAVE.c **** 	 init_status = (DAVE_STATUS_t)DIGITAL_IO_Init(&LOW_BEAM_OUT_D); 
 325              	 .loc 1 213 0
 326 01ca 6348     	 ldr r0,.L85+112
 327 01cc FFF7FEFF 	 bl DIGITAL_IO_Init
 328 01d0 0346     	 mov r3,r0
 329 01d2 FB71     	 strb r3,[r7,#7]
 330              	.L29:
 214:../Dave/Generated/DAVE.c ****    } 
 215:../Dave/Generated/DAVE.c ****   if (init_status == DAVE_STATUS_SUCCESS)
 331              	 .loc 1 215 0
 332 01d4 FB79     	 ldrb r3,[r7,#7]
 333 01d6 002B     	 cmp r3,#0
 334 01d8 04D1     	 bne .L30
 216:../Dave/Generated/DAVE.c ****   {
 217:../Dave/Generated/DAVE.c **** 	 /**  Initialization of DIGITAL_IO APP instance REV_LIGHT_OUT_D */
 218:../Dave/Generated/DAVE.c **** 	 init_status = (DAVE_STATUS_t)DIGITAL_IO_Init(&REV_LIGHT_OUT_D); 
 335              	 .loc 1 218 0
 336 01da 6048     	 ldr r0,.L85+116
 337 01dc FFF7FEFF 	 bl DIGITAL_IO_Init
 338 01e0 0346     	 mov r3,r0
 339 01e2 FB71     	 strb r3,[r7,#7]
 340              	.L30:
 219:../Dave/Generated/DAVE.c ****    } 
 220:../Dave/Generated/DAVE.c ****   if (init_status == DAVE_STATUS_SUCCESS)
 341              	 .loc 1 220 0
 342 01e4 FB79     	 ldrb r3,[r7,#7]
 343 01e6 002B     	 cmp r3,#0
 344 01e8 04D1     	 bne .L31
 221:../Dave/Generated/DAVE.c ****   {
 222:../Dave/Generated/DAVE.c **** 	 /**  Initialization of DIGITAL_IO APP instance ELEC_HANDBRAKE_IN_D */
 223:../Dave/Generated/DAVE.c **** 	 init_status = (DAVE_STATUS_t)DIGITAL_IO_Init(&ELEC_HANDBRAKE_IN_D); 
 345              	 .loc 1 223 0
 346 01ea 5D48     	 ldr r0,.L85+120
 347 01ec FFF7FEFF 	 bl DIGITAL_IO_Init
 348 01f0 0346     	 mov r3,r0
 349 01f2 FB71     	 strb r3,[r7,#7]
 350              	.L31:
 224:../Dave/Generated/DAVE.c ****    } 
 225:../Dave/Generated/DAVE.c ****   if (init_status == DAVE_STATUS_SUCCESS)
 351              	 .loc 1 225 0
 352 01f4 FB79     	 ldrb r3,[r7,#7]
 353 01f6 002B     	 cmp r3,#0
 354 01f8 04D1     	 bne .L32
 226:../Dave/Generated/DAVE.c ****   {
 227:../Dave/Generated/DAVE.c **** 	 /**  Initialization of DIGITAL_IO APP instance AUX_ANALOG1_IN_D */
 228:../Dave/Generated/DAVE.c **** 	 init_status = (DAVE_STATUS_t)DIGITAL_IO_Init(&AUX_ANALOG1_IN_D); 
 355              	 .loc 1 228 0
 356 01fa 5A48     	 ldr r0,.L85+124
 357 01fc FFF7FEFF 	 bl DIGITAL_IO_Init
 358 0200 0346     	 mov r3,r0
 359 0202 FB71     	 strb r3,[r7,#7]
 360              	.L32:
 229:../Dave/Generated/DAVE.c ****    } 
 230:../Dave/Generated/DAVE.c ****   if (init_status == DAVE_STATUS_SUCCESS)
 361              	 .loc 1 230 0
 362 0204 FB79     	 ldrb r3,[r7,#7]
 363 0206 002B     	 cmp r3,#0
 364 0208 04D1     	 bne .L33
 231:../Dave/Generated/DAVE.c ****   {
 232:../Dave/Generated/DAVE.c **** 	 /**  Initialization of DIGITAL_IO APP instance INT_ACCEL_IN_D */
 233:../Dave/Generated/DAVE.c **** 	 init_status = (DAVE_STATUS_t)DIGITAL_IO_Init(&INT_ACCEL_IN_D); 
 365              	 .loc 1 233 0
 366 020a 5748     	 ldr r0,.L85+128
 367 020c FFF7FEFF 	 bl DIGITAL_IO_Init
 368 0210 0346     	 mov r3,r0
 369 0212 FB71     	 strb r3,[r7,#7]
 370              	.L33:
 234:../Dave/Generated/DAVE.c ****    } 
 235:../Dave/Generated/DAVE.c ****   if (init_status == DAVE_STATUS_SUCCESS)
 371              	 .loc 1 235 0
 372 0214 FB79     	 ldrb r3,[r7,#7]
 373 0216 002B     	 cmp r3,#0
 374 0218 04D1     	 bne .L34
 236:../Dave/Generated/DAVE.c ****   {
 237:../Dave/Generated/DAVE.c **** 	 /**  Initialization of DIGITAL_IO APP instance CIGARETTE_LIGHTER_PWR_OUT_D */
 238:../Dave/Generated/DAVE.c **** 	 init_status = (DAVE_STATUS_t)DIGITAL_IO_Init(&CIGARETTE_LIGHTER_PWR_OUT_D); 
 375              	 .loc 1 238 0
 376 021a 5448     	 ldr r0,.L85+132
 377 021c FFF7FEFF 	 bl DIGITAL_IO_Init
 378 0220 0346     	 mov r3,r0
 379 0222 FB71     	 strb r3,[r7,#7]
 380              	.L34:
 239:../Dave/Generated/DAVE.c ****    } 
 240:../Dave/Generated/DAVE.c ****   if (init_status == DAVE_STATUS_SUCCESS)
 381              	 .loc 1 240 0
 382 0224 FB79     	 ldrb r3,[r7,#7]
 383 0226 002B     	 cmp r3,#0
 384 0228 04D1     	 bne .L35
 241:../Dave/Generated/DAVE.c ****   {
 242:../Dave/Generated/DAVE.c **** 	 /**  Initialization of DIGITAL_IO APP instance BUZZER_EN_D */
 243:../Dave/Generated/DAVE.c **** 	 init_status = (DAVE_STATUS_t)DIGITAL_IO_Init(&BUZZER_EN_D); 
 385              	 .loc 1 243 0
 386 022a 5148     	 ldr r0,.L85+136
 387 022c FFF7FEFF 	 bl DIGITAL_IO_Init
 388 0230 0346     	 mov r3,r0
 389 0232 FB71     	 strb r3,[r7,#7]
 390              	.L35:
 244:../Dave/Generated/DAVE.c ****    } 
 245:../Dave/Generated/DAVE.c ****   if (init_status == DAVE_STATUS_SUCCESS)
 391              	 .loc 1 245 0
 392 0234 FB79     	 ldrb r3,[r7,#7]
 393 0236 002B     	 cmp r3,#0
 394 0238 04D1     	 bne .L36
 246:../Dave/Generated/DAVE.c ****   {
 247:../Dave/Generated/DAVE.c **** 	 /**  Initialization of DIGITAL_IO APP instance MC_RELAY_PWR_OUT_D */
 248:../Dave/Generated/DAVE.c **** 	 init_status = (DAVE_STATUS_t)DIGITAL_IO_Init(&MC_RELAY_PWR_OUT_D); 
 395              	 .loc 1 248 0
 396 023a 4E48     	 ldr r0,.L85+140
 397 023c FFF7FEFF 	 bl DIGITAL_IO_Init
 398 0240 0346     	 mov r3,r0
 399 0242 FB71     	 strb r3,[r7,#7]
 400              	.L36:
 249:../Dave/Generated/DAVE.c ****    } 
 250:../Dave/Generated/DAVE.c ****   if (init_status == DAVE_STATUS_SUCCESS)
 401              	 .loc 1 250 0
 402 0244 FB79     	 ldrb r3,[r7,#7]
 403 0246 002B     	 cmp r3,#0
 404 0248 04D1     	 bne .L37
 251:../Dave/Generated/DAVE.c ****   {
 252:../Dave/Generated/DAVE.c **** 	 /**  Initialization of DIGITAL_IO APP instance MC_FAN_PWR_OUT_D */
 253:../Dave/Generated/DAVE.c **** 	 init_status = (DAVE_STATUS_t)DIGITAL_IO_Init(&MC_FAN_PWR_OUT_D); 
 405              	 .loc 1 253 0
 406 024a 4B48     	 ldr r0,.L85+144
 407 024c FFF7FEFF 	 bl DIGITAL_IO_Init
 408 0250 0346     	 mov r3,r0
 409 0252 FB71     	 strb r3,[r7,#7]
 410              	.L37:
 254:../Dave/Generated/DAVE.c ****    } 
 255:../Dave/Generated/DAVE.c ****   if (init_status == DAVE_STATUS_SUCCESS)
 411              	 .loc 1 255 0
 412 0254 FB79     	 ldrb r3,[r7,#7]
 413 0256 002B     	 cmp r3,#0
 414 0258 04D1     	 bne .L38
 256:../Dave/Generated/DAVE.c ****   {
 257:../Dave/Generated/DAVE.c **** 	 /**  Initialization of DIGITAL_IO APP instance VEHICLE_SPEED_PWM_OUT */
 258:../Dave/Generated/DAVE.c **** 	 init_status = (DAVE_STATUS_t)DIGITAL_IO_Init(&VEHICLE_SPEED_PWM_OUT); 
 415              	 .loc 1 258 0
 416 025a 4848     	 ldr r0,.L85+148
 417 025c FFF7FEFF 	 bl DIGITAL_IO_Init
 418 0260 0346     	 mov r3,r0
 419 0262 FB71     	 strb r3,[r7,#7]
 420              	.L38:
 259:../Dave/Generated/DAVE.c ****    } 
 260:../Dave/Generated/DAVE.c ****   if (init_status == DAVE_STATUS_SUCCESS)
 421              	 .loc 1 260 0
 422 0264 FB79     	 ldrb r3,[r7,#7]
 423 0266 002B     	 cmp r3,#0
 424 0268 04D1     	 bne .L39
 261:../Dave/Generated/DAVE.c ****   {
 262:../Dave/Generated/DAVE.c **** 	 /**  Initialization of DIGITAL_IO APP instance VEHICLE_RPM_PWM_OUT */
 263:../Dave/Generated/DAVE.c **** 	 init_status = (DAVE_STATUS_t)DIGITAL_IO_Init(&VEHICLE_RPM_PWM_OUT); 
 425              	 .loc 1 263 0
 426 026a 4548     	 ldr r0,.L85+152
 427 026c FFF7FEFF 	 bl DIGITAL_IO_Init
 428 0270 0346     	 mov r3,r0
 429 0272 FB71     	 strb r3,[r7,#7]
 430              	.L39:
 264:../Dave/Generated/DAVE.c ****    } 
 265:../Dave/Generated/DAVE.c ****   if (init_status == DAVE_STATUS_SUCCESS)
 431              	 .loc 1 265 0
 432 0274 FB79     	 ldrb r3,[r7,#7]
 433 0276 002B     	 cmp r3,#0
 434 0278 04D1     	 bne .L40
 266:../Dave/Generated/DAVE.c ****   {
 267:../Dave/Generated/DAVE.c **** 	 /**  Initialization of DIGITAL_IO APP instance PWR_WINDOW_OUT_D */
 268:../Dave/Generated/DAVE.c **** 	 init_status = (DAVE_STATUS_t)DIGITAL_IO_Init(&PWR_WINDOW_OUT_D); 
 435              	 .loc 1 268 0
 436 027a 4248     	 ldr r0,.L85+156
 437 027c FFF7FEFF 	 bl DIGITAL_IO_Init
 438 0280 0346     	 mov r3,r0
 439 0282 FB71     	 strb r3,[r7,#7]
 440              	.L40:
 269:../Dave/Generated/DAVE.c ****    } 
 270:../Dave/Generated/DAVE.c ****   if (init_status == DAVE_STATUS_SUCCESS)
 441              	 .loc 1 270 0
 442 0284 FB79     	 ldrb r3,[r7,#7]
 443 0286 002B     	 cmp r3,#0
 444 0288 04D1     	 bne .L41
 271:../Dave/Generated/DAVE.c ****   {
 272:../Dave/Generated/DAVE.c **** 	 /**  Initialization of DIGITAL_IO APP instance PWR_STEERING_OUT_D */
 273:../Dave/Generated/DAVE.c **** 	 init_status = (DAVE_STATUS_t)DIGITAL_IO_Init(&PWR_STEERING_OUT_D); 
 445              	 .loc 1 273 0
 446 028a 3F48     	 ldr r0,.L85+160
 447 028c FFF7FEFF 	 bl DIGITAL_IO_Init
 448 0290 0346     	 mov r3,r0
 449 0292 FB71     	 strb r3,[r7,#7]
 450              	.L41:
 274:../Dave/Generated/DAVE.c ****    } 
 275:../Dave/Generated/DAVE.c ****   if (init_status == DAVE_STATUS_SUCCESS)
 451              	 .loc 1 275 0
 452 0294 FB79     	 ldrb r3,[r7,#7]
 453 0296 002B     	 cmp r3,#0
 454 0298 04D1     	 bne .L42
 276:../Dave/Generated/DAVE.c ****   {
 277:../Dave/Generated/DAVE.c **** 	 /**  Initialization of DIGITAL_IO APP instance LEFT_INDICATOR_OUT_D */
 278:../Dave/Generated/DAVE.c **** 	 init_status = (DAVE_STATUS_t)DIGITAL_IO_Init(&LEFT_INDICATOR_OUT_D); 
 455              	 .loc 1 278 0
 456 029a 3C48     	 ldr r0,.L85+164
 457 029c FFF7FEFF 	 bl DIGITAL_IO_Init
 458 02a0 0346     	 mov r3,r0
 459 02a2 FB71     	 strb r3,[r7,#7]
 460              	.L42:
 279:../Dave/Generated/DAVE.c ****    } 
 280:../Dave/Generated/DAVE.c ****   if (init_status == DAVE_STATUS_SUCCESS)
 461              	 .loc 1 280 0
 462 02a4 FB79     	 ldrb r3,[r7,#7]
 463 02a6 002B     	 cmp r3,#0
 464 02a8 04D1     	 bne .L43
 281:../Dave/Generated/DAVE.c ****   {
 282:../Dave/Generated/DAVE.c **** 	 /**  Initialization of DIGITAL_IO APP instance ADC3_CS_OUT */
 283:../Dave/Generated/DAVE.c **** 	 init_status = (DAVE_STATUS_t)DIGITAL_IO_Init(&ADC3_CS_OUT); 
 465              	 .loc 1 283 0
 466 02aa 3948     	 ldr r0,.L85+168
 467 02ac FFF7FEFF 	 bl DIGITAL_IO_Init
 468 02b0 0346     	 mov r3,r0
 469 02b2 FB71     	 strb r3,[r7,#7]
 470              	.L43:
 284:../Dave/Generated/DAVE.c ****    } 
 285:../Dave/Generated/DAVE.c ****   if (init_status == DAVE_STATUS_SUCCESS)
 471              	 .loc 1 285 0
 472 02b4 FB79     	 ldrb r3,[r7,#7]
 473 02b6 002B     	 cmp r3,#0
 474 02b8 04D1     	 bne .L44
 286:../Dave/Generated/DAVE.c ****   {
 287:../Dave/Generated/DAVE.c **** 	 /**  Initialization of DIGITAL_IO APP instance INPUTS_3V3_PWR_EN */
 288:../Dave/Generated/DAVE.c **** 	 init_status = (DAVE_STATUS_t)DIGITAL_IO_Init(&INPUTS_3V3_PWR_EN); 
 475              	 .loc 1 288 0
 476 02ba 3648     	 ldr r0,.L85+172
 477 02bc FFF7FEFF 	 bl DIGITAL_IO_Init
 478 02c0 0346     	 mov r3,r0
 479 02c2 FB71     	 strb r3,[r7,#7]
 480              	.L44:
 289:../Dave/Generated/DAVE.c ****    } 
 290:../Dave/Generated/DAVE.c ****   if (init_status == DAVE_STATUS_SUCCESS)
 481              	 .loc 1 290 0
 482 02c4 FB79     	 ldrb r3,[r7,#7]
 483 02c6 002B     	 cmp r3,#0
 484 02c8 04D1     	 bne .L45
 291:../Dave/Generated/DAVE.c ****   {
 292:../Dave/Generated/DAVE.c **** 	 /**  Initialization of DIGITAL_IO APP instance COMM_3V3_PWR_EN */
 293:../Dave/Generated/DAVE.c **** 	 init_status = (DAVE_STATUS_t)DIGITAL_IO_Init(&COMM_3V3_PWR_EN); 
 485              	 .loc 1 293 0
 486 02ca 3348     	 ldr r0,.L85+176
 487 02cc FFF7FEFF 	 bl DIGITAL_IO_Init
 488 02d0 0346     	 mov r3,r0
 489 02d2 FB71     	 strb r3,[r7,#7]
 490              	.L45:
 294:../Dave/Generated/DAVE.c ****    } 
 295:../Dave/Generated/DAVE.c ****   if (init_status == DAVE_STATUS_SUCCESS)
 491              	 .loc 1 295 0
 492 02d4 FB79     	 ldrb r3,[r7,#7]
 493 02d6 002B     	 cmp r3,#0
 494 02d8 62D1     	 bne .L46
 296:../Dave/Generated/DAVE.c ****   {
 297:../Dave/Generated/DAVE.c **** 	 /**  Initialization of DIGITAL_IO APP instance SENSOR_3V3_PWR_EN */
 298:../Dave/Generated/DAVE.c **** 	 init_status = (DAVE_STATUS_t)DIGITAL_IO_Init(&SENSOR_3V3_PWR_EN); 
 495              	 .loc 1 298 0
 496 02da 3048     	 ldr r0,.L85+180
 497 02dc FFF7FEFF 	 bl DIGITAL_IO_Init
 498 02e0 0346     	 mov r3,r0
 499 02e2 FB71     	 strb r3,[r7,#7]
 500 02e4 5CE0     	 b .L86
 501              	.L87:
 502 02e6 00BF     	 .align 2
 503              	.L85:
 504 02e8 00000000 	 .word CLOCK_XMC4_0
 505 02ec 00000000 	 .word DC_DC_EN_OUT_D
 506 02f0 00000000 	 .word VACUUM_PUMP_OUT_D
 507 02f4 00000000 	 .word HEADLAMPS_ADJ_PWR_OUT_D
 508 02f8 00000000 	 .word AC_RADIATOR_OUT_D
 509 02fc 00000000 	 .word INSTRUMENT_CON_PWR_OUT_D
 510 0300 00000000 	 .word ACCEL_CS_OUT
 511 0304 00000000 	 .word ELECT_HANDBRAKE_EN_OUT_D
 512 0308 00000000 	 .word MC_CONTACTOR_RELAY_OUT_D
 513 030c 00000000 	 .word MC_PARK_RELAY_OUT_D
 514 0310 00000000 	 .word MC_REV_RELAY_OUT_D
 515 0314 00000000 	 .word MC_FWD_RELAY_OUT_D
 516 0318 00000000 	 .word MC_REGEN_RELAY_OUT_D
 517 031c 00000000 	 .word MC_ELOCK_RELAY_OUT_D
 518 0320 00000000 	 .word POS_OUT_D
 519 0324 00000000 	 .word VCU_FAN_PWR_OUT_D
 520 0328 00000000 	 .word AUX_EFUSE_1_OUT_D
 521 032c 00000000 	 .word WIPER_PWR_OUT_D
 522 0330 00000000 	 .word THROTTLE_POT_CS_OUT_D
 523 0334 00000000 	 .word LIGHTS_PWR_OUT_D
 524 0338 00000000 	 .word INFOTAINMENT_PWR_OUT_D
 525 033c 00000000 	 .word AUDIO_AMP_OUT_D
 526 0340 00000000 	 .word VACUUM_SENSOR_PWR_OUT_D
 527 0344 00000000 	 .word BRAKE_LIGHT_OUT_D
 528 0348 00000000 	 .word HORN_PWR_OUT_D
 529 034c 00000000 	 .word DOOR_LOCK_OUT_D
 530 0350 00000000 	 .word RIGHT_INDICATOR_OUT_D
 531 0354 00000000 	 .word HIGH_BEAM_OUT_D
 532 0358 00000000 	 .word LOW_BEAM_OUT_D
 533 035c 00000000 	 .word REV_LIGHT_OUT_D
 534 0360 00000000 	 .word ELEC_HANDBRAKE_IN_D
 535 0364 00000000 	 .word AUX_ANALOG1_IN_D
 536 0368 00000000 	 .word INT_ACCEL_IN_D
 537 036c 00000000 	 .word CIGARETTE_LIGHTER_PWR_OUT_D
 538 0370 00000000 	 .word BUZZER_EN_D
 539 0374 00000000 	 .word MC_RELAY_PWR_OUT_D
 540 0378 00000000 	 .word MC_FAN_PWR_OUT_D
 541 037c 00000000 	 .word VEHICLE_SPEED_PWM_OUT
 542 0380 00000000 	 .word VEHICLE_RPM_PWM_OUT
 543 0384 00000000 	 .word PWR_WINDOW_OUT_D
 544 0388 00000000 	 .word PWR_STEERING_OUT_D
 545 038c 00000000 	 .word LEFT_INDICATOR_OUT_D
 546 0390 00000000 	 .word ADC3_CS_OUT
 547 0394 00000000 	 .word INPUTS_3V3_PWR_EN
 548 0398 00000000 	 .word COMM_3V3_PWR_EN
 549 039c 00000000 	 .word SENSOR_3V3_PWR_EN
 550              	.L86:
 551              	.L46:
 299:../Dave/Generated/DAVE.c ****    } 
 300:../Dave/Generated/DAVE.c ****   if (init_status == DAVE_STATUS_SUCCESS)
 552              	 .loc 1 300 0
 553 03a0 FB79     	 ldrb r3,[r7,#7]
 554 03a2 002B     	 cmp r3,#0
 555 03a4 04D1     	 bne .L47
 301:../Dave/Generated/DAVE.c ****   {
 302:../Dave/Generated/DAVE.c **** 	 /**  Initialization of DIGITAL_IO APP instance CABIN_LIGHT_OUT_D */
 303:../Dave/Generated/DAVE.c **** 	 init_status = (DAVE_STATUS_t)DIGITAL_IO_Init(&CABIN_LIGHT_OUT_D); 
 556              	 .loc 1 303 0
 557 03a6 9548     	 ldr r0,.L88
 558 03a8 FFF7FEFF 	 bl DIGITAL_IO_Init
 559 03ac 0346     	 mov r3,r0
 560 03ae FB71     	 strb r3,[r7,#7]
 561              	.L47:
 304:../Dave/Generated/DAVE.c ****    } 
 305:../Dave/Generated/DAVE.c ****   if (init_status == DAVE_STATUS_SUCCESS)
 562              	 .loc 1 305 0
 563 03b0 FB79     	 ldrb r3,[r7,#7]
 564 03b2 002B     	 cmp r3,#0
 565 03b4 04D1     	 bne .L48
 306:../Dave/Generated/DAVE.c ****   {
 307:../Dave/Generated/DAVE.c **** 	 /**  Initialization of DIGITAL_IO APP instance ADC2_CS_OUT */
 308:../Dave/Generated/DAVE.c **** 	 init_status = (DAVE_STATUS_t)DIGITAL_IO_Init(&ADC2_CS_OUT); 
 566              	 .loc 1 308 0
 567 03b6 9248     	 ldr r0,.L88+4
 568 03b8 FFF7FEFF 	 bl DIGITAL_IO_Init
 569 03bc 0346     	 mov r3,r0
 570 03be FB71     	 strb r3,[r7,#7]
 571              	.L48:
 309:../Dave/Generated/DAVE.c ****    } 
 310:../Dave/Generated/DAVE.c ****   if (init_status == DAVE_STATUS_SUCCESS)
 572              	 .loc 1 310 0
 573 03c0 FB79     	 ldrb r3,[r7,#7]
 574 03c2 002B     	 cmp r3,#0
 575 03c4 04D1     	 bne .L49
 311:../Dave/Generated/DAVE.c ****   {
 312:../Dave/Generated/DAVE.c **** 	 /**  Initialization of DIGITAL_IO APP instance ADC1_CS_OUT */
 313:../Dave/Generated/DAVE.c **** 	 init_status = (DAVE_STATUS_t)DIGITAL_IO_Init(&ADC1_CS_OUT); 
 576              	 .loc 1 313 0
 577 03c6 8F48     	 ldr r0,.L88+8
 578 03c8 FFF7FEFF 	 bl DIGITAL_IO_Init
 579 03cc 0346     	 mov r3,r0
 580 03ce FB71     	 strb r3,[r7,#7]
 581              	.L49:
 314:../Dave/Generated/DAVE.c ****    } 
 315:../Dave/Generated/DAVE.c ****   if (init_status == DAVE_STATUS_SUCCESS)
 582              	 .loc 1 315 0
 583 03d0 FB79     	 ldrb r3,[r7,#7]
 584 03d2 002B     	 cmp r3,#0
 585 03d4 04D1     	 bne .L50
 316:../Dave/Generated/DAVE.c ****   {
 317:../Dave/Generated/DAVE.c **** 	 /**  Initialization of DIGITAL_IO APP instance SPEED_SENSOR_IN_D */
 318:../Dave/Generated/DAVE.c **** 	 init_status = (DAVE_STATUS_t)DIGITAL_IO_Init(&SPEED_SENSOR_IN_D); 
 586              	 .loc 1 318 0
 587 03d6 8C48     	 ldr r0,.L88+12
 588 03d8 FFF7FEFF 	 bl DIGITAL_IO_Init
 589 03dc 0346     	 mov r3,r0
 590 03de FB71     	 strb r3,[r7,#7]
 591              	.L50:
 319:../Dave/Generated/DAVE.c ****    } 
 320:../Dave/Generated/DAVE.c ****   if (init_status == DAVE_STATUS_SUCCESS)
 592              	 .loc 1 320 0
 593 03e0 FB79     	 ldrb r3,[r7,#7]
 594 03e2 002B     	 cmp r3,#0
 595 03e4 04D1     	 bne .L51
 321:../Dave/Generated/DAVE.c ****   {
 322:../Dave/Generated/DAVE.c **** 	 /**  Initialization of DIGITAL_IO APP instance VACUUM_SENSOR_IN_D */
 323:../Dave/Generated/DAVE.c **** 	 init_status = (DAVE_STATUS_t)DIGITAL_IO_Init(&VACUUM_SENSOR_IN_D); 
 596              	 .loc 1 323 0
 597 03e6 8948     	 ldr r0,.L88+16
 598 03e8 FFF7FEFF 	 bl DIGITAL_IO_Init
 599 03ec 0346     	 mov r3,r0
 600 03ee FB71     	 strb r3,[r7,#7]
 601              	.L51:
 324:../Dave/Generated/DAVE.c ****    } 
 325:../Dave/Generated/DAVE.c ****   if (init_status == DAVE_STATUS_SUCCESS)
 602              	 .loc 1 325 0
 603 03f0 FB79     	 ldrb r3,[r7,#7]
 604 03f2 002B     	 cmp r3,#0
 605 03f4 04D1     	 bne .L52
 326:../Dave/Generated/DAVE.c ****   {
 327:../Dave/Generated/DAVE.c **** 	 /**  Initialization of DIGITAL_IO APP instance BRAKE_OIL_IN_D */
 328:../Dave/Generated/DAVE.c **** 	 init_status = (DAVE_STATUS_t)DIGITAL_IO_Init(&BRAKE_OIL_IN_D); 
 606              	 .loc 1 328 0
 607 03f6 8648     	 ldr r0,.L88+20
 608 03f8 FFF7FEFF 	 bl DIGITAL_IO_Init
 609 03fc 0346     	 mov r3,r0
 610 03fe FB71     	 strb r3,[r7,#7]
 611              	.L52:
 329:../Dave/Generated/DAVE.c ****    } 
 330:../Dave/Generated/DAVE.c ****   if (init_status == DAVE_STATUS_SUCCESS)
 612              	 .loc 1 330 0
 613 0400 FB79     	 ldrb r3,[r7,#7]
 614 0402 002B     	 cmp r3,#0
 615 0404 04D1     	 bne .L53
 331:../Dave/Generated/DAVE.c ****   {
 332:../Dave/Generated/DAVE.c **** 	 /**  Initialization of DIGITAL_IO APP instance CHARGING_STARTED_IN_D */
 333:../Dave/Generated/DAVE.c **** 	 init_status = (DAVE_STATUS_t)DIGITAL_IO_Init(&CHARGING_STARTED_IN_D); 
 616              	 .loc 1 333 0
 617 0406 8348     	 ldr r0,.L88+24
 618 0408 FFF7FEFF 	 bl DIGITAL_IO_Init
 619 040c 0346     	 mov r3,r0
 620 040e FB71     	 strb r3,[r7,#7]
 621              	.L53:
 334:../Dave/Generated/DAVE.c ****    } 
 335:../Dave/Generated/DAVE.c ****   if (init_status == DAVE_STATUS_SUCCESS)
 622              	 .loc 1 335 0
 623 0410 FB79     	 ldrb r3,[r7,#7]
 624 0412 002B     	 cmp r3,#0
 625 0414 04D1     	 bne .L54
 336:../Dave/Generated/DAVE.c ****   {
 337:../Dave/Generated/DAVE.c **** 	 /**  Initialization of DIGITAL_IO APP instance CHARGER_CONNECTED_IN_D */
 338:../Dave/Generated/DAVE.c **** 	 init_status = (DAVE_STATUS_t)DIGITAL_IO_Init(&CHARGER_CONNECTED_IN_D); 
 626              	 .loc 1 338 0
 627 0416 8048     	 ldr r0,.L88+28
 628 0418 FFF7FEFF 	 bl DIGITAL_IO_Init
 629 041c 0346     	 mov r3,r0
 630 041e FB71     	 strb r3,[r7,#7]
 631              	.L54:
 339:../Dave/Generated/DAVE.c ****    } 
 340:../Dave/Generated/DAVE.c ****   if (init_status == DAVE_STATUS_SUCCESS)
 632              	 .loc 1 340 0
 633 0420 FB79     	 ldrb r3,[r7,#7]
 634 0422 002B     	 cmp r3,#0
 635 0424 04D1     	 bne .L55
 341:../Dave/Generated/DAVE.c ****   {
 342:../Dave/Generated/DAVE.c **** 	 /**  Initialization of DIGITAL_IO APP instance IGNI_POS2_IN_D */
 343:../Dave/Generated/DAVE.c **** 	 init_status = (DAVE_STATUS_t)DIGITAL_IO_Init(&IGNI_POS2_IN_D); 
 636              	 .loc 1 343 0
 637 0426 7D48     	 ldr r0,.L88+32
 638 0428 FFF7FEFF 	 bl DIGITAL_IO_Init
 639 042c 0346     	 mov r3,r0
 640 042e FB71     	 strb r3,[r7,#7]
 641              	.L55:
 344:../Dave/Generated/DAVE.c ****    } 
 345:../Dave/Generated/DAVE.c ****   if (init_status == DAVE_STATUS_SUCCESS)
 642              	 .loc 1 345 0
 643 0430 FB79     	 ldrb r3,[r7,#7]
 644 0432 002B     	 cmp r3,#0
 645 0434 04D1     	 bne .L56
 346:../Dave/Generated/DAVE.c ****   {
 347:../Dave/Generated/DAVE.c **** 	 /**  Initialization of DIGITAL_IO APP instance IGNI_POS1_IN_D */
 348:../Dave/Generated/DAVE.c **** 	 init_status = (DAVE_STATUS_t)DIGITAL_IO_Init(&IGNI_POS1_IN_D); 
 646              	 .loc 1 348 0
 647 0436 7A48     	 ldr r0,.L88+36
 648 0438 FFF7FEFF 	 bl DIGITAL_IO_Init
 649 043c 0346     	 mov r3,r0
 650 043e FB71     	 strb r3,[r7,#7]
 651              	.L56:
 349:../Dave/Generated/DAVE.c ****    } 
 350:../Dave/Generated/DAVE.c ****   if (init_status == DAVE_STATUS_SUCCESS)
 652              	 .loc 1 350 0
 653 0440 FB79     	 ldrb r3,[r7,#7]
 654 0442 002B     	 cmp r3,#0
 655 0444 04D1     	 bne .L57
 351:../Dave/Generated/DAVE.c ****   {
 352:../Dave/Generated/DAVE.c **** 	 /**  Initialization of DIGITAL_IO APP instance ACC_PEDAL_SW_IN_D */
 353:../Dave/Generated/DAVE.c **** 	 init_status = (DAVE_STATUS_t)DIGITAL_IO_Init(&ACC_PEDAL_SW_IN_D); 
 656              	 .loc 1 353 0
 657 0446 7748     	 ldr r0,.L88+40
 658 0448 FFF7FEFF 	 bl DIGITAL_IO_Init
 659 044c 0346     	 mov r3,r0
 660 044e FB71     	 strb r3,[r7,#7]
 661              	.L57:
 354:../Dave/Generated/DAVE.c ****    } 
 355:../Dave/Generated/DAVE.c ****   if (init_status == DAVE_STATUS_SUCCESS)
 662              	 .loc 1 355 0
 663 0450 FB79     	 ldrb r3,[r7,#7]
 664 0452 002B     	 cmp r3,#0
 665 0454 04D1     	 bne .L58
 356:../Dave/Generated/DAVE.c ****   {
 357:../Dave/Generated/DAVE.c **** 	 /**  Initialization of DIGITAL_IO APP instance HANDBRAKE_IN_D */
 358:../Dave/Generated/DAVE.c **** 	 init_status = (DAVE_STATUS_t)DIGITAL_IO_Init(&HANDBRAKE_IN_D); 
 666              	 .loc 1 358 0
 667 0456 7448     	 ldr r0,.L88+44
 668 0458 FFF7FEFF 	 bl DIGITAL_IO_Init
 669 045c 0346     	 mov r3,r0
 670 045e FB71     	 strb r3,[r7,#7]
 671              	.L58:
 359:../Dave/Generated/DAVE.c ****    } 
 360:../Dave/Generated/DAVE.c ****   if (init_status == DAVE_STATUS_SUCCESS)
 672              	 .loc 1 360 0
 673 0460 FB79     	 ldrb r3,[r7,#7]
 674 0462 002B     	 cmp r3,#0
 675 0464 04D1     	 bne .L59
 361:../Dave/Generated/DAVE.c ****   {
 362:../Dave/Generated/DAVE.c **** 	 /**  Initialization of DIGITAL_IO APP instance BRAKE_SW_IN_D */
 363:../Dave/Generated/DAVE.c **** 	 init_status = (DAVE_STATUS_t)DIGITAL_IO_Init(&BRAKE_SW_IN_D); 
 676              	 .loc 1 363 0
 677 0466 7148     	 ldr r0,.L88+48
 678 0468 FFF7FEFF 	 bl DIGITAL_IO_Init
 679 046c 0346     	 mov r3,r0
 680 046e FB71     	 strb r3,[r7,#7]
 681              	.L59:
 364:../Dave/Generated/DAVE.c ****    } 
 365:../Dave/Generated/DAVE.c ****   if (init_status == DAVE_STATUS_SUCCESS)
 682              	 .loc 1 365 0
 683 0470 FB79     	 ldrb r3,[r7,#7]
 684 0472 002B     	 cmp r3,#0
 685 0474 04D1     	 bne .L60
 366:../Dave/Generated/DAVE.c ****   {
 367:../Dave/Generated/DAVE.c **** 	 /**  Initialization of DIGITAL_IO APP instance DOOR_LOCK_PWR_OUT_D */
 368:../Dave/Generated/DAVE.c **** 	 init_status = (DAVE_STATUS_t)DIGITAL_IO_Init(&DOOR_LOCK_PWR_OUT_D); 
 686              	 .loc 1 368 0
 687 0476 6E48     	 ldr r0,.L88+52
 688 0478 FFF7FEFF 	 bl DIGITAL_IO_Init
 689 047c 0346     	 mov r3,r0
 690 047e FB71     	 strb r3,[r7,#7]
 691              	.L60:
 369:../Dave/Generated/DAVE.c ****    } 
 370:../Dave/Generated/DAVE.c ****   if (init_status == DAVE_STATUS_SUCCESS)
 692              	 .loc 1 370 0
 693 0480 FB79     	 ldrb r3,[r7,#7]
 694 0482 002B     	 cmp r3,#0
 695 0484 04D1     	 bne .L61
 371:../Dave/Generated/DAVE.c ****   {
 372:../Dave/Generated/DAVE.c **** 	 /**  Initialization of DIGITAL_IO APP instance GEAR_SW1_IN_D */
 373:../Dave/Generated/DAVE.c **** 	 init_status = (DAVE_STATUS_t)DIGITAL_IO_Init(&GEAR_SW1_IN_D); 
 696              	 .loc 1 373 0
 697 0486 6B48     	 ldr r0,.L88+56
 698 0488 FFF7FEFF 	 bl DIGITAL_IO_Init
 699 048c 0346     	 mov r3,r0
 700 048e FB71     	 strb r3,[r7,#7]
 701              	.L61:
 374:../Dave/Generated/DAVE.c ****    } 
 375:../Dave/Generated/DAVE.c ****   if (init_status == DAVE_STATUS_SUCCESS)
 702              	 .loc 1 375 0
 703 0490 FB79     	 ldrb r3,[r7,#7]
 704 0492 002B     	 cmp r3,#0
 705 0494 04D1     	 bne .L62
 376:../Dave/Generated/DAVE.c ****   {
 377:../Dave/Generated/DAVE.c **** 	 /**  Initialization of DIGITAL_IO APP instance GEAR_SW2_IN_D */
 378:../Dave/Generated/DAVE.c **** 	 init_status = (DAVE_STATUS_t)DIGITAL_IO_Init(&GEAR_SW2_IN_D); 
 706              	 .loc 1 378 0
 707 0496 6848     	 ldr r0,.L88+60
 708 0498 FFF7FEFF 	 bl DIGITAL_IO_Init
 709 049c 0346     	 mov r3,r0
 710 049e FB71     	 strb r3,[r7,#7]
 711              	.L62:
 379:../Dave/Generated/DAVE.c ****    } 
 380:../Dave/Generated/DAVE.c ****   if (init_status == DAVE_STATUS_SUCCESS)
 712              	 .loc 1 380 0
 713 04a0 FB79     	 ldrb r3,[r7,#7]
 714 04a2 002B     	 cmp r3,#0
 715 04a4 04D1     	 bne .L63
 381:../Dave/Generated/DAVE.c ****   {
 382:../Dave/Generated/DAVE.c **** 	 /**  Initialization of DIGITAL_IO APP instance GEAR_SW3_IN_D */
 383:../Dave/Generated/DAVE.c **** 	 init_status = (DAVE_STATUS_t)DIGITAL_IO_Init(&GEAR_SW3_IN_D); 
 716              	 .loc 1 383 0
 717 04a6 6548     	 ldr r0,.L88+64
 718 04a8 FFF7FEFF 	 bl DIGITAL_IO_Init
 719 04ac 0346     	 mov r3,r0
 720 04ae FB71     	 strb r3,[r7,#7]
 721              	.L63:
 384:../Dave/Generated/DAVE.c ****    } 
 385:../Dave/Generated/DAVE.c ****   if (init_status == DAVE_STATUS_SUCCESS)
 722              	 .loc 1 385 0
 723 04b0 FB79     	 ldrb r3,[r7,#7]
 724 04b2 002B     	 cmp r3,#0
 725 04b4 04D1     	 bne .L64
 386:../Dave/Generated/DAVE.c ****   {
 387:../Dave/Generated/DAVE.c **** 	 /**  Initialization of DIGITAL_IO APP instance GEAR_SW4_IN_D */
 388:../Dave/Generated/DAVE.c **** 	 init_status = (DAVE_STATUS_t)DIGITAL_IO_Init(&GEAR_SW4_IN_D); 
 726              	 .loc 1 388 0
 727 04b6 6248     	 ldr r0,.L88+68
 728 04b8 FFF7FEFF 	 bl DIGITAL_IO_Init
 729 04bc 0346     	 mov r3,r0
 730 04be FB71     	 strb r3,[r7,#7]
 731              	.L64:
 389:../Dave/Generated/DAVE.c ****    } 
 390:../Dave/Generated/DAVE.c ****   if (init_status == DAVE_STATUS_SUCCESS)
 732              	 .loc 1 390 0
 733 04c0 FB79     	 ldrb r3,[r7,#7]
 734 04c2 002B     	 cmp r3,#0
 735 04c4 04D1     	 bne .L65
 391:../Dave/Generated/DAVE.c ****   {
 392:../Dave/Generated/DAVE.c **** 	 /**  Initialization of DIGITAL_IO APP instance DIGITAL_IO_5 */
 393:../Dave/Generated/DAVE.c **** 	 init_status = (DAVE_STATUS_t)DIGITAL_IO_Init(&DIGITAL_IO_5); 
 736              	 .loc 1 393 0
 737 04c6 5F48     	 ldr r0,.L88+72
 738 04c8 FFF7FEFF 	 bl DIGITAL_IO_Init
 739 04cc 0346     	 mov r3,r0
 740 04ce FB71     	 strb r3,[r7,#7]
 741              	.L65:
 394:../Dave/Generated/DAVE.c ****    } 
 395:../Dave/Generated/DAVE.c ****   if (init_status == DAVE_STATUS_SUCCESS)
 742              	 .loc 1 395 0
 743 04d0 FB79     	 ldrb r3,[r7,#7]
 744 04d2 002B     	 cmp r3,#0
 745 04d4 04D1     	 bne .L66
 396:../Dave/Generated/DAVE.c ****   {
 397:../Dave/Generated/DAVE.c **** 	 /**  Initialization of DIGITAL_IO APP instance DIGITAL_IO_6 */
 398:../Dave/Generated/DAVE.c **** 	 init_status = (DAVE_STATUS_t)DIGITAL_IO_Init(&DIGITAL_IO_6); 
 746              	 .loc 1 398 0
 747 04d6 5C48     	 ldr r0,.L88+76
 748 04d8 FFF7FEFF 	 bl DIGITAL_IO_Init
 749 04dc 0346     	 mov r3,r0
 750 04de FB71     	 strb r3,[r7,#7]
 751              	.L66:
 399:../Dave/Generated/DAVE.c ****    } 
 400:../Dave/Generated/DAVE.c ****   if (init_status == DAVE_STATUS_SUCCESS)
 752              	 .loc 1 400 0
 753 04e0 FB79     	 ldrb r3,[r7,#7]
 754 04e2 002B     	 cmp r3,#0
 755 04e4 04D1     	 bne .L67
 401:../Dave/Generated/DAVE.c ****   {
 402:../Dave/Generated/DAVE.c **** 	 /**  Initialization of I2C_MASTER APP instance I2C_MASTER_0 */
 403:../Dave/Generated/DAVE.c **** 	 init_status = (DAVE_STATUS_t)I2C_MASTER_Init(&I2C_MASTER_0); 
 756              	 .loc 1 403 0
 757 04e6 5948     	 ldr r0,.L88+80
 758 04e8 FFF7FEFF 	 bl I2C_MASTER_Init
 759 04ec 0346     	 mov r3,r0
 760 04ee FB71     	 strb r3,[r7,#7]
 761              	.L67:
 404:../Dave/Generated/DAVE.c ****    } 
 405:../Dave/Generated/DAVE.c ****   if (init_status == DAVE_STATUS_SUCCESS)
 762              	 .loc 1 405 0
 763 04f0 FB79     	 ldrb r3,[r7,#7]
 764 04f2 002B     	 cmp r3,#0
 765 04f4 04D1     	 bne .L68
 406:../Dave/Generated/DAVE.c ****   {
 407:../Dave/Generated/DAVE.c **** 	 /**  Initialization of I2C_MASTER APP instance I2C_MASTER_1 */
 408:../Dave/Generated/DAVE.c **** 	 init_status = (DAVE_STATUS_t)I2C_MASTER_Init(&I2C_MASTER_1); 
 766              	 .loc 1 408 0
 767 04f6 5648     	 ldr r0,.L88+84
 768 04f8 FFF7FEFF 	 bl I2C_MASTER_Init
 769 04fc 0346     	 mov r3,r0
 770 04fe FB71     	 strb r3,[r7,#7]
 771              	.L68:
 409:../Dave/Generated/DAVE.c ****    } 
 410:../Dave/Generated/DAVE.c ****   if (init_status == DAVE_STATUS_SUCCESS)
 772              	 .loc 1 410 0
 773 0500 FB79     	 ldrb r3,[r7,#7]
 774 0502 002B     	 cmp r3,#0
 775 0504 04D1     	 bne .L69
 411:../Dave/Generated/DAVE.c ****   {
 412:../Dave/Generated/DAVE.c **** 	 /**  Initialization of CAN_NODE APP instance CAN_NODE_0 */
 413:../Dave/Generated/DAVE.c **** 	 init_status = (DAVE_STATUS_t)CAN_NODE_Init(&CAN_NODE_0); 
 776              	 .loc 1 413 0
 777 0506 5348     	 ldr r0,.L88+88
 778 0508 FFF7FEFF 	 bl CAN_NODE_Init
 779 050c 0346     	 mov r3,r0
 780 050e FB71     	 strb r3,[r7,#7]
 781              	.L69:
 414:../Dave/Generated/DAVE.c ****    } 
 415:../Dave/Generated/DAVE.c ****   if (init_status == DAVE_STATUS_SUCCESS)
 782              	 .loc 1 415 0
 783 0510 FB79     	 ldrb r3,[r7,#7]
 784 0512 002B     	 cmp r3,#0
 785 0514 04D1     	 bne .L70
 416:../Dave/Generated/DAVE.c ****   {
 417:../Dave/Generated/DAVE.c **** 	 /**  Initialization of CAN_NODE APP instance CAN_NODE_1 */
 418:../Dave/Generated/DAVE.c **** 	 init_status = (DAVE_STATUS_t)CAN_NODE_Init(&CAN_NODE_1); 
 786              	 .loc 1 418 0
 787 0516 5048     	 ldr r0,.L88+92
 788 0518 FFF7FEFF 	 bl CAN_NODE_Init
 789 051c 0346     	 mov r3,r0
 790 051e FB71     	 strb r3,[r7,#7]
 791              	.L70:
 419:../Dave/Generated/DAVE.c ****    } 
 420:../Dave/Generated/DAVE.c ****   if (init_status == DAVE_STATUS_SUCCESS)
 792              	 .loc 1 420 0
 793 0520 FB79     	 ldrb r3,[r7,#7]
 794 0522 002B     	 cmp r3,#0
 795 0524 04D1     	 bne .L71
 421:../Dave/Generated/DAVE.c ****   {
 422:../Dave/Generated/DAVE.c **** 	 /**  Initialization of TIMER APP instance TIMER_0 */
 423:../Dave/Generated/DAVE.c **** 	 init_status = (DAVE_STATUS_t)TIMER_Init(&TIMER_0); 
 796              	 .loc 1 423 0
 797 0526 4D48     	 ldr r0,.L88+96
 798 0528 FFF7FEFF 	 bl TIMER_Init
 799 052c 0346     	 mov r3,r0
 800 052e FB71     	 strb r3,[r7,#7]
 801              	.L71:
 424:../Dave/Generated/DAVE.c ****    } 
 425:../Dave/Generated/DAVE.c ****   if (init_status == DAVE_STATUS_SUCCESS)
 802              	 .loc 1 425 0
 803 0530 FB79     	 ldrb r3,[r7,#7]
 804 0532 002B     	 cmp r3,#0
 805 0534 04D1     	 bne .L72
 426:../Dave/Generated/DAVE.c ****   {
 427:../Dave/Generated/DAVE.c **** 	 /**  Initialization of WATCHDOG APP instance WATCHDOG_0 */
 428:../Dave/Generated/DAVE.c **** 	 init_status = (DAVE_STATUS_t)WATCHDOG_Init(&WATCHDOG_0); 
 806              	 .loc 1 428 0
 807 0536 4A48     	 ldr r0,.L88+100
 808 0538 FFF7FEFF 	 bl WATCHDOG_Init
 809 053c 0346     	 mov r3,r0
 810 053e FB71     	 strb r3,[r7,#7]
 811              	.L72:
 429:../Dave/Generated/DAVE.c ****    } 
 430:../Dave/Generated/DAVE.c ****   if (init_status == DAVE_STATUS_SUCCESS)
 812              	 .loc 1 430 0
 813 0540 FB79     	 ldrb r3,[r7,#7]
 814 0542 002B     	 cmp r3,#0
 815 0544 04D1     	 bne .L73
 431:../Dave/Generated/DAVE.c ****   {
 432:../Dave/Generated/DAVE.c **** 	 /**  Initialization of TIMER APP instance TIMER_1 */
 433:../Dave/Generated/DAVE.c **** 	 init_status = (DAVE_STATUS_t)TIMER_Init(&TIMER_1); 
 816              	 .loc 1 433 0
 817 0546 4748     	 ldr r0,.L88+104
 818 0548 FFF7FEFF 	 bl TIMER_Init
 819 054c 0346     	 mov r3,r0
 820 054e FB71     	 strb r3,[r7,#7]
 821              	.L73:
 434:../Dave/Generated/DAVE.c ****    } 
 435:../Dave/Generated/DAVE.c ****   if (init_status == DAVE_STATUS_SUCCESS)
 822              	 .loc 1 435 0
 823 0550 FB79     	 ldrb r3,[r7,#7]
 824 0552 002B     	 cmp r3,#0
 825 0554 04D1     	 bne .L74
 436:../Dave/Generated/DAVE.c ****   {
 437:../Dave/Generated/DAVE.c **** 	 /**  Initialization of TIMER APP instance TIMER_2 */
 438:../Dave/Generated/DAVE.c **** 	 init_status = (DAVE_STATUS_t)TIMER_Init(&TIMER_2); 
 826              	 .loc 1 438 0
 827 0556 4448     	 ldr r0,.L88+108
 828 0558 FFF7FEFF 	 bl TIMER_Init
 829 055c 0346     	 mov r3,r0
 830 055e FB71     	 strb r3,[r7,#7]
 831              	.L74:
 439:../Dave/Generated/DAVE.c ****    } 
 440:../Dave/Generated/DAVE.c ****   if (init_status == DAVE_STATUS_SUCCESS)
 832              	 .loc 1 440 0
 833 0560 FB79     	 ldrb r3,[r7,#7]
 834 0562 002B     	 cmp r3,#0
 835 0564 04D1     	 bne .L75
 441:../Dave/Generated/DAVE.c ****   {
 442:../Dave/Generated/DAVE.c **** 	 /**  Initialization of INTERRUPT APP instance INTERRUPT_0 */
 443:../Dave/Generated/DAVE.c **** 	 init_status = (DAVE_STATUS_t)INTERRUPT_Init(&INTERRUPT_0); 
 836              	 .loc 1 443 0
 837 0566 4148     	 ldr r0,.L88+112
 838 0568 FFF7FEFF 	 bl INTERRUPT_Init
 839 056c 0346     	 mov r3,r0
 840 056e FB71     	 strb r3,[r7,#7]
 841              	.L75:
 444:../Dave/Generated/DAVE.c ****    } 
 445:../Dave/Generated/DAVE.c ****   if (init_status == DAVE_STATUS_SUCCESS)
 842              	 .loc 1 445 0
 843 0570 FB79     	 ldrb r3,[r7,#7]
 844 0572 002B     	 cmp r3,#0
 845 0574 04D1     	 bne .L76
 446:../Dave/Generated/DAVE.c ****   {
 447:../Dave/Generated/DAVE.c **** 	 /**  Initialization of UART APP instance UART_0 */
 448:../Dave/Generated/DAVE.c **** 	 init_status = (DAVE_STATUS_t)UART_Init(&UART_0); 
 846              	 .loc 1 448 0
 847 0576 3E48     	 ldr r0,.L88+116
 848 0578 FFF7FEFF 	 bl UART_Init
 849 057c 0346     	 mov r3,r0
 850 057e FB71     	 strb r3,[r7,#7]
 851              	.L76:
 449:../Dave/Generated/DAVE.c ****    } 
 450:../Dave/Generated/DAVE.c ****   if (init_status == DAVE_STATUS_SUCCESS)
 852              	 .loc 1 450 0
 853 0580 FB79     	 ldrb r3,[r7,#7]
 854 0582 002B     	 cmp r3,#0
 855 0584 04D1     	 bne .L77
 451:../Dave/Generated/DAVE.c ****   {
 452:../Dave/Generated/DAVE.c **** 	 /**  Initialization of CAN_NODE APP instance CAN_NODE_2 */
 453:../Dave/Generated/DAVE.c **** 	 init_status = (DAVE_STATUS_t)CAN_NODE_Init(&CAN_NODE_2); 
 856              	 .loc 1 453 0
 857 0586 3B48     	 ldr r0,.L88+120
 858 0588 FFF7FEFF 	 bl CAN_NODE_Init
 859 058c 0346     	 mov r3,r0
 860 058e FB71     	 strb r3,[r7,#7]
 861              	.L77:
 454:../Dave/Generated/DAVE.c ****    } 
 455:../Dave/Generated/DAVE.c ****   if (init_status == DAVE_STATUS_SUCCESS)
 862              	 .loc 1 455 0
 863 0590 FB79     	 ldrb r3,[r7,#7]
 864 0592 002B     	 cmp r3,#0
 865 0594 04D1     	 bne .L78
 456:../Dave/Generated/DAVE.c ****   {
 457:../Dave/Generated/DAVE.c **** 	 /**  Initialization of DIGITAL_IO APP instance CTS */
 458:../Dave/Generated/DAVE.c **** 	 init_status = (DAVE_STATUS_t)DIGITAL_IO_Init(&CTS); 
 866              	 .loc 1 458 0
 867 0596 3848     	 ldr r0,.L88+124
 868 0598 FFF7FEFF 	 bl DIGITAL_IO_Init
 869 059c 0346     	 mov r3,r0
 870 059e FB71     	 strb r3,[r7,#7]
 871              	.L78:
 459:../Dave/Generated/DAVE.c ****    } 
 460:../Dave/Generated/DAVE.c ****   if (init_status == DAVE_STATUS_SUCCESS)
 872              	 .loc 1 460 0
 873 05a0 FB79     	 ldrb r3,[r7,#7]
 874 05a2 002B     	 cmp r3,#0
 875 05a4 04D1     	 bne .L79
 461:../Dave/Generated/DAVE.c ****   {
 462:../Dave/Generated/DAVE.c **** 	 /**  Initialization of DIGITAL_IO APP instance RTS */
 463:../Dave/Generated/DAVE.c **** 	 init_status = (DAVE_STATUS_t)DIGITAL_IO_Init(&RTS); 
 876              	 .loc 1 463 0
 877 05a6 3548     	 ldr r0,.L88+128
 878 05a8 FFF7FEFF 	 bl DIGITAL_IO_Init
 879 05ac 0346     	 mov r3,r0
 880 05ae FB71     	 strb r3,[r7,#7]
 881              	.L79:
 464:../Dave/Generated/DAVE.c ****    } 
 465:../Dave/Generated/DAVE.c ****   if (init_status == DAVE_STATUS_SUCCESS)
 882              	 .loc 1 465 0
 883 05b0 FB79     	 ldrb r3,[r7,#7]
 884 05b2 002B     	 cmp r3,#0
 885 05b4 04D1     	 bne .L80
 466:../Dave/Generated/DAVE.c ****   {
 467:../Dave/Generated/DAVE.c **** 	 /**  Initialization of DIGITAL_IO APP instance DIGITAL_IO_PWRKEY */
 468:../Dave/Generated/DAVE.c **** 	 init_status = (DAVE_STATUS_t)DIGITAL_IO_Init(&DIGITAL_IO_PWRKEY); 
 886              	 .loc 1 468 0
 887 05b6 3248     	 ldr r0,.L88+132
 888 05b8 FFF7FEFF 	 bl DIGITAL_IO_Init
 889 05bc 0346     	 mov r3,r0
 890 05be FB71     	 strb r3,[r7,#7]
 891              	.L80:
 469:../Dave/Generated/DAVE.c ****    } 
 470:../Dave/Generated/DAVE.c ****   if (init_status == DAVE_STATUS_SUCCESS)
 892              	 .loc 1 470 0
 893 05c0 FB79     	 ldrb r3,[r7,#7]
 894 05c2 002B     	 cmp r3,#0
 895 05c4 04D1     	 bne .L81
 471:../Dave/Generated/DAVE.c ****   {
 472:../Dave/Generated/DAVE.c **** 	 /**  Initialization of DIGITAL_IO APP instance MODULE_4G_EN_OUT_D */
 473:../Dave/Generated/DAVE.c **** 	 init_status = (DAVE_STATUS_t)DIGITAL_IO_Init(&MODULE_4G_EN_OUT_D); 
 896              	 .loc 1 473 0
 897 05c6 2F48     	 ldr r0,.L88+136
 898 05c8 FFF7FEFF 	 bl DIGITAL_IO_Init
 899 05cc 0346     	 mov r3,r0
 900 05ce FB71     	 strb r3,[r7,#7]
 901              	.L81:
 474:../Dave/Generated/DAVE.c ****    } 
 475:../Dave/Generated/DAVE.c ****   if (init_status == DAVE_STATUS_SUCCESS)
 902              	 .loc 1 475 0
 903 05d0 FB79     	 ldrb r3,[r7,#7]
 904 05d2 002B     	 cmp r3,#0
 905 05d4 04D1     	 bne .L82
 476:../Dave/Generated/DAVE.c ****   {
 477:../Dave/Generated/DAVE.c **** 	 /**  Initialization of SYSTIMER APP instance SYSTIMER_0 */
 478:../Dave/Generated/DAVE.c **** 	 init_status = (DAVE_STATUS_t)SYSTIMER_Init(&SYSTIMER_0); 
 906              	 .loc 1 478 0
 907 05d6 2C48     	 ldr r0,.L88+140
 908 05d8 FFF7FEFF 	 bl SYSTIMER_Init
 909 05dc 0346     	 mov r3,r0
 910 05de FB71     	 strb r3,[r7,#7]
 911              	.L82:
 479:../Dave/Generated/DAVE.c ****    } 
 480:../Dave/Generated/DAVE.c ****   if (init_status == DAVE_STATUS_SUCCESS)
 912              	 .loc 1 480 0
 913 05e0 FB79     	 ldrb r3,[r7,#7]
 914 05e2 002B     	 cmp r3,#0
 915 05e4 04D1     	 bne .L83
 481:../Dave/Generated/DAVE.c ****   {
 482:../Dave/Generated/DAVE.c **** 	 /**  Initialization of FATFS APP instance FATFS_0 */
 483:../Dave/Generated/DAVE.c **** 	 init_status = (DAVE_STATUS_t)FATFS_Init(&FATFS_0); 
 916              	 .loc 1 483 0
 917 05e6 2948     	 ldr r0,.L88+144
 918 05e8 FFF7FEFF 	 bl FATFS_Init
 919 05ec 0346     	 mov r3,r0
 920 05ee FB71     	 strb r3,[r7,#7]
 921              	.L83:
 484:../Dave/Generated/DAVE.c ****    }  
 485:../Dave/Generated/DAVE.c ****   return init_status;
 922              	 .loc 1 485 0
 923 05f0 FB79     	 ldrb r3,[r7,#7]
 486:../Dave/Generated/DAVE.c **** } /**  End of function DAVE_Init */
 924              	 .loc 1 486 0
 925 05f2 1846     	 mov r0,r3
 926 05f4 0837     	 adds r7,r7,#8
 927              	.LCFI3:
 928              	 .cfi_def_cfa_offset 8
 929 05f6 BD46     	 mov sp,r7
 930              	.LCFI4:
 931              	 .cfi_def_cfa_register 13
 932              	 
 933 05f8 80BD     	 pop {r7,pc}
 934              	.L89:
 935 05fa 00BF     	 .align 2
 936              	.L88:
 937 05fc 00000000 	 .word CABIN_LIGHT_OUT_D
 938 0600 00000000 	 .word ADC2_CS_OUT
 939 0604 00000000 	 .word ADC1_CS_OUT
 940 0608 00000000 	 .word SPEED_SENSOR_IN_D
 941 060c 00000000 	 .word VACUUM_SENSOR_IN_D
 942 0610 00000000 	 .word BRAKE_OIL_IN_D
 943 0614 00000000 	 .word CHARGING_STARTED_IN_D
 944 0618 00000000 	 .word CHARGER_CONNECTED_IN_D
 945 061c 00000000 	 .word IGNI_POS2_IN_D
 946 0620 00000000 	 .word IGNI_POS1_IN_D
 947 0624 00000000 	 .word ACC_PEDAL_SW_IN_D
 948 0628 00000000 	 .word HANDBRAKE_IN_D
 949 062c 00000000 	 .word BRAKE_SW_IN_D
 950 0630 00000000 	 .word DOOR_LOCK_PWR_OUT_D
 951 0634 00000000 	 .word GEAR_SW1_IN_D
 952 0638 00000000 	 .word GEAR_SW2_IN_D
 953 063c 00000000 	 .word GEAR_SW3_IN_D
 954 0640 00000000 	 .word GEAR_SW4_IN_D
 955 0644 00000000 	 .word DIGITAL_IO_5
 956 0648 00000000 	 .word DIGITAL_IO_6
 957 064c 00000000 	 .word I2C_MASTER_0
 958 0650 00000000 	 .word I2C_MASTER_1
 959 0654 00000000 	 .word CAN_NODE_0
 960 0658 00000000 	 .word CAN_NODE_1
 961 065c 00000000 	 .word TIMER_0
 962 0660 00000000 	 .word WATCHDOG_0
 963 0664 00000000 	 .word TIMER_1
 964 0668 00000000 	 .word TIMER_2
 965 066c 00000000 	 .word INTERRUPT_0
 966 0670 00000000 	 .word UART_0
 967 0674 00000000 	 .word CAN_NODE_2
 968 0678 00000000 	 .word CTS
 969 067c 00000000 	 .word RTS
 970 0680 00000000 	 .word DIGITAL_IO_PWRKEY
 971 0684 00000000 	 .word MODULE_4G_EN_OUT_D
 972 0688 00000000 	 .word SYSTIMER_0
 973 068c 00000000 	 .word FATFS_0
 974              	 .cfi_endproc
 975              	.LFE605:
 977              	 .text
 978              	.Letext0:
 979              	 .file 2 "c:\\infineon\\tools\\dave ide\\4.5.0.202105191637\\eclipse\\arm-gcc-49\\arm-none-eabi\\include\\machine\\_default_types.h"
 980              	 .file 3 "c:\\infineon\\tools\\dave ide\\4.5.0.202105191637\\eclipse\\arm-gcc-49\\arm-none-eabi\\include\\stdint.h"
 981              	 .file 4 "D:/Projects/VCU Firmware Main/IRP/Git Repo/VCU14_29bit_overCAN_withIRP_new4g_proto26_adding_All10sec_data/Libraries/CMSIS/Infineon/XMC4700_series/Include/XMC4700.h"
 982              	 .file 5 "D:/Projects/VCU Firmware Main/IRP/Git Repo/VCU14_29bit_overCAN_withIRP_new4g_proto26_adding_All10sec_data/Libraries/XMCLib/inc/xmc_gpio.h"
 983              	 .file 6 "D:/Projects/VCU Firmware Main/IRP/Git Repo/VCU14_29bit_overCAN_withIRP_new4g_proto26_adding_All10sec_data/Libraries/XMCLib/inc/xmc4_gpio.h"
 984              	 .file 7 "../Dave/Generated/DIGITAL_IO/digital_io.h"
 985              	 .file 8 "D:/Projects/VCU Firmware Main/IRP/Git Repo/VCU14_29bit_overCAN_withIRP_new4g_proto26_adding_All10sec_data/Libraries/XMCLib/inc/xmc4_scu.h"
 986              	 .file 9 "../Dave/Generated/CLOCK_XMC4/clock_xmc4.h"
 987              	 .file 10 "D:/Projects/VCU Firmware Main/IRP/Git Repo/VCU14_29bit_overCAN_withIRP_new4g_proto26_adding_All10sec_data/Libraries/XMCLib/inc/xmc_usic.h"
 988              	 .file 11 "D:/Projects/VCU Firmware Main/IRP/Git Repo/VCU14_29bit_overCAN_withIRP_new4g_proto26_adding_All10sec_data/Libraries/XMCLib/inc/xmc_i2c.h"
 989              	 .file 12 "../Dave/Generated/I2C_MASTER/i2c_master.h"
 990              	 .file 13 "D:/Projects/VCU Firmware Main/IRP/Git Repo/VCU14_29bit_overCAN_withIRP_new4g_proto26_adding_All10sec_data/Libraries/XMCLib/inc/xmc_can.h"
 991              	 .file 14 "../Dave/Generated/GLOBAL_CAN/global_can.h"
 992              	 .file 15 "../Dave/Generated/CAN_NODE/can_node.h"
 993              	 .file 16 "D:/Projects/VCU Firmware Main/IRP/Git Repo/VCU14_29bit_overCAN_withIRP_new4g_proto26_adding_All10sec_data/Libraries/XMCLib/inc/xmc_ccu4.h"
 994              	 .file 17 "../Dave/Generated/GLOBAL_CCU4/global_ccu4.h"
 995              	 .file 18 "D:/Projects/VCU Firmware Main/IRP/Git Repo/VCU14_29bit_overCAN_withIRP_new4g_proto26_adding_All10sec_data/Libraries/XMCLib/inc/xmc_ccu8.h"
 996              	 .file 19 "D:/Projects/VCU Firmware Main/IRP/Git Repo/VCU14_29bit_overCAN_withIRP_new4g_proto26_adding_All10sec_data/Dave/Generated/GLOBAL_CCU8/global_ccu8.h"
 997              	 .file 20 "../Dave/Generated/TIMER/timer.h"
 998              	 .file 21 "D:/Projects/VCU Firmware Main/IRP/Git Repo/VCU14_29bit_overCAN_withIRP_new4g_proto26_adding_All10sec_data/Libraries/XMCLib/inc/xmc_wdt.h"
 999              	 .file 22 "../Dave/Generated/WATCHDOG/watchdog.h"
 1000              	 .file 23 "../Dave/Generated/INTERRUPT/interrupt.h"
 1001              	 .file 24 "D:/Projects/VCU Firmware Main/IRP/Git Repo/VCU14_29bit_overCAN_withIRP_new4g_proto26_adding_All10sec_data/Libraries/XMCLib/inc/xmc_uart.h"
 1002              	 .file 25 "../Dave/Generated/UART/uart.h"
 1003              	 .file 26 "../Dave/Generated/SYSTIMER/systimer.h"
 1004              	 .file 27 "D:/Projects/VCU Firmware Main/IRP/Git Repo/VCU14_29bit_overCAN_withIRP_new4g_proto26_adding_All10sec_data/Libraries/XMCLib/inc/xmc_rtc.h"
 1005              	 .file 28 "../Dave/Generated/RTC/rtc.h"
 1006              	 .file 29 "../Dave/Generated/FATFS/fatfs.h"
 1007              	 .file 30 "../Dave/Generated/DAVE.h"
 1008              	 .file 31 "D:/Projects/VCU Firmware Main/IRP/Git Repo/VCU14_29bit_overCAN_withIRP_new4g_proto26_adding_All10sec_data/Libraries/CMSIS/Include/cmsis_gcc.h"
 1009              	 .file 32 "D:/Projects/VCU Firmware Main/IRP/Git Repo/VCU14_29bit_overCAN_withIRP_new4g_proto26_adding_All10sec_data/Libraries/CMSIS/Include/core_cm4.h"
 1010              	 .file 33 "D:/Projects/VCU Firmware Main/IRP/Git Repo/VCU14_29bit_overCAN_withIRP_new4g_proto26_adding_All10sec_data/Libraries/CMSIS/Infineon/XMC4700_series/Include/system_XMC4700.h"
 1011              	 .file 34 "../Dave/Generated/DIGITAL_IO/digital_io_extern.h"
 1012              	 .file 35 "../Dave/Generated/CLOCK_XMC4/clock_xmc4_extern.h"
 1013              	 .file 36 "../Dave/Generated/I2C_MASTER/i2c_master_extern.h"
 1014              	 .file 37 "../Dave/Generated/CAN_NODE/can_node_extern.h"
 1015              	 .file 38 "../Dave/Generated/TIMER/timer_extern.h"
 1016              	 .file 39 "../Dave/Generated/WATCHDOG/watchdog_extern.h"
 1017              	 .file 40 "../Dave/Generated/INTERRUPT/interrupt_extern.h"
 1018              	 .file 41 "../Dave/Generated/UART/uart_extern.h"
 1019              	 .file 42 "../Dave/Generated/SYSTIMER/systimer_extern.h"
 1020              	 .file 43 "../Dave/Generated/FATFS/fatfs_extern.h"