   1              	 .syntax unified
   2              	 .cpu cortex-m4
   3              	 .eabi_attribute 27,3
   4              	 .fpu fpv4-sp-d16
   5              	 .eabi_attribute 20,1
   6              	 .eabi_attribute 21,1
   7              	 .eabi_attribute 23,3
   8              	 .eabi_attribute 24,1
   9              	 .eabi_attribute 25,1
  10              	 .eabi_attribute 26,1
  11              	 .eabi_attribute 30,6
  12              	 .eabi_attribute 34,1
  13              	 .eabi_attribute 18,4
  14              	 .thumb
  15              	 .file "timer_manager.c"
  16              	 .text
  17              	.Ltext0:
  18              	 .cfi_sections .debug_frame
  19              	 .section .bss.timerCount,"aw",%nobits
  20              	 .align 2
  23              	timerCount:
  24 0000 00000000 	 .space 4
  25              	 .section .bss.gu32_resetCounter,"aw",%nobits
  26              	 .align 2
  29              	gu32_resetCounter:
  30 0000 00000000 	 .space 4
  31              	 .section .bss.gu32_4gCounter,"aw",%nobits
  32              	 .align 2
  35              	gu32_4gCounter:
  36 0000 00000000 	 .space 4
  37              	 .section .bss.gu32_10s4gCounter,"aw",%nobits
  38              	 .align 2
  41              	gu32_10s4gCounter:
  42 0000 00000000 	 .space 4
  43              	 .section .bss.gu32_3s4gCounter,"aw",%nobits
  44              	 .align 2
  47              	gu32_3s4gCounter:
  48 0000 00000000 	 .space 4
  49              	 .section .bss.gu32_responseCount,"aw",%nobits
  50              	 .align 2
  53              	gu32_responseCount:
  54 0000 00000000 	 .space 4
  55              	 .section .bss.timerId,"aw",%nobits
  56              	 .align 2
  59              	timerId:
  60 0000 00000000 	 .space 4
  61              	 .section .text.tm_sysTickCallback,"ax",%progbits
  62              	 .align 2
  63              	 .global tm_sysTickCallback
  64              	 .thumb
  65              	 .thumb_func
  67              	tm_sysTickCallback:
  68              	.LFB133:
  69              	 .file 1 "../timer_manager/timer_manager.c"
   1:../timer_manager/timer_manager.c **** /*
   2:../timer_manager/timer_manager.c ****  * timer_manager.c
   3:../timer_manager/timer_manager.c ****  *
   4:../timer_manager/timer_manager.c ****  *  Created on: 03-Apr-2024
   5:../timer_manager/timer_manager.c ****  *      Author: Kirankumar_Chincholi
   6:../timer_manager/timer_manager.c ****  */
   7:../timer_manager/timer_manager.c **** 
   8:../timer_manager/timer_manager.c **** #include "timer_manager.h"
   9:../timer_manager/timer_manager.c **** static volatile uint32_t timerCount = 0;
  10:../timer_manager/timer_manager.c **** static volatile uint32_t gu32_resetCounter = 0;
  11:../timer_manager/timer_manager.c **** static volatile uint32_t gu32_4gCounter = 0;
  12:../timer_manager/timer_manager.c **** static volatile uint32_t gu32_10s4gCounter = 0;
  13:../timer_manager/timer_manager.c **** static volatile uint32_t gu32_3s4gCounter = 0;
  14:../timer_manager/timer_manager.c **** static volatile uint32_t gu32_responseCount = 0;
  15:../timer_manager/timer_manager.c **** static uint32_t timerId;
  16:../timer_manager/timer_manager.c **** 
  17:../timer_manager/timer_manager.c **** /**************************************************************************
  18:../timer_manager/timer_manager.c ****  * Function Name	:	tm_sysTickCallback
  19:../timer_manager/timer_manager.c ****  *
  20:../timer_manager/timer_manager.c ****  * Description   	:	This is a system tick call back function
  21:../timer_manager/timer_manager.c ****  *
  22:../timer_manager/timer_manager.c ****  * Arguments     	:	void
  23:../timer_manager/timer_manager.c ****  *
  24:../timer_manager/timer_manager.c ****  * Return values 	:	void
  25:../timer_manager/timer_manager.c ****  *
  26:../timer_manager/timer_manager.c ****  ****************************************************************************/
  27:../timer_manager/timer_manager.c **** void tm_sysTickCallback(void)
  28:../timer_manager/timer_manager.c **** {
  70              	 .loc 1 28 0
  71              	 .cfi_startproc
  72              	 
  73              	 
  74              	 
  75 0000 80B4     	 push {r7}
  76              	.LCFI0:
  77              	 .cfi_def_cfa_offset 4
  78              	 .cfi_offset 7,-4
  79 0002 00AF     	 add r7,sp,#0
  80              	.LCFI1:
  81              	 .cfi_def_cfa_register 7
  29:../timer_manager/timer_manager.c **** 	timerCount++;
  82              	 .loc 1 29 0
  83 0004 1A4B     	 ldr r3,.L7
  84 0006 1B68     	 ldr r3,[r3]
  85 0008 0133     	 adds r3,r3,#1
  86 000a 194A     	 ldr r2,.L7
  87 000c 1360     	 str r3,[r2]
  30:../timer_manager/timer_manager.c **** 
  31:../timer_manager/timer_manager.c **** 	if(gu32_responseCount > 0)
  88              	 .loc 1 31 0
  89 000e 194B     	 ldr r3,.L7+4
  90 0010 1B68     	 ldr r3,[r3]
  91 0012 002B     	 cmp r3,#0
  92 0014 04D0     	 beq .L2
  32:../timer_manager/timer_manager.c **** 	{
  33:../timer_manager/timer_manager.c **** 		gu32_responseCount--;
  93              	 .loc 1 33 0
  94 0016 174B     	 ldr r3,.L7+4
  95 0018 1B68     	 ldr r3,[r3]
  96 001a 013B     	 subs r3,r3,#1
  97 001c 154A     	 ldr r2,.L7+4
  98 001e 1360     	 str r3,[r2]
  99              	.L2:
  34:../timer_manager/timer_manager.c **** 	}
  35:../timer_manager/timer_manager.c **** 	if(gu32_resetCounter > 0)
 100              	 .loc 1 35 0
 101 0020 154B     	 ldr r3,.L7+8
 102 0022 1B68     	 ldr r3,[r3]
 103 0024 002B     	 cmp r3,#0
 104 0026 04D0     	 beq .L3
  36:../timer_manager/timer_manager.c **** 	{
  37:../timer_manager/timer_manager.c **** 		gu32_resetCounter--;
 105              	 .loc 1 37 0
 106 0028 134B     	 ldr r3,.L7+8
 107 002a 1B68     	 ldr r3,[r3]
 108 002c 013B     	 subs r3,r3,#1
 109 002e 124A     	 ldr r2,.L7+8
 110 0030 1360     	 str r3,[r2]
 111              	.L3:
  38:../timer_manager/timer_manager.c **** 	}
  39:../timer_manager/timer_manager.c **** 
  40:../timer_manager/timer_manager.c **** 	if(gu32_4gCounter > 0)
 112              	 .loc 1 40 0
 113 0032 124B     	 ldr r3,.L7+12
 114 0034 1B68     	 ldr r3,[r3]
 115 0036 002B     	 cmp r3,#0
 116 0038 04D0     	 beq .L4
  41:../timer_manager/timer_manager.c **** 	{
  42:../timer_manager/timer_manager.c **** 		gu32_4gCounter--;
 117              	 .loc 1 42 0
 118 003a 104B     	 ldr r3,.L7+12
 119 003c 1B68     	 ldr r3,[r3]
 120 003e 013B     	 subs r3,r3,#1
 121 0040 0E4A     	 ldr r2,.L7+12
 122 0042 1360     	 str r3,[r2]
 123              	.L4:
  43:../timer_manager/timer_manager.c **** 	}
  44:../timer_manager/timer_manager.c **** 
  45:../timer_manager/timer_manager.c **** 	if(gu32_10s4gCounter > 0)
 124              	 .loc 1 45 0
 125 0044 0E4B     	 ldr r3,.L7+16
 126 0046 1B68     	 ldr r3,[r3]
 127 0048 002B     	 cmp r3,#0
 128 004a 04D0     	 beq .L5
  46:../timer_manager/timer_manager.c **** 	{
  47:../timer_manager/timer_manager.c **** 		gu32_10s4gCounter--;
 129              	 .loc 1 47 0
 130 004c 0C4B     	 ldr r3,.L7+16
 131 004e 1B68     	 ldr r3,[r3]
 132 0050 013B     	 subs r3,r3,#1
 133 0052 0B4A     	 ldr r2,.L7+16
 134 0054 1360     	 str r3,[r2]
 135              	.L5:
  48:../timer_manager/timer_manager.c **** 	}
  49:../timer_manager/timer_manager.c **** 
  50:../timer_manager/timer_manager.c **** 	if(gu32_3s4gCounter > 0)
 136              	 .loc 1 50 0
 137 0056 0B4B     	 ldr r3,.L7+20
 138 0058 1B68     	 ldr r3,[r3]
 139 005a 002B     	 cmp r3,#0
 140 005c 04D0     	 beq .L1
  51:../timer_manager/timer_manager.c **** 	{
  52:../timer_manager/timer_manager.c **** 		gu32_3s4gCounter--;
 141              	 .loc 1 52 0
 142 005e 094B     	 ldr r3,.L7+20
 143 0060 1B68     	 ldr r3,[r3]
 144 0062 013B     	 subs r3,r3,#1
 145 0064 074A     	 ldr r2,.L7+20
 146 0066 1360     	 str r3,[r2]
 147              	.L1:
  53:../timer_manager/timer_manager.c **** 	}
  54:../timer_manager/timer_manager.c **** }
 148              	 .loc 1 54 0
 149 0068 BD46     	 mov sp,r7
 150              	.LCFI2:
 151              	 .cfi_def_cfa_register 13
 152              	 
 153 006a 5DF8047B 	 ldr r7,[sp],#4
 154              	.LCFI3:
 155              	 .cfi_restore 7
 156              	 .cfi_def_cfa_offset 0
 157 006e 7047     	 bx lr
 158              	.L8:
 159              	 .align 2
 160              	.L7:
 161 0070 00000000 	 .word timerCount
 162 0074 00000000 	 .word gu32_responseCount
 163 0078 00000000 	 .word gu32_resetCounter
 164 007c 00000000 	 .word gu32_4gCounter
 165 0080 00000000 	 .word gu32_10s4gCounter
 166 0084 00000000 	 .word gu32_3s4gCounter
 167              	 .cfi_endproc
 168              	.LFE133:
 170              	 .section .text.tm_setTimerCount,"ax",%progbits
 171              	 .align 2
 172              	 .global tm_setTimerCount
 173              	 .thumb
 174              	 .thumb_func
 176              	tm_setTimerCount:
 177              	.LFB134:
  55:../timer_manager/timer_manager.c **** 
  56:../timer_manager/timer_manager.c **** /**************************************************************************
  57:../timer_manager/timer_manager.c ****  * Function Name	:	tm_setTimerCount
  58:../timer_manager/timer_manager.c ****  *
  59:../timer_manager/timer_manager.c ****  * Description   	:	This function used to sets the timer count value
  60:../timer_manager/timer_manager.c ****  *
  61:../timer_manager/timer_manager.c ****  * Arguments     	:	uint32_t - timer value
  62:../timer_manager/timer_manager.c ****  *
  63:../timer_manager/timer_manager.c ****  * Return values 	:	en_responseRetCodes_t - return status
  64:../timer_manager/timer_manager.c ****  *
  65:../timer_manager/timer_manager.c ****  ****************************************************************************/
  66:../timer_manager/timer_manager.c **** en_responseRetCodes_t tm_setTimerCount(uint32_t timerValue)
  67:../timer_manager/timer_manager.c **** {
 178              	 .loc 1 67 0
 179              	 .cfi_startproc
 180              	 
 181              	 
 182 0000 80B5     	 push {r7,lr}
 183              	.LCFI4:
 184              	 .cfi_def_cfa_offset 8
 185              	 .cfi_offset 7,-8
 186              	 .cfi_offset 14,-4
 187 0002 84B0     	 sub sp,sp,#16
 188              	.LCFI5:
 189              	 .cfi_def_cfa_offset 24
 190 0004 00AF     	 add r7,sp,#0
 191              	.LCFI6:
 192              	 .cfi_def_cfa_register 7
 193 0006 7860     	 str r0,[r7,#4]
  68:../timer_manager/timer_manager.c **** 	en_responseRetCodes_t len_retStatus;
  69:../timer_manager/timer_manager.c **** 	//uint32_t tempTimerValue = timerValue * TM_1MS_TIMER_VAL;
  70:../timer_manager/timer_manager.c **** 
  71:../timer_manager/timer_manager.c **** 	timerId = (uint32_t) SYSTIMER_CreateTimer(timerValue,
 194              	 .loc 1 71 0
 195 0008 7868     	 ldr r0,[r7,#4]
 196 000a 0121     	 movs r1,#1
 197 000c 0A4A     	 ldr r2,.L13
 198 000e 0023     	 movs r3,#0
 199 0010 FFF7FEFF 	 bl SYSTIMER_CreateTimer
 200 0014 0246     	 mov r2,r0
 201 0016 094B     	 ldr r3,.L13+4
 202 0018 1A60     	 str r2,[r3]
  72:../timer_manager/timer_manager.c **** 			SYSTIMER_MODE_PERIODIC, (void*) tm_sysTickCallback, NULL);
  73:../timer_manager/timer_manager.c **** 
  74:../timer_manager/timer_manager.c **** 	if (0U != timerId)
 203              	 .loc 1 74 0
 204 001a 084B     	 ldr r3,.L13+4
 205 001c 1B68     	 ldr r3,[r3]
 206 001e 002B     	 cmp r3,#0
 207 0020 02D0     	 beq .L10
  75:../timer_manager/timer_manager.c **** 	{
  76:../timer_manager/timer_manager.c **** 		len_retStatus = E_RET_SUCCESS;
 208              	 .loc 1 76 0
 209 0022 0023     	 movs r3,#0
 210 0024 FB73     	 strb r3,[r7,#15]
 211 0026 01E0     	 b .L11
 212              	.L10:
  77:../timer_manager/timer_manager.c **** 	}
  78:../timer_manager/timer_manager.c **** 	else
  79:../timer_manager/timer_manager.c **** 	{
  80:../timer_manager/timer_manager.c **** 		len_retStatus = E_RET_TIMER_ERROR;
 213              	 .loc 1 80 0
 214 0028 0723     	 movs r3,#7
 215 002a FB73     	 strb r3,[r7,#15]
 216              	.L11:
  81:../timer_manager/timer_manager.c **** 	}
  82:../timer_manager/timer_manager.c **** 
  83:../timer_manager/timer_manager.c **** 	return len_retStatus;
 217              	 .loc 1 83 0
 218 002c FB7B     	 ldrb r3,[r7,#15]
  84:../timer_manager/timer_manager.c **** }
 219              	 .loc 1 84 0
 220 002e 1846     	 mov r0,r3
 221 0030 1037     	 adds r7,r7,#16
 222              	.LCFI7:
 223              	 .cfi_def_cfa_offset 8
 224 0032 BD46     	 mov sp,r7
 225              	.LCFI8:
 226              	 .cfi_def_cfa_register 13
 227              	 
 228 0034 80BD     	 pop {r7,pc}
 229              	.L14:
 230 0036 00BF     	 .align 2
 231              	.L13:
 232 0038 00000000 	 .word tm_sysTickCallback
 233 003c 00000000 	 .word timerId
 234              	 .cfi_endproc
 235              	.LFE134:
 237              	 .section .text.tm_startTimer,"ax",%progbits
 238              	 .align 2
 239              	 .global tm_startTimer
 240              	 .thumb
 241              	 .thumb_func
 243              	tm_startTimer:
 244              	.LFB135:
  85:../timer_manager/timer_manager.c **** 
  86:../timer_manager/timer_manager.c **** /**************************************************************************
  87:../timer_manager/timer_manager.c ****  * Function Name	:	tm_startTimer
  88:../timer_manager/timer_manager.c ****  *
  89:../timer_manager/timer_manager.c ****  * Description   	:	This function used to starts the timer
  90:../timer_manager/timer_manager.c ****  *
  91:../timer_manager/timer_manager.c ****  * Arguments     	:	void
  92:../timer_manager/timer_manager.c ****  *
  93:../timer_manager/timer_manager.c ****  * Return values 	:	en_responseRetCodes_t - return status
  94:../timer_manager/timer_manager.c ****  *
  95:../timer_manager/timer_manager.c ****  ****************************************************************************/
  96:../timer_manager/timer_manager.c **** en_responseRetCodes_t tm_startTimer()
  97:../timer_manager/timer_manager.c **** {
 245              	 .loc 1 97 0
 246              	 .cfi_startproc
 247              	 
 248              	 
 249 0000 80B5     	 push {r7,lr}
 250              	.LCFI9:
 251              	 .cfi_def_cfa_offset 8
 252              	 .cfi_offset 7,-8
 253              	 .cfi_offset 14,-4
 254 0002 82B0     	 sub sp,sp,#8
 255              	.LCFI10:
 256              	 .cfi_def_cfa_offset 16
 257 0004 00AF     	 add r7,sp,#0
 258              	.LCFI11:
 259              	 .cfi_def_cfa_register 7
  98:../timer_manager/timer_manager.c **** 	en_responseRetCodes_t len_retStatus;
  99:../timer_manager/timer_manager.c **** 	SYSTIMER_STATUS_t timerStatus;
 100:../timer_manager/timer_manager.c **** 
 101:../timer_manager/timer_manager.c **** 	if (timerId != 0)
 260              	 .loc 1 101 0
 261 0006 0D4B     	 ldr r3,.L21
 262 0008 1B68     	 ldr r3,[r3]
 263 000a 002B     	 cmp r3,#0
 264 000c 0FD0     	 beq .L16
 102:../timer_manager/timer_manager.c **** 	{
 103:../timer_manager/timer_manager.c **** 		timerStatus = SYSTIMER_StartTimer(timerId);
 265              	 .loc 1 103 0
 266 000e 0B4B     	 ldr r3,.L21
 267 0010 1B68     	 ldr r3,[r3]
 268 0012 1846     	 mov r0,r3
 269 0014 FFF7FEFF 	 bl SYSTIMER_StartTimer
 270 0018 0346     	 mov r3,r0
 271 001a BB71     	 strb r3,[r7,#6]
 104:../timer_manager/timer_manager.c **** 		if (SYSTIMER_STATUS_SUCCESS == timerStatus)
 272              	 .loc 1 104 0
 273 001c BB79     	 ldrb r3,[r7,#6]
 274 001e 002B     	 cmp r3,#0
 275 0020 02D1     	 bne .L17
 105:../timer_manager/timer_manager.c **** 		{
 106:../timer_manager/timer_manager.c **** 			len_retStatus = E_RET_SUCCESS;
 276              	 .loc 1 106 0
 277 0022 0023     	 movs r3,#0
 278 0024 FB71     	 strb r3,[r7,#7]
 279 0026 04E0     	 b .L19
 280              	.L17:
 107:../timer_manager/timer_manager.c **** 		}
 108:../timer_manager/timer_manager.c **** 		else
 109:../timer_manager/timer_manager.c **** 		{
 110:../timer_manager/timer_manager.c **** 			len_retStatus = E_RET_TIMER_ERROR;
 281              	 .loc 1 110 0
 282 0028 0723     	 movs r3,#7
 283 002a FB71     	 strb r3,[r7,#7]
 284 002c 01E0     	 b .L19
 285              	.L16:
 111:../timer_manager/timer_manager.c **** 		}
 112:../timer_manager/timer_manager.c **** 	}
 113:../timer_manager/timer_manager.c **** 	else
 114:../timer_manager/timer_manager.c **** 	{
 115:../timer_manager/timer_manager.c **** 		len_retStatus = E_RET_TIMER_ID_ZERO_ERROR;
 286              	 .loc 1 115 0
 287 002e 0823     	 movs r3,#8
 288 0030 FB71     	 strb r3,[r7,#7]
 289              	.L19:
 116:../timer_manager/timer_manager.c **** 	}
 117:../timer_manager/timer_manager.c **** 
 118:../timer_manager/timer_manager.c **** 	return len_retStatus;
 290              	 .loc 1 118 0
 291 0032 FB79     	 ldrb r3,[r7,#7]
 119:../timer_manager/timer_manager.c **** }
 292              	 .loc 1 119 0
 293 0034 1846     	 mov r0,r3
 294 0036 0837     	 adds r7,r7,#8
 295              	.LCFI12:
 296              	 .cfi_def_cfa_offset 8
 297 0038 BD46     	 mov sp,r7
 298              	.LCFI13:
 299              	 .cfi_def_cfa_register 13
 300              	 
 301 003a 80BD     	 pop {r7,pc}
 302              	.L22:
 303              	 .align 2
 304              	.L21:
 305 003c 00000000 	 .word timerId
 306              	 .cfi_endproc
 307              	.LFE135:
 309              	 .section .text.tm_stopTimer,"ax",%progbits
 310              	 .align 2
 311              	 .global tm_stopTimer
 312              	 .thumb
 313              	 .thumb_func
 315              	tm_stopTimer:
 316              	.LFB136:
 120:../timer_manager/timer_manager.c **** 
 121:../timer_manager/timer_manager.c **** /**************************************************************************
 122:../timer_manager/timer_manager.c ****  * Function Name	:	tm_stopTimer
 123:../timer_manager/timer_manager.c ****  *
 124:../timer_manager/timer_manager.c ****  * Description   	:	This function used to stop the timer
 125:../timer_manager/timer_manager.c ****  *
 126:../timer_manager/timer_manager.c ****  * Arguments     	:	void
 127:../timer_manager/timer_manager.c ****  *
 128:../timer_manager/timer_manager.c ****  * Return values 	:	en_responseRetCodes_t - return status
 129:../timer_manager/timer_manager.c ****  *
 130:../timer_manager/timer_manager.c ****  ****************************************************************************/
 131:../timer_manager/timer_manager.c **** en_responseRetCodes_t tm_stopTimer()
 132:../timer_manager/timer_manager.c **** {
 317              	 .loc 1 132 0
 318              	 .cfi_startproc
 319              	 
 320              	 
 321 0000 80B5     	 push {r7,lr}
 322              	.LCFI14:
 323              	 .cfi_def_cfa_offset 8
 324              	 .cfi_offset 7,-8
 325              	 .cfi_offset 14,-4
 326 0002 82B0     	 sub sp,sp,#8
 327              	.LCFI15:
 328              	 .cfi_def_cfa_offset 16
 329 0004 00AF     	 add r7,sp,#0
 330              	.LCFI16:
 331              	 .cfi_def_cfa_register 7
 133:../timer_manager/timer_manager.c **** 	en_responseRetCodes_t len_retStatus;
 134:../timer_manager/timer_manager.c **** 	SYSTIMER_STATUS_t timerStatus;
 135:../timer_manager/timer_manager.c **** 
 136:../timer_manager/timer_manager.c **** 	if (timerId != 0)
 332              	 .loc 1 136 0
 333 0006 0D4B     	 ldr r3,.L29
 334 0008 1B68     	 ldr r3,[r3]
 335 000a 002B     	 cmp r3,#0
 336 000c 0FD0     	 beq .L24
 137:../timer_manager/timer_manager.c **** 	{
 138:../timer_manager/timer_manager.c **** 		timerStatus = SYSTIMER_StopTimer(timerId);
 337              	 .loc 1 138 0
 338 000e 0B4B     	 ldr r3,.L29
 339 0010 1B68     	 ldr r3,[r3]
 340 0012 1846     	 mov r0,r3
 341 0014 FFF7FEFF 	 bl SYSTIMER_StopTimer
 342 0018 0346     	 mov r3,r0
 343 001a BB71     	 strb r3,[r7,#6]
 139:../timer_manager/timer_manager.c **** 		if (SYSTIMER_STATUS_SUCCESS == timerStatus)
 344              	 .loc 1 139 0
 345 001c BB79     	 ldrb r3,[r7,#6]
 346 001e 002B     	 cmp r3,#0
 347 0020 02D1     	 bne .L25
 140:../timer_manager/timer_manager.c **** 		{
 141:../timer_manager/timer_manager.c **** 			len_retStatus = E_RET_SUCCESS;
 348              	 .loc 1 141 0
 349 0022 0023     	 movs r3,#0
 350 0024 FB71     	 strb r3,[r7,#7]
 351 0026 04E0     	 b .L27
 352              	.L25:
 142:../timer_manager/timer_manager.c **** 		}
 143:../timer_manager/timer_manager.c **** 		else
 144:../timer_manager/timer_manager.c **** 		{
 145:../timer_manager/timer_manager.c **** 			len_retStatus = E_RET_TIMER_ERROR;
 353              	 .loc 1 145 0
 354 0028 0723     	 movs r3,#7
 355 002a FB71     	 strb r3,[r7,#7]
 356 002c 01E0     	 b .L27
 357              	.L24:
 146:../timer_manager/timer_manager.c **** 		}
 147:../timer_manager/timer_manager.c **** 	}
 148:../timer_manager/timer_manager.c **** 	else
 149:../timer_manager/timer_manager.c **** 	{
 150:../timer_manager/timer_manager.c **** 		len_retStatus = E_RET_TIMER_ID_ZERO_ERROR;
 358              	 .loc 1 150 0
 359 002e 0823     	 movs r3,#8
 360 0030 FB71     	 strb r3,[r7,#7]
 361              	.L27:
 151:../timer_manager/timer_manager.c **** 	}
 152:../timer_manager/timer_manager.c **** 
 153:../timer_manager/timer_manager.c **** 	return len_retStatus;
 362              	 .loc 1 153 0
 363 0032 FB79     	 ldrb r3,[r7,#7]
 154:../timer_manager/timer_manager.c **** }
 364              	 .loc 1 154 0
 365 0034 1846     	 mov r0,r3
 366 0036 0837     	 adds r7,r7,#8
 367              	.LCFI17:
 368              	 .cfi_def_cfa_offset 8
 369 0038 BD46     	 mov sp,r7
 370              	.LCFI18:
 371              	 .cfi_def_cfa_register 13
 372              	 
 373 003a 80BD     	 pop {r7,pc}
 374              	.L30:
 375              	 .align 2
 376              	.L29:
 377 003c 00000000 	 .word timerId
 378              	 .cfi_endproc
 379              	.LFE136:
 381              	 .section .text.tm_getTimerCount,"ax",%progbits
 382              	 .align 2
 383              	 .global tm_getTimerCount
 384              	 .thumb
 385              	 .thumb_func
 387              	tm_getTimerCount:
 388              	.LFB137:
 155:../timer_manager/timer_manager.c **** 
 156:../timer_manager/timer_manager.c **** /**************************************************************************
 157:../timer_manager/timer_manager.c ****  * Function Name	:	tm_getTimerCount
 158:../timer_manager/timer_manager.c ****  *
 159:../timer_manager/timer_manager.c ****  * Description   	:	This function used to get the timer count value
 160:../timer_manager/timer_manager.c ****  *
 161:../timer_manager/timer_manager.c ****  * Arguments     	:	void
 162:../timer_manager/timer_manager.c ****  *
 163:../timer_manager/timer_manager.c ****  * Return values 	:	uint32_t - timer count value
 164:../timer_manager/timer_manager.c ****  *
 165:../timer_manager/timer_manager.c ****  ****************************************************************************/
 166:../timer_manager/timer_manager.c **** uint32_t tm_getTimerCount()
 167:../timer_manager/timer_manager.c **** {
 389              	 .loc 1 167 0
 390              	 .cfi_startproc
 391              	 
 392              	 
 393              	 
 394 0000 80B4     	 push {r7}
 395              	.LCFI19:
 396              	 .cfi_def_cfa_offset 4
 397              	 .cfi_offset 7,-4
 398 0002 00AF     	 add r7,sp,#0
 399              	.LCFI20:
 400              	 .cfi_def_cfa_register 7
 168:../timer_manager/timer_manager.c **** 	return timerCount;
 401              	 .loc 1 168 0
 402 0004 034B     	 ldr r3,.L33
 403 0006 1B68     	 ldr r3,[r3]
 169:../timer_manager/timer_manager.c **** }
 404              	 .loc 1 169 0
 405 0008 1846     	 mov r0,r3
 406 000a BD46     	 mov sp,r7
 407              	.LCFI21:
 408              	 .cfi_def_cfa_register 13
 409              	 
 410 000c 5DF8047B 	 ldr r7,[sp],#4
 411              	.LCFI22:
 412              	 .cfi_restore 7
 413              	 .cfi_def_cfa_offset 0
 414 0010 7047     	 bx lr
 415              	.L34:
 416 0012 00BF     	 .align 2
 417              	.L33:
 418 0014 00000000 	 .word timerCount
 419              	 .cfi_endproc
 420              	.LFE137:
 422              	 .section .text.tm_clearTimerCount,"ax",%progbits
 423              	 .align 2
 424              	 .global tm_clearTimerCount
 425              	 .thumb
 426              	 .thumb_func
 428              	tm_clearTimerCount:
 429              	.LFB138:
 170:../timer_manager/timer_manager.c **** 
 171:../timer_manager/timer_manager.c **** /**************************************************************************
 172:../timer_manager/timer_manager.c ****  * Function Name	:	tm_clearTimerCount
 173:../timer_manager/timer_manager.c ****  *
 174:../timer_manager/timer_manager.c ****  * Description   	:	This function used to clear the timer count
 175:../timer_manager/timer_manager.c ****  *
 176:../timer_manager/timer_manager.c ****  * Arguments     	:	void
 177:../timer_manager/timer_manager.c ****  *
 178:../timer_manager/timer_manager.c ****  * Return values 	:	void
 179:../timer_manager/timer_manager.c ****  *
 180:../timer_manager/timer_manager.c ****  ****************************************************************************/
 181:../timer_manager/timer_manager.c **** void tm_clearTimerCount()
 182:../timer_manager/timer_manager.c **** {
 430              	 .loc 1 182 0
 431              	 .cfi_startproc
 432              	 
 433              	 
 434              	 
 435 0000 80B4     	 push {r7}
 436              	.LCFI23:
 437              	 .cfi_def_cfa_offset 4
 438              	 .cfi_offset 7,-4
 439 0002 00AF     	 add r7,sp,#0
 440              	.LCFI24:
 441              	 .cfi_def_cfa_register 7
 183:../timer_manager/timer_manager.c **** 	timerCount = 0;
 442              	 .loc 1 183 0
 443 0004 034B     	 ldr r3,.L36
 444 0006 0022     	 movs r2,#0
 445 0008 1A60     	 str r2,[r3]
 184:../timer_manager/timer_manager.c **** }
 446              	 .loc 1 184 0
 447 000a BD46     	 mov sp,r7
 448              	.LCFI25:
 449              	 .cfi_def_cfa_register 13
 450              	 
 451 000c 5DF8047B 	 ldr r7,[sp],#4
 452              	.LCFI26:
 453              	 .cfi_restore 7
 454              	 .cfi_def_cfa_offset 0
 455 0010 7047     	 bx lr
 456              	.L37:
 457 0012 00BF     	 .align 2
 458              	.L36:
 459 0014 00000000 	 .word timerCount
 460              	 .cfi_endproc
 461              	.LFE138:
 463              	 .section .text.tm_setResetTimer,"ax",%progbits
 464              	 .align 2
 465              	 .global tm_setResetTimer
 466              	 .thumb
 467              	 .thumb_func
 469              	tm_setResetTimer:
 470              	.LFB139:
 185:../timer_manager/timer_manager.c **** 
 186:../timer_manager/timer_manager.c **** void tm_setResetTimer(uint32_t lu32_timeInMs)
 187:../timer_manager/timer_manager.c **** {
 471              	 .loc 1 187 0
 472              	 .cfi_startproc
 473              	 
 474              	 
 475              	 
 476 0000 80B4     	 push {r7}
 477              	.LCFI27:
 478              	 .cfi_def_cfa_offset 4
 479              	 .cfi_offset 7,-4
 480 0002 83B0     	 sub sp,sp,#12
 481              	.LCFI28:
 482              	 .cfi_def_cfa_offset 16
 483 0004 00AF     	 add r7,sp,#0
 484              	.LCFI29:
 485              	 .cfi_def_cfa_register 7
 486 0006 7860     	 str r0,[r7,#4]
 188:../timer_manager/timer_manager.c **** 	gu32_resetCounter = lu32_timeInMs;
 487              	 .loc 1 188 0
 488 0008 034A     	 ldr r2,.L39
 489 000a 7B68     	 ldr r3,[r7,#4]
 490 000c 1360     	 str r3,[r2]
 189:../timer_manager/timer_manager.c **** }
 491              	 .loc 1 189 0
 492 000e 0C37     	 adds r7,r7,#12
 493              	.LCFI30:
 494              	 .cfi_def_cfa_offset 4
 495 0010 BD46     	 mov sp,r7
 496              	.LCFI31:
 497              	 .cfi_def_cfa_register 13
 498              	 
 499 0012 5DF8047B 	 ldr r7,[sp],#4
 500              	.LCFI32:
 501              	 .cfi_restore 7
 502              	 .cfi_def_cfa_offset 0
 503 0016 7047     	 bx lr
 504              	.L40:
 505              	 .align 2
 506              	.L39:
 507 0018 00000000 	 .word gu32_resetCounter
 508              	 .cfi_endproc
 509              	.LFE139:
 511              	 .section .text.tm_getResetTimerValue,"ax",%progbits
 512              	 .align 2
 513              	 .global tm_getResetTimerValue
 514              	 .thumb
 515              	 .thumb_func
 517              	tm_getResetTimerValue:
 518              	.LFB140:
 190:../timer_manager/timer_manager.c **** 
 191:../timer_manager/timer_manager.c **** uint32_t tm_getResetTimerValue()
 192:../timer_manager/timer_manager.c **** {
 519              	 .loc 1 192 0
 520              	 .cfi_startproc
 521              	 
 522              	 
 523              	 
 524 0000 80B4     	 push {r7}
 525              	.LCFI33:
 526              	 .cfi_def_cfa_offset 4
 527              	 .cfi_offset 7,-4
 528 0002 00AF     	 add r7,sp,#0
 529              	.LCFI34:
 530              	 .cfi_def_cfa_register 7
 193:../timer_manager/timer_manager.c **** 	return gu32_resetCounter;
 531              	 .loc 1 193 0
 532 0004 034B     	 ldr r3,.L43
 533 0006 1B68     	 ldr r3,[r3]
 194:../timer_manager/timer_manager.c **** }
 534              	 .loc 1 194 0
 535 0008 1846     	 mov r0,r3
 536 000a BD46     	 mov sp,r7
 537              	.LCFI35:
 538              	 .cfi_def_cfa_register 13
 539              	 
 540 000c 5DF8047B 	 ldr r7,[sp],#4
 541              	.LCFI36:
 542              	 .cfi_restore 7
 543              	 .cfi_def_cfa_offset 0
 544 0010 7047     	 bx lr
 545              	.L44:
 546 0012 00BF     	 .align 2
 547              	.L43:
 548 0014 00000000 	 .word gu32_resetCounter
 549              	 .cfi_endproc
 550              	.LFE140:
 552              	 .section .text.tm_set10s4gRunTimer,"ax",%progbits
 553              	 .align 2
 554              	 .global tm_set10s4gRunTimer
 555              	 .thumb
 556              	 .thumb_func
 558              	tm_set10s4gRunTimer:
 559              	.LFB141:
 195:../timer_manager/timer_manager.c **** 
 196:../timer_manager/timer_manager.c **** void tm_set10s4gRunTimer(uint32_t lu32_timeInMs)
 197:../timer_manager/timer_manager.c **** {
 560              	 .loc 1 197 0
 561              	 .cfi_startproc
 562              	 
 563              	 
 564              	 
 565 0000 80B4     	 push {r7}
 566              	.LCFI37:
 567              	 .cfi_def_cfa_offset 4
 568              	 .cfi_offset 7,-4
 569 0002 83B0     	 sub sp,sp,#12
 570              	.LCFI38:
 571              	 .cfi_def_cfa_offset 16
 572 0004 00AF     	 add r7,sp,#0
 573              	.LCFI39:
 574              	 .cfi_def_cfa_register 7
 575 0006 7860     	 str r0,[r7,#4]
 198:../timer_manager/timer_manager.c **** 	gu32_10s4gCounter = lu32_timeInMs;
 576              	 .loc 1 198 0
 577 0008 034A     	 ldr r2,.L46
 578 000a 7B68     	 ldr r3,[r7,#4]
 579 000c 1360     	 str r3,[r2]
 199:../timer_manager/timer_manager.c **** }
 580              	 .loc 1 199 0
 581 000e 0C37     	 adds r7,r7,#12
 582              	.LCFI40:
 583              	 .cfi_def_cfa_offset 4
 584 0010 BD46     	 mov sp,r7
 585              	.LCFI41:
 586              	 .cfi_def_cfa_register 13
 587              	 
 588 0012 5DF8047B 	 ldr r7,[sp],#4
 589              	.LCFI42:
 590              	 .cfi_restore 7
 591              	 .cfi_def_cfa_offset 0
 592 0016 7047     	 bx lr
 593              	.L47:
 594              	 .align 2
 595              	.L46:
 596 0018 00000000 	 .word gu32_10s4gCounter
 597              	 .cfi_endproc
 598              	.LFE141:
 600              	 .section .text.tm_get10s4gRunTimerValue,"ax",%progbits
 601              	 .align 2
 602              	 .global tm_get10s4gRunTimerValue
 603              	 .thumb
 604              	 .thumb_func
 606              	tm_get10s4gRunTimerValue:
 607              	.LFB142:
 200:../timer_manager/timer_manager.c **** 
 201:../timer_manager/timer_manager.c **** uint32_t tm_get10s4gRunTimerValue()
 202:../timer_manager/timer_manager.c **** {
 608              	 .loc 1 202 0
 609              	 .cfi_startproc
 610              	 
 611              	 
 612              	 
 613 0000 80B4     	 push {r7}
 614              	.LCFI43:
 615              	 .cfi_def_cfa_offset 4
 616              	 .cfi_offset 7,-4
 617 0002 00AF     	 add r7,sp,#0
 618              	.LCFI44:
 619              	 .cfi_def_cfa_register 7
 203:../timer_manager/timer_manager.c **** 	return gu32_10s4gCounter;
 620              	 .loc 1 203 0
 621 0004 034B     	 ldr r3,.L50
 622 0006 1B68     	 ldr r3,[r3]
 204:../timer_manager/timer_manager.c **** }
 623              	 .loc 1 204 0
 624 0008 1846     	 mov r0,r3
 625 000a BD46     	 mov sp,r7
 626              	.LCFI45:
 627              	 .cfi_def_cfa_register 13
 628              	 
 629 000c 5DF8047B 	 ldr r7,[sp],#4
 630              	.LCFI46:
 631              	 .cfi_restore 7
 632              	 .cfi_def_cfa_offset 0
 633 0010 7047     	 bx lr
 634              	.L51:
 635 0012 00BF     	 .align 2
 636              	.L50:
 637 0014 00000000 	 .word gu32_10s4gCounter
 638              	 .cfi_endproc
 639              	.LFE142:
 641              	 .section .text.tm_set3s4gRunTimer,"ax",%progbits
 642              	 .align 2
 643              	 .global tm_set3s4gRunTimer
 644              	 .thumb
 645              	 .thumb_func
 647              	tm_set3s4gRunTimer:
 648              	.LFB143:
 205:../timer_manager/timer_manager.c **** 
 206:../timer_manager/timer_manager.c **** void tm_set3s4gRunTimer(uint32_t lu32_timeInMs)
 207:../timer_manager/timer_manager.c **** {
 649              	 .loc 1 207 0
 650              	 .cfi_startproc
 651              	 
 652              	 
 653              	 
 654 0000 80B4     	 push {r7}
 655              	.LCFI47:
 656              	 .cfi_def_cfa_offset 4
 657              	 .cfi_offset 7,-4
 658 0002 83B0     	 sub sp,sp,#12
 659              	.LCFI48:
 660              	 .cfi_def_cfa_offset 16
 661 0004 00AF     	 add r7,sp,#0
 662              	.LCFI49:
 663              	 .cfi_def_cfa_register 7
 664 0006 7860     	 str r0,[r7,#4]
 208:../timer_manager/timer_manager.c **** 	gu32_3s4gCounter = lu32_timeInMs;
 665              	 .loc 1 208 0
 666 0008 034A     	 ldr r2,.L53
 667 000a 7B68     	 ldr r3,[r7,#4]
 668 000c 1360     	 str r3,[r2]
 209:../timer_manager/timer_manager.c **** }
 669              	 .loc 1 209 0
 670 000e 0C37     	 adds r7,r7,#12
 671              	.LCFI50:
 672              	 .cfi_def_cfa_offset 4
 673 0010 BD46     	 mov sp,r7
 674              	.LCFI51:
 675              	 .cfi_def_cfa_register 13
 676              	 
 677 0012 5DF8047B 	 ldr r7,[sp],#4
 678              	.LCFI52:
 679              	 .cfi_restore 7
 680              	 .cfi_def_cfa_offset 0
 681 0016 7047     	 bx lr
 682              	.L54:
 683              	 .align 2
 684              	.L53:
 685 0018 00000000 	 .word gu32_3s4gCounter
 686              	 .cfi_endproc
 687              	.LFE143:
 689              	 .section .text.tm_get3s4gRunTimerValue,"ax",%progbits
 690              	 .align 2
 691              	 .global tm_get3s4gRunTimerValue
 692              	 .thumb
 693              	 .thumb_func
 695              	tm_get3s4gRunTimerValue:
 696              	.LFB144:
 210:../timer_manager/timer_manager.c **** 
 211:../timer_manager/timer_manager.c **** uint32_t tm_get3s4gRunTimerValue()
 212:../timer_manager/timer_manager.c **** {
 697              	 .loc 1 212 0
 698              	 .cfi_startproc
 699              	 
 700              	 
 701              	 
 702 0000 80B4     	 push {r7}
 703              	.LCFI53:
 704              	 .cfi_def_cfa_offset 4
 705              	 .cfi_offset 7,-4
 706 0002 00AF     	 add r7,sp,#0
 707              	.LCFI54:
 708              	 .cfi_def_cfa_register 7
 213:../timer_manager/timer_manager.c **** 	return gu32_3s4gCounter;
 709              	 .loc 1 213 0
 710 0004 034B     	 ldr r3,.L57
 711 0006 1B68     	 ldr r3,[r3]
 214:../timer_manager/timer_manager.c **** }
 712              	 .loc 1 214 0
 713 0008 1846     	 mov r0,r3
 714 000a BD46     	 mov sp,r7
 715              	.LCFI55:
 716              	 .cfi_def_cfa_register 13
 717              	 
 718 000c 5DF8047B 	 ldr r7,[sp],#4
 719              	.LCFI56:
 720              	 .cfi_restore 7
 721              	 .cfi_def_cfa_offset 0
 722 0010 7047     	 bx lr
 723              	.L58:
 724 0012 00BF     	 .align 2
 725              	.L57:
 726 0014 00000000 	 .word gu32_3s4gCounter
 727              	 .cfi_endproc
 728              	.LFE144:
 730              	 .section .text.tm_set4gRunTimer,"ax",%progbits
 731              	 .align 2
 732              	 .global tm_set4gRunTimer
 733              	 .thumb
 734              	 .thumb_func
 736              	tm_set4gRunTimer:
 737              	.LFB145:
 215:../timer_manager/timer_manager.c **** 
 216:../timer_manager/timer_manager.c **** void tm_set4gRunTimer(uint32_t lu32_timeInMs)
 217:../timer_manager/timer_manager.c **** {
 738              	 .loc 1 217 0
 739              	 .cfi_startproc
 740              	 
 741              	 
 742              	 
 743 0000 80B4     	 push {r7}
 744              	.LCFI57:
 745              	 .cfi_def_cfa_offset 4
 746              	 .cfi_offset 7,-4
 747 0002 83B0     	 sub sp,sp,#12
 748              	.LCFI58:
 749              	 .cfi_def_cfa_offset 16
 750 0004 00AF     	 add r7,sp,#0
 751              	.LCFI59:
 752              	 .cfi_def_cfa_register 7
 753 0006 7860     	 str r0,[r7,#4]
 218:../timer_manager/timer_manager.c **** 	gu32_3s4gCounter = lu32_timeInMs;
 754              	 .loc 1 218 0
 755 0008 034A     	 ldr r2,.L60
 756 000a 7B68     	 ldr r3,[r7,#4]
 757 000c 1360     	 str r3,[r2]
 219:../timer_manager/timer_manager.c **** }
 758              	 .loc 1 219 0
 759 000e 0C37     	 adds r7,r7,#12
 760              	.LCFI60:
 761              	 .cfi_def_cfa_offset 4
 762 0010 BD46     	 mov sp,r7
 763              	.LCFI61:
 764              	 .cfi_def_cfa_register 13
 765              	 
 766 0012 5DF8047B 	 ldr r7,[sp],#4
 767              	.LCFI62:
 768              	 .cfi_restore 7
 769              	 .cfi_def_cfa_offset 0
 770 0016 7047     	 bx lr
 771              	.L61:
 772              	 .align 2
 773              	.L60:
 774 0018 00000000 	 .word gu32_3s4gCounter
 775              	 .cfi_endproc
 776              	.LFE145:
 778              	 .section .text.tm_get4gRunTimerValue,"ax",%progbits
 779              	 .align 2
 780              	 .global tm_get4gRunTimerValue
 781              	 .thumb
 782              	 .thumb_func
 784              	tm_get4gRunTimerValue:
 785              	.LFB146:
 220:../timer_manager/timer_manager.c **** 
 221:../timer_manager/timer_manager.c **** uint32_t tm_get4gRunTimerValue()
 222:../timer_manager/timer_manager.c **** {
 786              	 .loc 1 222 0
 787              	 .cfi_startproc
 788              	 
 789              	 
 790              	 
 791 0000 80B4     	 push {r7}
 792              	.LCFI63:
 793              	 .cfi_def_cfa_offset 4
 794              	 .cfi_offset 7,-4
 795 0002 00AF     	 add r7,sp,#0
 796              	.LCFI64:
 797              	 .cfi_def_cfa_register 7
 223:../timer_manager/timer_manager.c **** 	return gu32_3s4gCounter;
 798              	 .loc 1 223 0
 799 0004 034B     	 ldr r3,.L64
 800 0006 1B68     	 ldr r3,[r3]
 224:../timer_manager/timer_manager.c **** }
 801              	 .loc 1 224 0
 802 0008 1846     	 mov r0,r3
 803 000a BD46     	 mov sp,r7
 804              	.LCFI65:
 805              	 .cfi_def_cfa_register 13
 806              	 
 807 000c 5DF8047B 	 ldr r7,[sp],#4
 808              	.LCFI66:
 809              	 .cfi_restore 7
 810              	 .cfi_def_cfa_offset 0
 811 0010 7047     	 bx lr
 812              	.L65:
 813 0012 00BF     	 .align 2
 814              	.L64:
 815 0014 00000000 	 .word gu32_3s4gCounter
 816              	 .cfi_endproc
 817              	.LFE146:
 819              	 .section .text.tm_setResponseTime,"ax",%progbits
 820              	 .align 2
 821              	 .global tm_setResponseTime
 822              	 .thumb
 823              	 .thumb_func
 825              	tm_setResponseTime:
 826              	.LFB147:
 225:../timer_manager/timer_manager.c **** 
 226:../timer_manager/timer_manager.c **** void tm_setResponseTime(uint32_t lu32_timeInMs)
 227:../timer_manager/timer_manager.c **** {
 827              	 .loc 1 227 0
 828              	 .cfi_startproc
 829              	 
 830              	 
 831              	 
 832 0000 80B4     	 push {r7}
 833              	.LCFI67:
 834              	 .cfi_def_cfa_offset 4
 835              	 .cfi_offset 7,-4
 836 0002 83B0     	 sub sp,sp,#12
 837              	.LCFI68:
 838              	 .cfi_def_cfa_offset 16
 839 0004 00AF     	 add r7,sp,#0
 840              	.LCFI69:
 841              	 .cfi_def_cfa_register 7
 842 0006 7860     	 str r0,[r7,#4]
 228:../timer_manager/timer_manager.c **** 	gu32_responseCount = lu32_timeInMs;
 843              	 .loc 1 228 0
 844 0008 034A     	 ldr r2,.L67
 845 000a 7B68     	 ldr r3,[r7,#4]
 846 000c 1360     	 str r3,[r2]
 229:../timer_manager/timer_manager.c **** }
 847              	 .loc 1 229 0
 848 000e 0C37     	 adds r7,r7,#12
 849              	.LCFI70:
 850              	 .cfi_def_cfa_offset 4
 851 0010 BD46     	 mov sp,r7
 852              	.LCFI71:
 853              	 .cfi_def_cfa_register 13
 854              	 
 855 0012 5DF8047B 	 ldr r7,[sp],#4
 856              	.LCFI72:
 857              	 .cfi_restore 7
 858              	 .cfi_def_cfa_offset 0
 859 0016 7047     	 bx lr
 860              	.L68:
 861              	 .align 2
 862              	.L67:
 863 0018 00000000 	 .word gu32_responseCount
 864              	 .cfi_endproc
 865              	.LFE147:
 867              	 .section .text.tm_getResponseTimeValue,"ax",%progbits
 868              	 .align 2
 869              	 .global tm_getResponseTimeValue
 870              	 .thumb
 871              	 .thumb_func
 873              	tm_getResponseTimeValue:
 874              	.LFB148:
 230:../timer_manager/timer_manager.c **** 
 231:../timer_manager/timer_manager.c **** uint32_t tm_getResponseTimeValue()
 232:../timer_manager/timer_manager.c **** {
 875              	 .loc 1 232 0
 876              	 .cfi_startproc
 877              	 
 878              	 
 879              	 
 880 0000 80B4     	 push {r7}
 881              	.LCFI73:
 882              	 .cfi_def_cfa_offset 4
 883              	 .cfi_offset 7,-4
 884 0002 00AF     	 add r7,sp,#0
 885              	.LCFI74:
 886              	 .cfi_def_cfa_register 7
 233:../timer_manager/timer_manager.c **** 	return gu32_responseCount;
 887              	 .loc 1 233 0
 888 0004 034B     	 ldr r3,.L71
 889 0006 1B68     	 ldr r3,[r3]
 234:../timer_manager/timer_manager.c **** }
 890              	 .loc 1 234 0
 891 0008 1846     	 mov r0,r3
 892 000a BD46     	 mov sp,r7
 893              	.LCFI75:
 894              	 .cfi_def_cfa_register 13
 895              	 
 896 000c 5DF8047B 	 ldr r7,[sp],#4
 897              	.LCFI76:
 898              	 .cfi_restore 7
 899              	 .cfi_def_cfa_offset 0
 900 0010 7047     	 bx lr
 901              	.L72:
 902 0012 00BF     	 .align 2
 903              	.L71:
 904 0014 00000000 	 .word gu32_responseCount
 905              	 .cfi_endproc
 906              	.LFE148:
 908              	 .section .text.tm_clearResponseTime,"ax",%progbits
 909              	 .align 2
 910              	 .global tm_clearResponseTime
 911              	 .thumb
 912              	 .thumb_func
 914              	tm_clearResponseTime:
 915              	.LFB149:
 235:../timer_manager/timer_manager.c **** void tm_clearResponseTime()
 236:../timer_manager/timer_manager.c **** {
 916              	 .loc 1 236 0
 917              	 .cfi_startproc
 918              	 
 919              	 
 920              	 
 921 0000 80B4     	 push {r7}
 922              	.LCFI77:
 923              	 .cfi_def_cfa_offset 4
 924              	 .cfi_offset 7,-4
 925 0002 00AF     	 add r7,sp,#0
 926              	.LCFI78:
 927              	 .cfi_def_cfa_register 7
 237:../timer_manager/timer_manager.c **** 	gu32_responseCount = 0;
 928              	 .loc 1 237 0
 929 0004 034B     	 ldr r3,.L74
 930 0006 0022     	 movs r2,#0
 931 0008 1A60     	 str r2,[r3]
 238:../timer_manager/timer_manager.c **** }
 932              	 .loc 1 238 0
 933 000a BD46     	 mov sp,r7
 934              	.LCFI79:
 935              	 .cfi_def_cfa_register 13
 936              	 
 937 000c 5DF8047B 	 ldr r7,[sp],#4
 938              	.LCFI80:
 939              	 .cfi_restore 7
 940              	 .cfi_def_cfa_offset 0
 941 0010 7047     	 bx lr
 942              	.L75:
 943 0012 00BF     	 .align 2
 944              	.L74:
 945 0014 00000000 	 .word gu32_responseCount
 946              	 .cfi_endproc
 947              	.LFE149:
 949              	 .text
 950              	.Letext0:
 951              	 .file 2 "c:\\infineon\\tools\\dave ide\\4.5.0.202105191637\\eclipse\\arm-gcc-49\\arm-none-eabi\\include\\machine\\_default_types.h"
 952              	 .file 3 "c:\\infineon\\tools\\dave ide\\4.5.0.202105191637\\eclipse\\arm-gcc-49\\arm-none-eabi\\include\\stdint.h"
 953              	 .file 4 "D:/Projects/VCU Firmware Main/IRP/Git Repo/VCU14_29bit_overCAN_withIRP_new4g_proto26_adding_All10sec_data/Dave/Generated/SYSTIMER/systimer.h"
 954              	 .file 5 "D:/Projects/VCU Firmware Main/IRP/Git Repo/VCU14_29bit_overCAN_withIRP_new4g_proto26_adding_All10sec_data/4g_module/comman.h"
 955              	 .file 6 "D:/Projects/VCU Firmware Main/IRP/Git Repo/VCU14_29bit_overCAN_withIRP_new4g_proto26_adding_All10sec_data/Libraries/CMSIS/Include/cmsis_gcc.h"
 956              	 .file 7 "D:/Projects/VCU Firmware Main/IRP/Git Repo/VCU14_29bit_overCAN_withIRP_new4g_proto26_adding_All10sec_data/Libraries/CMSIS/Include/core_cm4.h"