   1              	 .syntax unified
   2              	 .cpu cortex-m4
   3              	 .eabi_attribute 27,3
   4              	 .fpu fpv4-sp-d16
   5              	 .eabi_attribute 20,1
   6              	 .eabi_attribute 21,1
   7              	 .eabi_attribute 23,3
   8              	 .eabi_attribute 24,1
   9              	 .eabi_attribute 25,1
  10              	 .eabi_attribute 26,1
  11              	 .eabi_attribute 30,6
  12              	 .eabi_attribute 34,1
  13              	 .eabi_attribute 18,4
  14              	 .thumb
  15              	 .file "State_2.c"
  16              	 .text
  17              	.Ltext0:
  18              	 .cfi_sections .debug_frame
  19              	 .section .text.XMC_GPIO_SetOutputHigh,"ax",%progbits
  20              	 .align 2
  21              	 .thumb
  22              	 .thumb_func
  24              	XMC_GPIO_SetOutputHigh:
  25              	.LFB135:
  26              	 .file 1 "D:/Projects/VCU Firmware Main/IRP/Git Repo/VCU14_29bit_overCAN_withIRP_new4g_proto26_adding_All10sec_data/Libraries/XMCLib/inc/xmc_gpio.h"
   1:D:/Projects/VCU Firmware Main/IRP/Git Repo/VCU14_29bit_overCAN_withIRP_new4g_proto26_adding_All10sec_data/Libraries/XMCLib/inc\xmc_gpio.h **** /**
   2:D:/Projects/VCU Firmware Main/IRP/Git Repo/VCU14_29bit_overCAN_withIRP_new4g_proto26_adding_All10sec_data/Libraries/XMCLib/inc\xmc_gpio.h ****  * @file xmc_gpio.h
   3:D:/Projects/VCU Firmware Main/IRP/Git Repo/VCU14_29bit_overCAN_withIRP_new4g_proto26_adding_All10sec_data/Libraries/XMCLib/inc\xmc_gpio.h ****  * @date 2015-06-20
   4:D:/Projects/VCU Firmware Main/IRP/Git Repo/VCU14_29bit_overCAN_withIRP_new4g_proto26_adding_All10sec_data/Libraries/XMCLib/inc\xmc_gpio.h ****  *
   5:D:/Projects/VCU Firmware Main/IRP/Git Repo/VCU14_29bit_overCAN_withIRP_new4g_proto26_adding_All10sec_data/Libraries/XMCLib/inc\xmc_gpio.h ****  * @cond
   6:D:/Projects/VCU Firmware Main/IRP/Git Repo/VCU14_29bit_overCAN_withIRP_new4g_proto26_adding_All10sec_data/Libraries/XMCLib/inc\xmc_gpio.h ****  *****************************************************************************
   7:D:/Projects/VCU Firmware Main/IRP/Git Repo/VCU14_29bit_overCAN_withIRP_new4g_proto26_adding_All10sec_data/Libraries/XMCLib/inc\xmc_gpio.h ****  * XMClib v2.2.0 - XMC Peripheral Driver Library
   8:D:/Projects/VCU Firmware Main/IRP/Git Repo/VCU14_29bit_overCAN_withIRP_new4g_proto26_adding_All10sec_data/Libraries/XMCLib/inc\xmc_gpio.h ****  *
   9:D:/Projects/VCU Firmware Main/IRP/Git Repo/VCU14_29bit_overCAN_withIRP_new4g_proto26_adding_All10sec_data/Libraries/XMCLib/inc\xmc_gpio.h ****  * Copyright (c) 2015-2020, Infineon Technologies AG
  10:D:/Projects/VCU Firmware Main/IRP/Git Repo/VCU14_29bit_overCAN_withIRP_new4g_proto26_adding_All10sec_data/Libraries/XMCLib/inc\xmc_gpio.h ****  * All rights reserved.
  11:D:/Projects/VCU Firmware Main/IRP/Git Repo/VCU14_29bit_overCAN_withIRP_new4g_proto26_adding_All10sec_data/Libraries/XMCLib/inc\xmc_gpio.h ****  *
  12:D:/Projects/VCU Firmware Main/IRP/Git Repo/VCU14_29bit_overCAN_withIRP_new4g_proto26_adding_All10sec_data/Libraries/XMCLib/inc\xmc_gpio.h ****  * Boost Software License - Version 1.0 - August 17th, 2003
  13:D:/Projects/VCU Firmware Main/IRP/Git Repo/VCU14_29bit_overCAN_withIRP_new4g_proto26_adding_All10sec_data/Libraries/XMCLib/inc\xmc_gpio.h ****  *
  14:D:/Projects/VCU Firmware Main/IRP/Git Repo/VCU14_29bit_overCAN_withIRP_new4g_proto26_adding_All10sec_data/Libraries/XMCLib/inc\xmc_gpio.h ****  * Permission is hereby granted, free of charge, to any person or organization
  15:D:/Projects/VCU Firmware Main/IRP/Git Repo/VCU14_29bit_overCAN_withIRP_new4g_proto26_adding_All10sec_data/Libraries/XMCLib/inc\xmc_gpio.h ****  * obtaining a copy of the software and accompanying documentation covered by
  16:D:/Projects/VCU Firmware Main/IRP/Git Repo/VCU14_29bit_overCAN_withIRP_new4g_proto26_adding_All10sec_data/Libraries/XMCLib/inc\xmc_gpio.h ****  * this license (the "Software") to use, reproduce, display, distribute,
  17:D:/Projects/VCU Firmware Main/IRP/Git Repo/VCU14_29bit_overCAN_withIRP_new4g_proto26_adding_All10sec_data/Libraries/XMCLib/inc\xmc_gpio.h ****  * execute, and transmit the Software, and to prepare derivative works of the
  18:D:/Projects/VCU Firmware Main/IRP/Git Repo/VCU14_29bit_overCAN_withIRP_new4g_proto26_adding_All10sec_data/Libraries/XMCLib/inc\xmc_gpio.h ****  * Software, and to permit third-parties to whom the Software is furnished to
  19:D:/Projects/VCU Firmware Main/IRP/Git Repo/VCU14_29bit_overCAN_withIRP_new4g_proto26_adding_All10sec_data/Libraries/XMCLib/inc\xmc_gpio.h ****  * do so, all subject to the following:
  20:D:/Projects/VCU Firmware Main/IRP/Git Repo/VCU14_29bit_overCAN_withIRP_new4g_proto26_adding_All10sec_data/Libraries/XMCLib/inc\xmc_gpio.h ****  *
  21:D:/Projects/VCU Firmware Main/IRP/Git Repo/VCU14_29bit_overCAN_withIRP_new4g_proto26_adding_All10sec_data/Libraries/XMCLib/inc\xmc_gpio.h ****  * The copyright notices in the Software and this entire statement, including
  22:D:/Projects/VCU Firmware Main/IRP/Git Repo/VCU14_29bit_overCAN_withIRP_new4g_proto26_adding_All10sec_data/Libraries/XMCLib/inc\xmc_gpio.h ****  * the above license grant, this restriction and the following disclaimer,
  23:D:/Projects/VCU Firmware Main/IRP/Git Repo/VCU14_29bit_overCAN_withIRP_new4g_proto26_adding_All10sec_data/Libraries/XMCLib/inc\xmc_gpio.h ****  * must be included in all copies of the Software, in whole or in part, and
  24:D:/Projects/VCU Firmware Main/IRP/Git Repo/VCU14_29bit_overCAN_withIRP_new4g_proto26_adding_All10sec_data/Libraries/XMCLib/inc\xmc_gpio.h ****  * all derivative works of the Software, unless such copies or derivative
  25:D:/Projects/VCU Firmware Main/IRP/Git Repo/VCU14_29bit_overCAN_withIRP_new4g_proto26_adding_All10sec_data/Libraries/XMCLib/inc\xmc_gpio.h ****  * works are solely in the form of machine-executable object code generated by
  26:D:/Projects/VCU Firmware Main/IRP/Git Repo/VCU14_29bit_overCAN_withIRP_new4g_proto26_adding_All10sec_data/Libraries/XMCLib/inc\xmc_gpio.h ****  * a source language processor.
  27:D:/Projects/VCU Firmware Main/IRP/Git Repo/VCU14_29bit_overCAN_withIRP_new4g_proto26_adding_All10sec_data/Libraries/XMCLib/inc\xmc_gpio.h ****  *
  28:D:/Projects/VCU Firmware Main/IRP/Git Repo/VCU14_29bit_overCAN_withIRP_new4g_proto26_adding_All10sec_data/Libraries/XMCLib/inc\xmc_gpio.h ****  * THE SOFTWARE IS PROVIDED "AS IS", WITHOUT WARRANTY OF ANY KIND, EXPRESS OR
  29:D:/Projects/VCU Firmware Main/IRP/Git Repo/VCU14_29bit_overCAN_withIRP_new4g_proto26_adding_All10sec_data/Libraries/XMCLib/inc\xmc_gpio.h ****  * IMPLIED, INCLUDING BUT NOT LIMITED TO THE WARRANTIES OF MERCHANTABILITY,
  30:D:/Projects/VCU Firmware Main/IRP/Git Repo/VCU14_29bit_overCAN_withIRP_new4g_proto26_adding_All10sec_data/Libraries/XMCLib/inc\xmc_gpio.h ****  * FITNESS FOR A PARTICULAR PURPOSE, TITLE AND NON-INFRINGEMENT. IN NO EVENT
  31:D:/Projects/VCU Firmware Main/IRP/Git Repo/VCU14_29bit_overCAN_withIRP_new4g_proto26_adding_All10sec_data/Libraries/XMCLib/inc\xmc_gpio.h ****  * SHALL THE COPYRIGHT HOLDERS OR ANYONE DISTRIBUTING THE SOFTWARE BE LIABLE
  32:D:/Projects/VCU Firmware Main/IRP/Git Repo/VCU14_29bit_overCAN_withIRP_new4g_proto26_adding_All10sec_data/Libraries/XMCLib/inc\xmc_gpio.h ****  * FOR ANY DAMAGES OR OTHER LIABILITY, WHETHER IN CONTRACT, TORT OR OTHERWISE,
  33:D:/Projects/VCU Firmware Main/IRP/Git Repo/VCU14_29bit_overCAN_withIRP_new4g_proto26_adding_All10sec_data/Libraries/XMCLib/inc\xmc_gpio.h ****  * ARISING FROM, OUT OF OR IN CONNECTION WITH THE SOFTWARE OR THE USE OR OTHER
  34:D:/Projects/VCU Firmware Main/IRP/Git Repo/VCU14_29bit_overCAN_withIRP_new4g_proto26_adding_All10sec_data/Libraries/XMCLib/inc\xmc_gpio.h ****  * DEALINGS IN THE SOFTWARE.
  35:D:/Projects/VCU Firmware Main/IRP/Git Repo/VCU14_29bit_overCAN_withIRP_new4g_proto26_adding_All10sec_data/Libraries/XMCLib/inc\xmc_gpio.h ****  *
  36:D:/Projects/VCU Firmware Main/IRP/Git Repo/VCU14_29bit_overCAN_withIRP_new4g_proto26_adding_All10sec_data/Libraries/XMCLib/inc\xmc_gpio.h ****  * To improve the quality of the software, users are encouraged to share
  37:D:/Projects/VCU Firmware Main/IRP/Git Repo/VCU14_29bit_overCAN_withIRP_new4g_proto26_adding_All10sec_data/Libraries/XMCLib/inc\xmc_gpio.h ****  * modifications, enhancements or bug fixes with Infineon Technologies AG
  38:D:/Projects/VCU Firmware Main/IRP/Git Repo/VCU14_29bit_overCAN_withIRP_new4g_proto26_adding_All10sec_data/Libraries/XMCLib/inc\xmc_gpio.h ****  * at XMCSupport@infineon.com.
  39:D:/Projects/VCU Firmware Main/IRP/Git Repo/VCU14_29bit_overCAN_withIRP_new4g_proto26_adding_All10sec_data/Libraries/XMCLib/inc\xmc_gpio.h ****  *****************************************************************************
  40:D:/Projects/VCU Firmware Main/IRP/Git Repo/VCU14_29bit_overCAN_withIRP_new4g_proto26_adding_All10sec_data/Libraries/XMCLib/inc\xmc_gpio.h ****  *
  41:D:/Projects/VCU Firmware Main/IRP/Git Repo/VCU14_29bit_overCAN_withIRP_new4g_proto26_adding_All10sec_data/Libraries/XMCLib/inc\xmc_gpio.h ****  * Change History
  42:D:/Projects/VCU Firmware Main/IRP/Git Repo/VCU14_29bit_overCAN_withIRP_new4g_proto26_adding_All10sec_data/Libraries/XMCLib/inc\xmc_gpio.h ****  * --------------
  43:D:/Projects/VCU Firmware Main/IRP/Git Repo/VCU14_29bit_overCAN_withIRP_new4g_proto26_adding_All10sec_data/Libraries/XMCLib/inc\xmc_gpio.h ****  *
  44:D:/Projects/VCU Firmware Main/IRP/Git Repo/VCU14_29bit_overCAN_withIRP_new4g_proto26_adding_All10sec_data/Libraries/XMCLib/inc\xmc_gpio.h ****  * 2015-02-20:
  45:D:/Projects/VCU Firmware Main/IRP/Git Repo/VCU14_29bit_overCAN_withIRP_new4g_proto26_adding_All10sec_data/Libraries/XMCLib/inc\xmc_gpio.h ****  *     - Initial draft<br>
  46:D:/Projects/VCU Firmware Main/IRP/Git Repo/VCU14_29bit_overCAN_withIRP_new4g_proto26_adding_All10sec_data/Libraries/XMCLib/inc\xmc_gpio.h ****  *     - Documentation improved <br>
  47:D:/Projects/VCU Firmware Main/IRP/Git Repo/VCU14_29bit_overCAN_withIRP_new4g_proto26_adding_All10sec_data/Libraries/XMCLib/inc\xmc_gpio.h ****  *
  48:D:/Projects/VCU Firmware Main/IRP/Git Repo/VCU14_29bit_overCAN_withIRP_new4g_proto26_adding_All10sec_data/Libraries/XMCLib/inc\xmc_gpio.h ****  * 2015-06-20:
  49:D:/Projects/VCU Firmware Main/IRP/Git Repo/VCU14_29bit_overCAN_withIRP_new4g_proto26_adding_All10sec_data/Libraries/XMCLib/inc\xmc_gpio.h ****  *     - Removed version macros and declaration of GetDriverVersion API
  50:D:/Projects/VCU Firmware Main/IRP/Git Repo/VCU14_29bit_overCAN_withIRP_new4g_proto26_adding_All10sec_data/Libraries/XMCLib/inc\xmc_gpio.h ****  *
  51:D:/Projects/VCU Firmware Main/IRP/Git Repo/VCU14_29bit_overCAN_withIRP_new4g_proto26_adding_All10sec_data/Libraries/XMCLib/inc\xmc_gpio.h ****  * @endcond
  52:D:/Projects/VCU Firmware Main/IRP/Git Repo/VCU14_29bit_overCAN_withIRP_new4g_proto26_adding_All10sec_data/Libraries/XMCLib/inc\xmc_gpio.h ****  *
  53:D:/Projects/VCU Firmware Main/IRP/Git Repo/VCU14_29bit_overCAN_withIRP_new4g_proto26_adding_All10sec_data/Libraries/XMCLib/inc\xmc_gpio.h ****  */
  54:D:/Projects/VCU Firmware Main/IRP/Git Repo/VCU14_29bit_overCAN_withIRP_new4g_proto26_adding_All10sec_data/Libraries/XMCLib/inc\xmc_gpio.h **** 
  55:D:/Projects/VCU Firmware Main/IRP/Git Repo/VCU14_29bit_overCAN_withIRP_new4g_proto26_adding_All10sec_data/Libraries/XMCLib/inc\xmc_gpio.h **** #ifndef XMC_GPIO_H
  56:D:/Projects/VCU Firmware Main/IRP/Git Repo/VCU14_29bit_overCAN_withIRP_new4g_proto26_adding_All10sec_data/Libraries/XMCLib/inc\xmc_gpio.h **** #define XMC_GPIO_H
  57:D:/Projects/VCU Firmware Main/IRP/Git Repo/VCU14_29bit_overCAN_withIRP_new4g_proto26_adding_All10sec_data/Libraries/XMCLib/inc\xmc_gpio.h **** 
  58:D:/Projects/VCU Firmware Main/IRP/Git Repo/VCU14_29bit_overCAN_withIRP_new4g_proto26_adding_All10sec_data/Libraries/XMCLib/inc\xmc_gpio.h **** /**************************************************************************************************
  59:D:/Projects/VCU Firmware Main/IRP/Git Repo/VCU14_29bit_overCAN_withIRP_new4g_proto26_adding_All10sec_data/Libraries/XMCLib/inc\xmc_gpio.h ****  * HEADER FILES
  60:D:/Projects/VCU Firmware Main/IRP/Git Repo/VCU14_29bit_overCAN_withIRP_new4g_proto26_adding_All10sec_data/Libraries/XMCLib/inc\xmc_gpio.h ****  **************************************************************************************************
  61:D:/Projects/VCU Firmware Main/IRP/Git Repo/VCU14_29bit_overCAN_withIRP_new4g_proto26_adding_All10sec_data/Libraries/XMCLib/inc\xmc_gpio.h **** 
  62:D:/Projects/VCU Firmware Main/IRP/Git Repo/VCU14_29bit_overCAN_withIRP_new4g_proto26_adding_All10sec_data/Libraries/XMCLib/inc\xmc_gpio.h **** #include "xmc_common.h"
  63:D:/Projects/VCU Firmware Main/IRP/Git Repo/VCU14_29bit_overCAN_withIRP_new4g_proto26_adding_All10sec_data/Libraries/XMCLib/inc\xmc_gpio.h **** 
  64:D:/Projects/VCU Firmware Main/IRP/Git Repo/VCU14_29bit_overCAN_withIRP_new4g_proto26_adding_All10sec_data/Libraries/XMCLib/inc\xmc_gpio.h **** /**
  65:D:/Projects/VCU Firmware Main/IRP/Git Repo/VCU14_29bit_overCAN_withIRP_new4g_proto26_adding_All10sec_data/Libraries/XMCLib/inc\xmc_gpio.h ****  * @addtogroup XMClib XMC Peripheral Library
  66:D:/Projects/VCU Firmware Main/IRP/Git Repo/VCU14_29bit_overCAN_withIRP_new4g_proto26_adding_All10sec_data/Libraries/XMCLib/inc\xmc_gpio.h ****  * @{
  67:D:/Projects/VCU Firmware Main/IRP/Git Repo/VCU14_29bit_overCAN_withIRP_new4g_proto26_adding_All10sec_data/Libraries/XMCLib/inc\xmc_gpio.h ****  */
  68:D:/Projects/VCU Firmware Main/IRP/Git Repo/VCU14_29bit_overCAN_withIRP_new4g_proto26_adding_All10sec_data/Libraries/XMCLib/inc\xmc_gpio.h **** 
  69:D:/Projects/VCU Firmware Main/IRP/Git Repo/VCU14_29bit_overCAN_withIRP_new4g_proto26_adding_All10sec_data/Libraries/XMCLib/inc\xmc_gpio.h **** /**
  70:D:/Projects/VCU Firmware Main/IRP/Git Repo/VCU14_29bit_overCAN_withIRP_new4g_proto26_adding_All10sec_data/Libraries/XMCLib/inc\xmc_gpio.h ****  * @addtogroup GPIO
  71:D:/Projects/VCU Firmware Main/IRP/Git Repo/VCU14_29bit_overCAN_withIRP_new4g_proto26_adding_All10sec_data/Libraries/XMCLib/inc\xmc_gpio.h ****  * @brief General Purpose Input Output (GPIO) driver for the XMC microcontroller family.
  72:D:/Projects/VCU Firmware Main/IRP/Git Repo/VCU14_29bit_overCAN_withIRP_new4g_proto26_adding_All10sec_data/Libraries/XMCLib/inc\xmc_gpio.h ****  *
  73:D:/Projects/VCU Firmware Main/IRP/Git Repo/VCU14_29bit_overCAN_withIRP_new4g_proto26_adding_All10sec_data/Libraries/XMCLib/inc\xmc_gpio.h ****  * GPIO driver provide a generic and very flexible software interface for all standard digital I/O 
  74:D:/Projects/VCU Firmware Main/IRP/Git Repo/VCU14_29bit_overCAN_withIRP_new4g_proto26_adding_All10sec_data/Libraries/XMCLib/inc\xmc_gpio.h ****  * Each port slice has individual interfaces for the operation as General Purpose I/O and it furthe
  75:D:/Projects/VCU Firmware Main/IRP/Git Repo/VCU14_29bit_overCAN_withIRP_new4g_proto26_adding_All10sec_data/Libraries/XMCLib/inc\xmc_gpio.h ****  * connectivity to the on-chip periphery and the control for the pad characteristics.
  76:D:/Projects/VCU Firmware Main/IRP/Git Repo/VCU14_29bit_overCAN_withIRP_new4g_proto26_adding_All10sec_data/Libraries/XMCLib/inc\xmc_gpio.h ****  *
  77:D:/Projects/VCU Firmware Main/IRP/Git Repo/VCU14_29bit_overCAN_withIRP_new4g_proto26_adding_All10sec_data/Libraries/XMCLib/inc\xmc_gpio.h ****  * The driver is divided into Input and Output mode.
  78:D:/Projects/VCU Firmware Main/IRP/Git Repo/VCU14_29bit_overCAN_withIRP_new4g_proto26_adding_All10sec_data/Libraries/XMCLib/inc\xmc_gpio.h ****  *
  79:D:/Projects/VCU Firmware Main/IRP/Git Repo/VCU14_29bit_overCAN_withIRP_new4g_proto26_adding_All10sec_data/Libraries/XMCLib/inc\xmc_gpio.h ****  * Input mode features:
  80:D:/Projects/VCU Firmware Main/IRP/Git Repo/VCU14_29bit_overCAN_withIRP_new4g_proto26_adding_All10sec_data/Libraries/XMCLib/inc\xmc_gpio.h ****  * -# Configuration structure XMC_GPIO_CONFIG_t and initialization function XMC_GPIO_Init()
  81:D:/Projects/VCU Firmware Main/IRP/Git Repo/VCU14_29bit_overCAN_withIRP_new4g_proto26_adding_All10sec_data/Libraries/XMCLib/inc\xmc_gpio.h ****  * -# Allows the selection of weak pull-up or pull-down device. Configuration structure XMC_GPIO_MO
  82:D:/Projects/VCU Firmware Main/IRP/Git Repo/VCU14_29bit_overCAN_withIRP_new4g_proto26_adding_All10sec_data/Libraries/XMCLib/inc\xmc_gpio.h ****  * \if XMC1
  83:D:/Projects/VCU Firmware Main/IRP/Git Repo/VCU14_29bit_overCAN_withIRP_new4g_proto26_adding_All10sec_data/Libraries/XMCLib/inc\xmc_gpio.h ****  * -# Allows the selection of input hysteresis. XMC_GPIO_SetInputHysteresis()
  84:D:/Projects/VCU Firmware Main/IRP/Git Repo/VCU14_29bit_overCAN_withIRP_new4g_proto26_adding_All10sec_data/Libraries/XMCLib/inc\xmc_gpio.h ****  * \endif
  85:D:/Projects/VCU Firmware Main/IRP/Git Repo/VCU14_29bit_overCAN_withIRP_new4g_proto26_adding_All10sec_data/Libraries/XMCLib/inc\xmc_gpio.h ****  *
  86:D:/Projects/VCU Firmware Main/IRP/Git Repo/VCU14_29bit_overCAN_withIRP_new4g_proto26_adding_All10sec_data/Libraries/XMCLib/inc\xmc_gpio.h ****  *
  87:D:/Projects/VCU Firmware Main/IRP/Git Repo/VCU14_29bit_overCAN_withIRP_new4g_proto26_adding_All10sec_data/Libraries/XMCLib/inc\xmc_gpio.h ****  * Output mode features:
  88:D:/Projects/VCU Firmware Main/IRP/Git Repo/VCU14_29bit_overCAN_withIRP_new4g_proto26_adding_All10sec_data/Libraries/XMCLib/inc\xmc_gpio.h ****  * -# Allows the selection of push pull/open drain and Alternate output. Configuration structure XM
  89:D:/Projects/VCU Firmware Main/IRP/Git Repo/VCU14_29bit_overCAN_withIRP_new4g_proto26_adding_All10sec_data/Libraries/XMCLib/inc\xmc_gpio.h ****  * \if XMC4
  90:D:/Projects/VCU Firmware Main/IRP/Git Repo/VCU14_29bit_overCAN_withIRP_new4g_proto26_adding_All10sec_data/Libraries/XMCLib/inc\xmc_gpio.h ****  * -# Allows the selection of pad driver strength. Configuration structure XMC_GPIO_OUTPUT_STRENGTH
  91:D:/Projects/VCU Firmware Main/IRP/Git Repo/VCU14_29bit_overCAN_withIRP_new4g_proto26_adding_All10sec_data/Libraries/XMCLib/inc\xmc_gpio.h ****  * \endif
  92:D:/Projects/VCU Firmware Main/IRP/Git Repo/VCU14_29bit_overCAN_withIRP_new4g_proto26_adding_All10sec_data/Libraries/XMCLib/inc\xmc_gpio.h ****  *
  93:D:/Projects/VCU Firmware Main/IRP/Git Repo/VCU14_29bit_overCAN_withIRP_new4g_proto26_adding_All10sec_data/Libraries/XMCLib/inc\xmc_gpio.h ****  * -# Allows the selection of initial output level. Configuration structure XMC_GPIO_OUTPUT_LEVEL_t
  94:D:/Projects/VCU Firmware Main/IRP/Git Repo/VCU14_29bit_overCAN_withIRP_new4g_proto26_adding_All10sec_data/Libraries/XMCLib/inc\xmc_gpio.h ****  *
  95:D:/Projects/VCU Firmware Main/IRP/Git Repo/VCU14_29bit_overCAN_withIRP_new4g_proto26_adding_All10sec_data/Libraries/XMCLib/inc\xmc_gpio.h ****  *@{
  96:D:/Projects/VCU Firmware Main/IRP/Git Repo/VCU14_29bit_overCAN_withIRP_new4g_proto26_adding_All10sec_data/Libraries/XMCLib/inc\xmc_gpio.h ****  */
  97:D:/Projects/VCU Firmware Main/IRP/Git Repo/VCU14_29bit_overCAN_withIRP_new4g_proto26_adding_All10sec_data/Libraries/XMCLib/inc\xmc_gpio.h **** 
  98:D:/Projects/VCU Firmware Main/IRP/Git Repo/VCU14_29bit_overCAN_withIRP_new4g_proto26_adding_All10sec_data/Libraries/XMCLib/inc\xmc_gpio.h **** /**************************************************************************************************
  99:D:/Projects/VCU Firmware Main/IRP/Git Repo/VCU14_29bit_overCAN_withIRP_new4g_proto26_adding_All10sec_data/Libraries/XMCLib/inc\xmc_gpio.h ****  * MACROS
 100:D:/Projects/VCU Firmware Main/IRP/Git Repo/VCU14_29bit_overCAN_withIRP_new4g_proto26_adding_All10sec_data/Libraries/XMCLib/inc\xmc_gpio.h ****  **************************************************************************************************
 101:D:/Projects/VCU Firmware Main/IRP/Git Repo/VCU14_29bit_overCAN_withIRP_new4g_proto26_adding_All10sec_data/Libraries/XMCLib/inc\xmc_gpio.h **** 
 102:D:/Projects/VCU Firmware Main/IRP/Git Repo/VCU14_29bit_overCAN_withIRP_new4g_proto26_adding_All10sec_data/Libraries/XMCLib/inc\xmc_gpio.h **** #define PORT_IOCR_PC_Pos PORT0_IOCR0_PC0_Pos
 103:D:/Projects/VCU Firmware Main/IRP/Git Repo/VCU14_29bit_overCAN_withIRP_new4g_proto26_adding_All10sec_data/Libraries/XMCLib/inc\xmc_gpio.h **** #define PORT_IOCR_PC_Msk PORT0_IOCR0_PC0_Msk
 104:D:/Projects/VCU Firmware Main/IRP/Git Repo/VCU14_29bit_overCAN_withIRP_new4g_proto26_adding_All10sec_data/Libraries/XMCLib/inc\xmc_gpio.h **** 
 105:D:/Projects/VCU Firmware Main/IRP/Git Repo/VCU14_29bit_overCAN_withIRP_new4g_proto26_adding_All10sec_data/Libraries/XMCLib/inc\xmc_gpio.h **** #define PORT_IOCR_PC_Size 				(8U)
 106:D:/Projects/VCU Firmware Main/IRP/Git Repo/VCU14_29bit_overCAN_withIRP_new4g_proto26_adding_All10sec_data/Libraries/XMCLib/inc\xmc_gpio.h **** 
 107:D:/Projects/VCU Firmware Main/IRP/Git Repo/VCU14_29bit_overCAN_withIRP_new4g_proto26_adding_All10sec_data/Libraries/XMCLib/inc\xmc_gpio.h **** 
 108:D:/Projects/VCU Firmware Main/IRP/Git Repo/VCU14_29bit_overCAN_withIRP_new4g_proto26_adding_All10sec_data/Libraries/XMCLib/inc\xmc_gpio.h **** #define XMC_GPIO_CHECK_OUTPUT_LEVEL(level) ((level == XMC_GPIO_OUTPUT_LEVEL_LOW) || \
 109:D:/Projects/VCU Firmware Main/IRP/Git Repo/VCU14_29bit_overCAN_withIRP_new4g_proto26_adding_All10sec_data/Libraries/XMCLib/inc\xmc_gpio.h ****                                             (level == XMC_GPIO_OUTPUT_LEVEL_HIGH))
 110:D:/Projects/VCU Firmware Main/IRP/Git Repo/VCU14_29bit_overCAN_withIRP_new4g_proto26_adding_All10sec_data/Libraries/XMCLib/inc\xmc_gpio.h **** 
 111:D:/Projects/VCU Firmware Main/IRP/Git Repo/VCU14_29bit_overCAN_withIRP_new4g_proto26_adding_All10sec_data/Libraries/XMCLib/inc\xmc_gpio.h **** #define XMC_GPIO_CHECK_HWCTRL(hwctrl) ((hwctrl == XMC_GPIO_HWCTRL_DISABLED) || \
 112:D:/Projects/VCU Firmware Main/IRP/Git Repo/VCU14_29bit_overCAN_withIRP_new4g_proto26_adding_All10sec_data/Libraries/XMCLib/inc\xmc_gpio.h ****                                        (hwctrl == XMC_GPIO_HWCTRL_PERIPHERAL1) || \
 113:D:/Projects/VCU Firmware Main/IRP/Git Repo/VCU14_29bit_overCAN_withIRP_new4g_proto26_adding_All10sec_data/Libraries/XMCLib/inc\xmc_gpio.h ****                                        (hwctrl == XMC_GPIO_HWCTRL_PERIPHERAL2))
 114:D:/Projects/VCU Firmware Main/IRP/Git Repo/VCU14_29bit_overCAN_withIRP_new4g_proto26_adding_All10sec_data/Libraries/XMCLib/inc\xmc_gpio.h **** 
 115:D:/Projects/VCU Firmware Main/IRP/Git Repo/VCU14_29bit_overCAN_withIRP_new4g_proto26_adding_All10sec_data/Libraries/XMCLib/inc\xmc_gpio.h **** /**************************************************************************************************
 116:D:/Projects/VCU Firmware Main/IRP/Git Repo/VCU14_29bit_overCAN_withIRP_new4g_proto26_adding_All10sec_data/Libraries/XMCLib/inc\xmc_gpio.h ****  * ENUMS
 117:D:/Projects/VCU Firmware Main/IRP/Git Repo/VCU14_29bit_overCAN_withIRP_new4g_proto26_adding_All10sec_data/Libraries/XMCLib/inc\xmc_gpio.h ****  **************************************************************************************************
 118:D:/Projects/VCU Firmware Main/IRP/Git Repo/VCU14_29bit_overCAN_withIRP_new4g_proto26_adding_All10sec_data/Libraries/XMCLib/inc\xmc_gpio.h **** 
 119:D:/Projects/VCU Firmware Main/IRP/Git Repo/VCU14_29bit_overCAN_withIRP_new4g_proto26_adding_All10sec_data/Libraries/XMCLib/inc\xmc_gpio.h **** 
 120:D:/Projects/VCU Firmware Main/IRP/Git Repo/VCU14_29bit_overCAN_withIRP_new4g_proto26_adding_All10sec_data/Libraries/XMCLib/inc\xmc_gpio.h **** /**
 121:D:/Projects/VCU Firmware Main/IRP/Git Repo/VCU14_29bit_overCAN_withIRP_new4g_proto26_adding_All10sec_data/Libraries/XMCLib/inc\xmc_gpio.h ****  * Defines output level of a pin. Use type \a XMC_GPIO_OUTPUT_LEVEL_t for this enum.
 122:D:/Projects/VCU Firmware Main/IRP/Git Repo/VCU14_29bit_overCAN_withIRP_new4g_proto26_adding_All10sec_data/Libraries/XMCLib/inc\xmc_gpio.h ****  */
 123:D:/Projects/VCU Firmware Main/IRP/Git Repo/VCU14_29bit_overCAN_withIRP_new4g_proto26_adding_All10sec_data/Libraries/XMCLib/inc\xmc_gpio.h **** typedef enum XMC_GPIO_OUTPUT_LEVEL
 124:D:/Projects/VCU Firmware Main/IRP/Git Repo/VCU14_29bit_overCAN_withIRP_new4g_proto26_adding_All10sec_data/Libraries/XMCLib/inc\xmc_gpio.h **** {
 125:D:/Projects/VCU Firmware Main/IRP/Git Repo/VCU14_29bit_overCAN_withIRP_new4g_proto26_adding_All10sec_data/Libraries/XMCLib/inc\xmc_gpio.h ****   XMC_GPIO_OUTPUT_LEVEL_LOW  = 0x10000U, /**<  Reset bit */
 126:D:/Projects/VCU Firmware Main/IRP/Git Repo/VCU14_29bit_overCAN_withIRP_new4g_proto26_adding_All10sec_data/Libraries/XMCLib/inc\xmc_gpio.h ****   XMC_GPIO_OUTPUT_LEVEL_HIGH = 0x1U, 	/**< Set bit  */
 127:D:/Projects/VCU Firmware Main/IRP/Git Repo/VCU14_29bit_overCAN_withIRP_new4g_proto26_adding_All10sec_data/Libraries/XMCLib/inc\xmc_gpio.h **** } XMC_GPIO_OUTPUT_LEVEL_t;
 128:D:/Projects/VCU Firmware Main/IRP/Git Repo/VCU14_29bit_overCAN_withIRP_new4g_proto26_adding_All10sec_data/Libraries/XMCLib/inc\xmc_gpio.h **** 
 129:D:/Projects/VCU Firmware Main/IRP/Git Repo/VCU14_29bit_overCAN_withIRP_new4g_proto26_adding_All10sec_data/Libraries/XMCLib/inc\xmc_gpio.h **** /**
 130:D:/Projects/VCU Firmware Main/IRP/Git Repo/VCU14_29bit_overCAN_withIRP_new4g_proto26_adding_All10sec_data/Libraries/XMCLib/inc\xmc_gpio.h ****  * Defines direct hardware control characteristics of the pin . Use type \a XMC_GPIO_HWCTRL_t for t
 131:D:/Projects/VCU Firmware Main/IRP/Git Repo/VCU14_29bit_overCAN_withIRP_new4g_proto26_adding_All10sec_data/Libraries/XMCLib/inc\xmc_gpio.h ****  */
 132:D:/Projects/VCU Firmware Main/IRP/Git Repo/VCU14_29bit_overCAN_withIRP_new4g_proto26_adding_All10sec_data/Libraries/XMCLib/inc\xmc_gpio.h **** typedef enum XMC_GPIO_HWCTRL
 133:D:/Projects/VCU Firmware Main/IRP/Git Repo/VCU14_29bit_overCAN_withIRP_new4g_proto26_adding_All10sec_data/Libraries/XMCLib/inc\xmc_gpio.h **** {
 134:D:/Projects/VCU Firmware Main/IRP/Git Repo/VCU14_29bit_overCAN_withIRP_new4g_proto26_adding_All10sec_data/Libraries/XMCLib/inc\xmc_gpio.h ****   XMC_GPIO_HWCTRL_DISABLED     = 0x0U, /**<  Software control only */
 135:D:/Projects/VCU Firmware Main/IRP/Git Repo/VCU14_29bit_overCAN_withIRP_new4g_proto26_adding_All10sec_data/Libraries/XMCLib/inc\xmc_gpio.h ****   XMC_GPIO_HWCTRL_PERIPHERAL1  = 0x1U, /**<  HWI0/HWO0 control path can override the software confi
 136:D:/Projects/VCU Firmware Main/IRP/Git Repo/VCU14_29bit_overCAN_withIRP_new4g_proto26_adding_All10sec_data/Libraries/XMCLib/inc\xmc_gpio.h ****   XMC_GPIO_HWCTRL_PERIPHERAL2  = 0x2U  /**<  HWI1/HWO1 control path can override the software confi
 137:D:/Projects/VCU Firmware Main/IRP/Git Repo/VCU14_29bit_overCAN_withIRP_new4g_proto26_adding_All10sec_data/Libraries/XMCLib/inc\xmc_gpio.h **** } XMC_GPIO_HWCTRL_t;
 138:D:/Projects/VCU Firmware Main/IRP/Git Repo/VCU14_29bit_overCAN_withIRP_new4g_proto26_adding_All10sec_data/Libraries/XMCLib/inc\xmc_gpio.h **** 
 139:D:/Projects/VCU Firmware Main/IRP/Git Repo/VCU14_29bit_overCAN_withIRP_new4g_proto26_adding_All10sec_data/Libraries/XMCLib/inc\xmc_gpio.h **** /**************************************************************************************************
 140:D:/Projects/VCU Firmware Main/IRP/Git Repo/VCU14_29bit_overCAN_withIRP_new4g_proto26_adding_All10sec_data/Libraries/XMCLib/inc\xmc_gpio.h ****  * DEVICE FAMILY EXTENSIONS
 141:D:/Projects/VCU Firmware Main/IRP/Git Repo/VCU14_29bit_overCAN_withIRP_new4g_proto26_adding_All10sec_data/Libraries/XMCLib/inc\xmc_gpio.h ****  **************************************************************************************************
 142:D:/Projects/VCU Firmware Main/IRP/Git Repo/VCU14_29bit_overCAN_withIRP_new4g_proto26_adding_All10sec_data/Libraries/XMCLib/inc\xmc_gpio.h **** 
 143:D:/Projects/VCU Firmware Main/IRP/Git Repo/VCU14_29bit_overCAN_withIRP_new4g_proto26_adding_All10sec_data/Libraries/XMCLib/inc\xmc_gpio.h **** #if UC_FAMILY == XMC1
 144:D:/Projects/VCU Firmware Main/IRP/Git Repo/VCU14_29bit_overCAN_withIRP_new4g_proto26_adding_All10sec_data/Libraries/XMCLib/inc\xmc_gpio.h **** #include "xmc1_gpio.h"
 145:D:/Projects/VCU Firmware Main/IRP/Git Repo/VCU14_29bit_overCAN_withIRP_new4g_proto26_adding_All10sec_data/Libraries/XMCLib/inc\xmc_gpio.h **** #elif UC_FAMILY == XMC4
 146:D:/Projects/VCU Firmware Main/IRP/Git Repo/VCU14_29bit_overCAN_withIRP_new4g_proto26_adding_All10sec_data/Libraries/XMCLib/inc\xmc_gpio.h **** #include "xmc4_gpio.h"
 147:D:/Projects/VCU Firmware Main/IRP/Git Repo/VCU14_29bit_overCAN_withIRP_new4g_proto26_adding_All10sec_data/Libraries/XMCLib/inc\xmc_gpio.h **** #else
 148:D:/Projects/VCU Firmware Main/IRP/Git Repo/VCU14_29bit_overCAN_withIRP_new4g_proto26_adding_All10sec_data/Libraries/XMCLib/inc\xmc_gpio.h **** #error "xmc_gpio.h: family device not supported"
 149:D:/Projects/VCU Firmware Main/IRP/Git Repo/VCU14_29bit_overCAN_withIRP_new4g_proto26_adding_All10sec_data/Libraries/XMCLib/inc\xmc_gpio.h **** #endif
 150:D:/Projects/VCU Firmware Main/IRP/Git Repo/VCU14_29bit_overCAN_withIRP_new4g_proto26_adding_All10sec_data/Libraries/XMCLib/inc\xmc_gpio.h **** 
 151:D:/Projects/VCU Firmware Main/IRP/Git Repo/VCU14_29bit_overCAN_withIRP_new4g_proto26_adding_All10sec_data/Libraries/XMCLib/inc\xmc_gpio.h **** /**************************************************************************************************
 152:D:/Projects/VCU Firmware Main/IRP/Git Repo/VCU14_29bit_overCAN_withIRP_new4g_proto26_adding_All10sec_data/Libraries/XMCLib/inc\xmc_gpio.h ****  * API PROTOTYPES
 153:D:/Projects/VCU Firmware Main/IRP/Git Repo/VCU14_29bit_overCAN_withIRP_new4g_proto26_adding_All10sec_data/Libraries/XMCLib/inc\xmc_gpio.h ****  **************************************************************************************************
 154:D:/Projects/VCU Firmware Main/IRP/Git Repo/VCU14_29bit_overCAN_withIRP_new4g_proto26_adding_All10sec_data/Libraries/XMCLib/inc\xmc_gpio.h **** 
 155:D:/Projects/VCU Firmware Main/IRP/Git Repo/VCU14_29bit_overCAN_withIRP_new4g_proto26_adding_All10sec_data/Libraries/XMCLib/inc\xmc_gpio.h **** #ifdef __cplusplus
 156:D:/Projects/VCU Firmware Main/IRP/Git Repo/VCU14_29bit_overCAN_withIRP_new4g_proto26_adding_All10sec_data/Libraries/XMCLib/inc\xmc_gpio.h **** extern "C" {
 157:D:/Projects/VCU Firmware Main/IRP/Git Repo/VCU14_29bit_overCAN_withIRP_new4g_proto26_adding_All10sec_data/Libraries/XMCLib/inc\xmc_gpio.h **** #endif
 158:D:/Projects/VCU Firmware Main/IRP/Git Repo/VCU14_29bit_overCAN_withIRP_new4g_proto26_adding_All10sec_data/Libraries/XMCLib/inc\xmc_gpio.h **** 
 159:D:/Projects/VCU Firmware Main/IRP/Git Repo/VCU14_29bit_overCAN_withIRP_new4g_proto26_adding_All10sec_data/Libraries/XMCLib/inc\xmc_gpio.h **** 
 160:D:/Projects/VCU Firmware Main/IRP/Git Repo/VCU14_29bit_overCAN_withIRP_new4g_proto26_adding_All10sec_data/Libraries/XMCLib/inc\xmc_gpio.h **** /**
 161:D:/Projects/VCU Firmware Main/IRP/Git Repo/VCU14_29bit_overCAN_withIRP_new4g_proto26_adding_All10sec_data/Libraries/XMCLib/inc\xmc_gpio.h ****  * @param  port	  Constant pointer pointing to GPIO port, to access port registers like Pn_OUT,Pn_O
 162:D:/Projects/VCU Firmware Main/IRP/Git Repo/VCU14_29bit_overCAN_withIRP_new4g_proto26_adding_All10sec_data/Libraries/XMCLib/inc\xmc_gpio.h ****  * @param  pin	  Port pin number.
 163:D:/Projects/VCU Firmware Main/IRP/Git Repo/VCU14_29bit_overCAN_withIRP_new4g_proto26_adding_All10sec_data/Libraries/XMCLib/inc\xmc_gpio.h ****  * @param  config GPIO configuration data structure. Refer data structure @ref XMC_GPIO_CONFIG_t fo
 164:D:/Projects/VCU Firmware Main/IRP/Git Repo/VCU14_29bit_overCAN_withIRP_new4g_proto26_adding_All10sec_data/Libraries/XMCLib/inc\xmc_gpio.h ****  *
 165:D:/Projects/VCU Firmware Main/IRP/Git Repo/VCU14_29bit_overCAN_withIRP_new4g_proto26_adding_All10sec_data/Libraries/XMCLib/inc\xmc_gpio.h ****  * @return None
 166:D:/Projects/VCU Firmware Main/IRP/Git Repo/VCU14_29bit_overCAN_withIRP_new4g_proto26_adding_All10sec_data/Libraries/XMCLib/inc\xmc_gpio.h ****  *
 167:D:/Projects/VCU Firmware Main/IRP/Git Repo/VCU14_29bit_overCAN_withIRP_new4g_proto26_adding_All10sec_data/Libraries/XMCLib/inc\xmc_gpio.h ****  * \par<b>Description:</b><br>
 168:D:/Projects/VCU Firmware Main/IRP/Git Repo/VCU14_29bit_overCAN_withIRP_new4g_proto26_adding_All10sec_data/Libraries/XMCLib/inc\xmc_gpio.h ****  * \if XMC1
 169:D:/Projects/VCU Firmware Main/IRP/Git Repo/VCU14_29bit_overCAN_withIRP_new4g_proto26_adding_All10sec_data/Libraries/XMCLib/inc\xmc_gpio.h ****  * Initializes input / output mode settings like, pull up / pull down devices,hysteresis, push pull
 170:D:/Projects/VCU Firmware Main/IRP/Git Repo/VCU14_29bit_overCAN_withIRP_new4g_proto26_adding_All10sec_data/Libraries/XMCLib/inc\xmc_gpio.h ****  * Also configures alternate function outputs and clears hardware port control for a selected \a po
 171:D:/Projects/VCU Firmware Main/IRP/Git Repo/VCU14_29bit_overCAN_withIRP_new4g_proto26_adding_All10sec_data/Libraries/XMCLib/inc\xmc_gpio.h ****  * \a config provides selected I/O settings. It configures hardware registers Pn_IOCR,Pn_OUT, Pn_OM
 172:D:/Projects/VCU Firmware Main/IRP/Git Repo/VCU14_29bit_overCAN_withIRP_new4g_proto26_adding_All10sec_data/Libraries/XMCLib/inc\xmc_gpio.h ****  * \endif
 173:D:/Projects/VCU Firmware Main/IRP/Git Repo/VCU14_29bit_overCAN_withIRP_new4g_proto26_adding_All10sec_data/Libraries/XMCLib/inc\xmc_gpio.h ****  * \if XMC4
 174:D:/Projects/VCU Firmware Main/IRP/Git Repo/VCU14_29bit_overCAN_withIRP_new4g_proto26_adding_All10sec_data/Libraries/XMCLib/inc\xmc_gpio.h ****  * Initializes input / output mode settings like, pull up / pull down devices,push pull /open drain
 175:D:/Projects/VCU Firmware Main/IRP/Git Repo/VCU14_29bit_overCAN_withIRP_new4g_proto26_adding_All10sec_data/Libraries/XMCLib/inc\xmc_gpio.h ****  * Also configures alternate function outputs and clears hardware port control for selected \a port
 176:D:/Projects/VCU Firmware Main/IRP/Git Repo/VCU14_29bit_overCAN_withIRP_new4g_proto26_adding_All10sec_data/Libraries/XMCLib/inc\xmc_gpio.h ****  * It configures hardware registers Pn_IOCR,Pn_OUT,Pn_OMR,Pn_PDISC and Pn_PDR.\n
 177:D:/Projects/VCU Firmware Main/IRP/Git Repo/VCU14_29bit_overCAN_withIRP_new4g_proto26_adding_All10sec_data/Libraries/XMCLib/inc\xmc_gpio.h ****  * \endif
 178:D:/Projects/VCU Firmware Main/IRP/Git Repo/VCU14_29bit_overCAN_withIRP_new4g_proto26_adding_All10sec_data/Libraries/XMCLib/inc\xmc_gpio.h ****  *
 179:D:/Projects/VCU Firmware Main/IRP/Git Repo/VCU14_29bit_overCAN_withIRP_new4g_proto26_adding_All10sec_data/Libraries/XMCLib/inc\xmc_gpio.h ****  * \par<b>Related APIs:</b><BR>
 180:D:/Projects/VCU Firmware Main/IRP/Git Repo/VCU14_29bit_overCAN_withIRP_new4g_proto26_adding_All10sec_data/Libraries/XMCLib/inc\xmc_gpio.h ****  *  None
 181:D:/Projects/VCU Firmware Main/IRP/Git Repo/VCU14_29bit_overCAN_withIRP_new4g_proto26_adding_All10sec_data/Libraries/XMCLib/inc\xmc_gpio.h ****  *
 182:D:/Projects/VCU Firmware Main/IRP/Git Repo/VCU14_29bit_overCAN_withIRP_new4g_proto26_adding_All10sec_data/Libraries/XMCLib/inc\xmc_gpio.h ****  * \par<b>Note:</b><br>
 183:D:/Projects/VCU Firmware Main/IRP/Git Repo/VCU14_29bit_overCAN_withIRP_new4g_proto26_adding_All10sec_data/Libraries/XMCLib/inc\xmc_gpio.h ****  * This API is called in definition of DAVE_init by code generation and therefore should not be exp
 184:D:/Projects/VCU Firmware Main/IRP/Git Repo/VCU14_29bit_overCAN_withIRP_new4g_proto26_adding_All10sec_data/Libraries/XMCLib/inc\xmc_gpio.h ****  * for the normal operation. Use other APIs only after DAVE_init is called successfully (returns DA
 185:D:/Projects/VCU Firmware Main/IRP/Git Repo/VCU14_29bit_overCAN_withIRP_new4g_proto26_adding_All10sec_data/Libraries/XMCLib/inc\xmc_gpio.h ****  *
 186:D:/Projects/VCU Firmware Main/IRP/Git Repo/VCU14_29bit_overCAN_withIRP_new4g_proto26_adding_All10sec_data/Libraries/XMCLib/inc\xmc_gpio.h ****  *
 187:D:/Projects/VCU Firmware Main/IRP/Git Repo/VCU14_29bit_overCAN_withIRP_new4g_proto26_adding_All10sec_data/Libraries/XMCLib/inc\xmc_gpio.h ****  */
 188:D:/Projects/VCU Firmware Main/IRP/Git Repo/VCU14_29bit_overCAN_withIRP_new4g_proto26_adding_All10sec_data/Libraries/XMCLib/inc\xmc_gpio.h **** 
 189:D:/Projects/VCU Firmware Main/IRP/Git Repo/VCU14_29bit_overCAN_withIRP_new4g_proto26_adding_All10sec_data/Libraries/XMCLib/inc\xmc_gpio.h **** 
 190:D:/Projects/VCU Firmware Main/IRP/Git Repo/VCU14_29bit_overCAN_withIRP_new4g_proto26_adding_All10sec_data/Libraries/XMCLib/inc\xmc_gpio.h **** void XMC_GPIO_Init(XMC_GPIO_PORT_t *const port, const uint8_t pin, const XMC_GPIO_CONFIG_t *const c
 191:D:/Projects/VCU Firmware Main/IRP/Git Repo/VCU14_29bit_overCAN_withIRP_new4g_proto26_adding_All10sec_data/Libraries/XMCLib/inc\xmc_gpio.h **** 
 192:D:/Projects/VCU Firmware Main/IRP/Git Repo/VCU14_29bit_overCAN_withIRP_new4g_proto26_adding_All10sec_data/Libraries/XMCLib/inc\xmc_gpio.h **** /**
 193:D:/Projects/VCU Firmware Main/IRP/Git Repo/VCU14_29bit_overCAN_withIRP_new4g_proto26_adding_All10sec_data/Libraries/XMCLib/inc\xmc_gpio.h ****  *
 194:D:/Projects/VCU Firmware Main/IRP/Git Repo/VCU14_29bit_overCAN_withIRP_new4g_proto26_adding_All10sec_data/Libraries/XMCLib/inc\xmc_gpio.h ****  * @param  port	Constant pointer pointing to GPIO port, to access hardware register Pn_IOCR.
 195:D:/Projects/VCU Firmware Main/IRP/Git Repo/VCU14_29bit_overCAN_withIRP_new4g_proto26_adding_All10sec_data/Libraries/XMCLib/inc\xmc_gpio.h ****  * @param  pin	Port pin number.
 196:D:/Projects/VCU Firmware Main/IRP/Git Repo/VCU14_29bit_overCAN_withIRP_new4g_proto26_adding_All10sec_data/Libraries/XMCLib/inc\xmc_gpio.h ****  * @param  mode input / output functionality selection. Refer @ref XMC_GPIO_MODE_t for valid values
 197:D:/Projects/VCU Firmware Main/IRP/Git Repo/VCU14_29bit_overCAN_withIRP_new4g_proto26_adding_All10sec_data/Libraries/XMCLib/inc\xmc_gpio.h ****  *
 198:D:/Projects/VCU Firmware Main/IRP/Git Repo/VCU14_29bit_overCAN_withIRP_new4g_proto26_adding_All10sec_data/Libraries/XMCLib/inc\xmc_gpio.h ****  * @return None
 199:D:/Projects/VCU Firmware Main/IRP/Git Repo/VCU14_29bit_overCAN_withIRP_new4g_proto26_adding_All10sec_data/Libraries/XMCLib/inc\xmc_gpio.h ****  *
 200:D:/Projects/VCU Firmware Main/IRP/Git Repo/VCU14_29bit_overCAN_withIRP_new4g_proto26_adding_All10sec_data/Libraries/XMCLib/inc\xmc_gpio.h ****  * \par<b>Description:</b><br>
 201:D:/Projects/VCU Firmware Main/IRP/Git Repo/VCU14_29bit_overCAN_withIRP_new4g_proto26_adding_All10sec_data/Libraries/XMCLib/inc\xmc_gpio.h ****  * Sets digital input and output driver functionality and characteristics of a GPIO port pin. It co
 202:D:/Projects/VCU Firmware Main/IRP/Git Repo/VCU14_29bit_overCAN_withIRP_new4g_proto26_adding_All10sec_data/Libraries/XMCLib/inc\xmc_gpio.h ****  * registers Pn_IOCR. \a mode is initially configured during initialization in XMC_GPIO_Init(). Cal
 203:D:/Projects/VCU Firmware Main/IRP/Git Repo/VCU14_29bit_overCAN_withIRP_new4g_proto26_adding_All10sec_data/Libraries/XMCLib/inc\xmc_gpio.h ****  * the port direction functionality as needed later in the program.
 204:D:/Projects/VCU Firmware Main/IRP/Git Repo/VCU14_29bit_overCAN_withIRP_new4g_proto26_adding_All10sec_data/Libraries/XMCLib/inc\xmc_gpio.h ****  *
 205:D:/Projects/VCU Firmware Main/IRP/Git Repo/VCU14_29bit_overCAN_withIRP_new4g_proto26_adding_All10sec_data/Libraries/XMCLib/inc\xmc_gpio.h ****  * \par<b>Related APIs:</b><BR>
 206:D:/Projects/VCU Firmware Main/IRP/Git Repo/VCU14_29bit_overCAN_withIRP_new4g_proto26_adding_All10sec_data/Libraries/XMCLib/inc\xmc_gpio.h ****  *  None
 207:D:/Projects/VCU Firmware Main/IRP/Git Repo/VCU14_29bit_overCAN_withIRP_new4g_proto26_adding_All10sec_data/Libraries/XMCLib/inc\xmc_gpio.h ****  *
 208:D:/Projects/VCU Firmware Main/IRP/Git Repo/VCU14_29bit_overCAN_withIRP_new4g_proto26_adding_All10sec_data/Libraries/XMCLib/inc\xmc_gpio.h ****  */
 209:D:/Projects/VCU Firmware Main/IRP/Git Repo/VCU14_29bit_overCAN_withIRP_new4g_proto26_adding_All10sec_data/Libraries/XMCLib/inc\xmc_gpio.h **** 
 210:D:/Projects/VCU Firmware Main/IRP/Git Repo/VCU14_29bit_overCAN_withIRP_new4g_proto26_adding_All10sec_data/Libraries/XMCLib/inc\xmc_gpio.h **** void XMC_GPIO_SetMode(XMC_GPIO_PORT_t *const port, const uint8_t pin, const XMC_GPIO_MODE_t mode);
 211:D:/Projects/VCU Firmware Main/IRP/Git Repo/VCU14_29bit_overCAN_withIRP_new4g_proto26_adding_All10sec_data/Libraries/XMCLib/inc\xmc_gpio.h **** 
 212:D:/Projects/VCU Firmware Main/IRP/Git Repo/VCU14_29bit_overCAN_withIRP_new4g_proto26_adding_All10sec_data/Libraries/XMCLib/inc\xmc_gpio.h **** 
 213:D:/Projects/VCU Firmware Main/IRP/Git Repo/VCU14_29bit_overCAN_withIRP_new4g_proto26_adding_All10sec_data/Libraries/XMCLib/inc\xmc_gpio.h **** /**
 214:D:/Projects/VCU Firmware Main/IRP/Git Repo/VCU14_29bit_overCAN_withIRP_new4g_proto26_adding_All10sec_data/Libraries/XMCLib/inc\xmc_gpio.h ****  *
 215:D:/Projects/VCU Firmware Main/IRP/Git Repo/VCU14_29bit_overCAN_withIRP_new4g_proto26_adding_All10sec_data/Libraries/XMCLib/inc\xmc_gpio.h ****  * @param  port	 Constant pointer pointing to GPIO port, to access hardware register Pn_OMR.
 216:D:/Projects/VCU Firmware Main/IRP/Git Repo/VCU14_29bit_overCAN_withIRP_new4g_proto26_adding_All10sec_data/Libraries/XMCLib/inc\xmc_gpio.h ****  * @param  pin	 Port pin number.
 217:D:/Projects/VCU Firmware Main/IRP/Git Repo/VCU14_29bit_overCAN_withIRP_new4g_proto26_adding_All10sec_data/Libraries/XMCLib/inc\xmc_gpio.h ****  * @param  level output level selection. Refer @ref XMC_GPIO_OUTPUT_LEVEL_t for valid values.
 218:D:/Projects/VCU Firmware Main/IRP/Git Repo/VCU14_29bit_overCAN_withIRP_new4g_proto26_adding_All10sec_data/Libraries/XMCLib/inc\xmc_gpio.h ****  *
 219:D:/Projects/VCU Firmware Main/IRP/Git Repo/VCU14_29bit_overCAN_withIRP_new4g_proto26_adding_All10sec_data/Libraries/XMCLib/inc\xmc_gpio.h ****  * @return None
 220:D:/Projects/VCU Firmware Main/IRP/Git Repo/VCU14_29bit_overCAN_withIRP_new4g_proto26_adding_All10sec_data/Libraries/XMCLib/inc\xmc_gpio.h ****  *
 221:D:/Projects/VCU Firmware Main/IRP/Git Repo/VCU14_29bit_overCAN_withIRP_new4g_proto26_adding_All10sec_data/Libraries/XMCLib/inc\xmc_gpio.h ****  * \par<b>Description:</b><br>
 222:D:/Projects/VCU Firmware Main/IRP/Git Repo/VCU14_29bit_overCAN_withIRP_new4g_proto26_adding_All10sec_data/Libraries/XMCLib/inc\xmc_gpio.h ****  * Set port pin output level to high or low.It configures hardware registers Pn_OMR.\a level is ini
 223:D:/Projects/VCU Firmware Main/IRP/Git Repo/VCU14_29bit_overCAN_withIRP_new4g_proto26_adding_All10sec_data/Libraries/XMCLib/inc\xmc_gpio.h ****  * configured during initialization in XMC_GPIO_Init(). Call this API to alter output level as need
 224:D:/Projects/VCU Firmware Main/IRP/Git Repo/VCU14_29bit_overCAN_withIRP_new4g_proto26_adding_All10sec_data/Libraries/XMCLib/inc\xmc_gpio.h ****  *
 225:D:/Projects/VCU Firmware Main/IRP/Git Repo/VCU14_29bit_overCAN_withIRP_new4g_proto26_adding_All10sec_data/Libraries/XMCLib/inc\xmc_gpio.h ****  * \par<b>Related APIs:</b><BR>
 226:D:/Projects/VCU Firmware Main/IRP/Git Repo/VCU14_29bit_overCAN_withIRP_new4g_proto26_adding_All10sec_data/Libraries/XMCLib/inc\xmc_gpio.h ****  *  XMC_GPIO_SetOutputHigh(), XMC_GPIO_SetOutputLow().
 227:D:/Projects/VCU Firmware Main/IRP/Git Repo/VCU14_29bit_overCAN_withIRP_new4g_proto26_adding_All10sec_data/Libraries/XMCLib/inc\xmc_gpio.h ****  *
 228:D:/Projects/VCU Firmware Main/IRP/Git Repo/VCU14_29bit_overCAN_withIRP_new4g_proto26_adding_All10sec_data/Libraries/XMCLib/inc\xmc_gpio.h ****  * \par<b>Note:</b><br>
 229:D:/Projects/VCU Firmware Main/IRP/Git Repo/VCU14_29bit_overCAN_withIRP_new4g_proto26_adding_All10sec_data/Libraries/XMCLib/inc\xmc_gpio.h ****  * Prior to this api, user has to configure port pin to output mode using XMC_GPIO_SetMode().
 230:D:/Projects/VCU Firmware Main/IRP/Git Repo/VCU14_29bit_overCAN_withIRP_new4g_proto26_adding_All10sec_data/Libraries/XMCLib/inc\xmc_gpio.h ****  *
 231:D:/Projects/VCU Firmware Main/IRP/Git Repo/VCU14_29bit_overCAN_withIRP_new4g_proto26_adding_All10sec_data/Libraries/XMCLib/inc\xmc_gpio.h ****  */
 232:D:/Projects/VCU Firmware Main/IRP/Git Repo/VCU14_29bit_overCAN_withIRP_new4g_proto26_adding_All10sec_data/Libraries/XMCLib/inc\xmc_gpio.h **** 
 233:D:/Projects/VCU Firmware Main/IRP/Git Repo/VCU14_29bit_overCAN_withIRP_new4g_proto26_adding_All10sec_data/Libraries/XMCLib/inc\xmc_gpio.h **** 
 234:D:/Projects/VCU Firmware Main/IRP/Git Repo/VCU14_29bit_overCAN_withIRP_new4g_proto26_adding_All10sec_data/Libraries/XMCLib/inc\xmc_gpio.h **** __STATIC_INLINE void XMC_GPIO_SetOutputLevel(XMC_GPIO_PORT_t *const port, const uint8_t pin, const 
 235:D:/Projects/VCU Firmware Main/IRP/Git Repo/VCU14_29bit_overCAN_withIRP_new4g_proto26_adding_All10sec_data/Libraries/XMCLib/inc\xmc_gpio.h **** {
 236:D:/Projects/VCU Firmware Main/IRP/Git Repo/VCU14_29bit_overCAN_withIRP_new4g_proto26_adding_All10sec_data/Libraries/XMCLib/inc\xmc_gpio.h ****   XMC_ASSERT("XMC_GPIO_SetOutputLevel: Invalid port", XMC_GPIO_CHECK_OUTPUT_PORT(port));
 237:D:/Projects/VCU Firmware Main/IRP/Git Repo/VCU14_29bit_overCAN_withIRP_new4g_proto26_adding_All10sec_data/Libraries/XMCLib/inc\xmc_gpio.h ****   XMC_ASSERT("XMC_GPIO_SetOutputLevel: Invalid output level", XMC_GPIO_CHECK_OUTPUT_LEVEL(level));
 238:D:/Projects/VCU Firmware Main/IRP/Git Repo/VCU14_29bit_overCAN_withIRP_new4g_proto26_adding_All10sec_data/Libraries/XMCLib/inc\xmc_gpio.h **** 
 239:D:/Projects/VCU Firmware Main/IRP/Git Repo/VCU14_29bit_overCAN_withIRP_new4g_proto26_adding_All10sec_data/Libraries/XMCLib/inc\xmc_gpio.h ****   port->OMR = (uint32_t)level << pin;
 240:D:/Projects/VCU Firmware Main/IRP/Git Repo/VCU14_29bit_overCAN_withIRP_new4g_proto26_adding_All10sec_data/Libraries/XMCLib/inc\xmc_gpio.h **** }
 241:D:/Projects/VCU Firmware Main/IRP/Git Repo/VCU14_29bit_overCAN_withIRP_new4g_proto26_adding_All10sec_data/Libraries/XMCLib/inc\xmc_gpio.h **** 
 242:D:/Projects/VCU Firmware Main/IRP/Git Repo/VCU14_29bit_overCAN_withIRP_new4g_proto26_adding_All10sec_data/Libraries/XMCLib/inc\xmc_gpio.h **** 
 243:D:/Projects/VCU Firmware Main/IRP/Git Repo/VCU14_29bit_overCAN_withIRP_new4g_proto26_adding_All10sec_data/Libraries/XMCLib/inc\xmc_gpio.h **** /**
 244:D:/Projects/VCU Firmware Main/IRP/Git Repo/VCU14_29bit_overCAN_withIRP_new4g_proto26_adding_All10sec_data/Libraries/XMCLib/inc\xmc_gpio.h ****  * @param  port constant pointer pointing to GPIO port, to access hardware register Pn_OMR.
 245:D:/Projects/VCU Firmware Main/IRP/Git Repo/VCU14_29bit_overCAN_withIRP_new4g_proto26_adding_All10sec_data/Libraries/XMCLib/inc\xmc_gpio.h ****  * @param  pin	Port pin number.
 246:D:/Projects/VCU Firmware Main/IRP/Git Repo/VCU14_29bit_overCAN_withIRP_new4g_proto26_adding_All10sec_data/Libraries/XMCLib/inc\xmc_gpio.h ****  *
 247:D:/Projects/VCU Firmware Main/IRP/Git Repo/VCU14_29bit_overCAN_withIRP_new4g_proto26_adding_All10sec_data/Libraries/XMCLib/inc\xmc_gpio.h ****  * @return None
 248:D:/Projects/VCU Firmware Main/IRP/Git Repo/VCU14_29bit_overCAN_withIRP_new4g_proto26_adding_All10sec_data/Libraries/XMCLib/inc\xmc_gpio.h ****  *
 249:D:/Projects/VCU Firmware Main/IRP/Git Repo/VCU14_29bit_overCAN_withIRP_new4g_proto26_adding_All10sec_data/Libraries/XMCLib/inc\xmc_gpio.h ****  * \par<b>Description:</b><br>
 250:D:/Projects/VCU Firmware Main/IRP/Git Repo/VCU14_29bit_overCAN_withIRP_new4g_proto26_adding_All10sec_data/Libraries/XMCLib/inc\xmc_gpio.h ****  *  Sets port pin output to high. It configures hardware registers Pn_OMR.
 251:D:/Projects/VCU Firmware Main/IRP/Git Repo/VCU14_29bit_overCAN_withIRP_new4g_proto26_adding_All10sec_data/Libraries/XMCLib/inc\xmc_gpio.h ****  *
 252:D:/Projects/VCU Firmware Main/IRP/Git Repo/VCU14_29bit_overCAN_withIRP_new4g_proto26_adding_All10sec_data/Libraries/XMCLib/inc\xmc_gpio.h ****  *  \par<b>Related APIs:</b><BR>
 253:D:/Projects/VCU Firmware Main/IRP/Git Repo/VCU14_29bit_overCAN_withIRP_new4g_proto26_adding_All10sec_data/Libraries/XMCLib/inc\xmc_gpio.h ****  *  XMC_GPIO_SetOutputLow()
 254:D:/Projects/VCU Firmware Main/IRP/Git Repo/VCU14_29bit_overCAN_withIRP_new4g_proto26_adding_All10sec_data/Libraries/XMCLib/inc\xmc_gpio.h ****  *
 255:D:/Projects/VCU Firmware Main/IRP/Git Repo/VCU14_29bit_overCAN_withIRP_new4g_proto26_adding_All10sec_data/Libraries/XMCLib/inc\xmc_gpio.h ****  * \par<b>Note:</b><br>
 256:D:/Projects/VCU Firmware Main/IRP/Git Repo/VCU14_29bit_overCAN_withIRP_new4g_proto26_adding_All10sec_data/Libraries/XMCLib/inc\xmc_gpio.h ****  * Prior to this api, user has to configure port pin to output mode using XMC_GPIO_SetMode().\n
 257:D:/Projects/VCU Firmware Main/IRP/Git Repo/VCU14_29bit_overCAN_withIRP_new4g_proto26_adding_All10sec_data/Libraries/XMCLib/inc\xmc_gpio.h ****  * Register Pn_OMR is virtual and does not contain any flip-flop. A read action delivers the value 
 258:D:/Projects/VCU Firmware Main/IRP/Git Repo/VCU14_29bit_overCAN_withIRP_new4g_proto26_adding_All10sec_data/Libraries/XMCLib/inc\xmc_gpio.h ****  *
 259:D:/Projects/VCU Firmware Main/IRP/Git Repo/VCU14_29bit_overCAN_withIRP_new4g_proto26_adding_All10sec_data/Libraries/XMCLib/inc\xmc_gpio.h ****  */
 260:D:/Projects/VCU Firmware Main/IRP/Git Repo/VCU14_29bit_overCAN_withIRP_new4g_proto26_adding_All10sec_data/Libraries/XMCLib/inc\xmc_gpio.h **** 
 261:D:/Projects/VCU Firmware Main/IRP/Git Repo/VCU14_29bit_overCAN_withIRP_new4g_proto26_adding_All10sec_data/Libraries/XMCLib/inc\xmc_gpio.h **** __STATIC_INLINE void XMC_GPIO_SetOutputHigh(XMC_GPIO_PORT_t *const port, const uint8_t pin)
 262:D:/Projects/VCU Firmware Main/IRP/Git Repo/VCU14_29bit_overCAN_withIRP_new4g_proto26_adding_All10sec_data/Libraries/XMCLib/inc\xmc_gpio.h **** {
  27              	 .loc 1 262 0
  28              	 .cfi_startproc
  29              	 
  30              	 
  31              	 
  32 0000 80B4     	 push {r7}
  33              	.LCFI0:
  34              	 .cfi_def_cfa_offset 4
  35              	 .cfi_offset 7,-4
  36 0002 83B0     	 sub sp,sp,#12
  37              	.LCFI1:
  38              	 .cfi_def_cfa_offset 16
  39 0004 00AF     	 add r7,sp,#0
  40              	.LCFI2:
  41              	 .cfi_def_cfa_register 7
  42 0006 7860     	 str r0,[r7,#4]
  43 0008 0B46     	 mov r3,r1
  44 000a FB70     	 strb r3,[r7,#3]
 263:D:/Projects/VCU Firmware Main/IRP/Git Repo/VCU14_29bit_overCAN_withIRP_new4g_proto26_adding_All10sec_data/Libraries/XMCLib/inc\xmc_gpio.h ****   XMC_ASSERT("XMC_GPIO_SetOutputHigh: Invalid port", XMC_GPIO_CHECK_OUTPUT_PORT(port));
 264:D:/Projects/VCU Firmware Main/IRP/Git Repo/VCU14_29bit_overCAN_withIRP_new4g_proto26_adding_All10sec_data/Libraries/XMCLib/inc\xmc_gpio.h **** 
 265:D:/Projects/VCU Firmware Main/IRP/Git Repo/VCU14_29bit_overCAN_withIRP_new4g_proto26_adding_All10sec_data/Libraries/XMCLib/inc\xmc_gpio.h ****   port->OMR = (uint32_t)0x1U << pin;
  45              	 .loc 1 265 0
  46 000c FB78     	 ldrb r3,[r7,#3]
  47 000e 0122     	 movs r2,#1
  48 0010 9A40     	 lsls r2,r2,r3
  49 0012 7B68     	 ldr r3,[r7,#4]
  50 0014 5A60     	 str r2,[r3,#4]
 266:D:/Projects/VCU Firmware Main/IRP/Git Repo/VCU14_29bit_overCAN_withIRP_new4g_proto26_adding_All10sec_data/Libraries/XMCLib/inc\xmc_gpio.h **** }
  51              	 .loc 1 266 0
  52 0016 0C37     	 adds r7,r7,#12
  53              	.LCFI3:
  54              	 .cfi_def_cfa_offset 4
  55 0018 BD46     	 mov sp,r7
  56              	.LCFI4:
  57              	 .cfi_def_cfa_register 13
  58              	 
  59 001a 5DF8047B 	 ldr r7,[sp],#4
  60              	.LCFI5:
  61              	 .cfi_restore 7
  62              	 .cfi_def_cfa_offset 0
  63 001e 7047     	 bx lr
  64              	 .cfi_endproc
  65              	.LFE135:
  67              	 .section .text.XMC_GPIO_SetOutputLow,"ax",%progbits
  68              	 .align 2
  69              	 .thumb
  70              	 .thumb_func
  72              	XMC_GPIO_SetOutputLow:
  73              	.LFB136:
 267:D:/Projects/VCU Firmware Main/IRP/Git Repo/VCU14_29bit_overCAN_withIRP_new4g_proto26_adding_All10sec_data/Libraries/XMCLib/inc\xmc_gpio.h **** 
 268:D:/Projects/VCU Firmware Main/IRP/Git Repo/VCU14_29bit_overCAN_withIRP_new4g_proto26_adding_All10sec_data/Libraries/XMCLib/inc\xmc_gpio.h **** /**
 269:D:/Projects/VCU Firmware Main/IRP/Git Repo/VCU14_29bit_overCAN_withIRP_new4g_proto26_adding_All10sec_data/Libraries/XMCLib/inc\xmc_gpio.h ****  *
 270:D:/Projects/VCU Firmware Main/IRP/Git Repo/VCU14_29bit_overCAN_withIRP_new4g_proto26_adding_All10sec_data/Libraries/XMCLib/inc\xmc_gpio.h ****  * @param  port	constant pointer pointing to GPIO port, to access hardware register Pn_OMR.
 271:D:/Projects/VCU Firmware Main/IRP/Git Repo/VCU14_29bit_overCAN_withIRP_new4g_proto26_adding_All10sec_data/Libraries/XMCLib/inc\xmc_gpio.h ****  * @param  pin	port pin number.
 272:D:/Projects/VCU Firmware Main/IRP/Git Repo/VCU14_29bit_overCAN_withIRP_new4g_proto26_adding_All10sec_data/Libraries/XMCLib/inc\xmc_gpio.h ****  *
 273:D:/Projects/VCU Firmware Main/IRP/Git Repo/VCU14_29bit_overCAN_withIRP_new4g_proto26_adding_All10sec_data/Libraries/XMCLib/inc\xmc_gpio.h ****  * @return  None
 274:D:/Projects/VCU Firmware Main/IRP/Git Repo/VCU14_29bit_overCAN_withIRP_new4g_proto26_adding_All10sec_data/Libraries/XMCLib/inc\xmc_gpio.h ****  *
 275:D:/Projects/VCU Firmware Main/IRP/Git Repo/VCU14_29bit_overCAN_withIRP_new4g_proto26_adding_All10sec_data/Libraries/XMCLib/inc\xmc_gpio.h ****  *\par<b>Description:</b><br>
 276:D:/Projects/VCU Firmware Main/IRP/Git Repo/VCU14_29bit_overCAN_withIRP_new4g_proto26_adding_All10sec_data/Libraries/XMCLib/inc\xmc_gpio.h ****  * Sets port pin output to low. It configures hardware registers Pn_OMR.\n
 277:D:/Projects/VCU Firmware Main/IRP/Git Repo/VCU14_29bit_overCAN_withIRP_new4g_proto26_adding_All10sec_data/Libraries/XMCLib/inc\xmc_gpio.h ****  *
 278:D:/Projects/VCU Firmware Main/IRP/Git Repo/VCU14_29bit_overCAN_withIRP_new4g_proto26_adding_All10sec_data/Libraries/XMCLib/inc\xmc_gpio.h ****  * \par<b>Related APIs:</b><BR>>
 279:D:/Projects/VCU Firmware Main/IRP/Git Repo/VCU14_29bit_overCAN_withIRP_new4g_proto26_adding_All10sec_data/Libraries/XMCLib/inc\xmc_gpio.h ****  * XMC_GPIO_SetOutputHigh()
 280:D:/Projects/VCU Firmware Main/IRP/Git Repo/VCU14_29bit_overCAN_withIRP_new4g_proto26_adding_All10sec_data/Libraries/XMCLib/inc\xmc_gpio.h ****  *
 281:D:/Projects/VCU Firmware Main/IRP/Git Repo/VCU14_29bit_overCAN_withIRP_new4g_proto26_adding_All10sec_data/Libraries/XMCLib/inc\xmc_gpio.h ****  *\par<b>Note:</b><br>
 282:D:/Projects/VCU Firmware Main/IRP/Git Repo/VCU14_29bit_overCAN_withIRP_new4g_proto26_adding_All10sec_data/Libraries/XMCLib/inc\xmc_gpio.h ****  * Prior to this api, user has to configure port pin to output mode using XMC_GPIO_SetMode().
 283:D:/Projects/VCU Firmware Main/IRP/Git Repo/VCU14_29bit_overCAN_withIRP_new4g_proto26_adding_All10sec_data/Libraries/XMCLib/inc\xmc_gpio.h ****  * Register Pn_OMR is virtual and does not contain any flip-flop. A read action delivers the value 
 284:D:/Projects/VCU Firmware Main/IRP/Git Repo/VCU14_29bit_overCAN_withIRP_new4g_proto26_adding_All10sec_data/Libraries/XMCLib/inc\xmc_gpio.h ****  *
 285:D:/Projects/VCU Firmware Main/IRP/Git Repo/VCU14_29bit_overCAN_withIRP_new4g_proto26_adding_All10sec_data/Libraries/XMCLib/inc\xmc_gpio.h ****  */
 286:D:/Projects/VCU Firmware Main/IRP/Git Repo/VCU14_29bit_overCAN_withIRP_new4g_proto26_adding_All10sec_data/Libraries/XMCLib/inc\xmc_gpio.h **** 
 287:D:/Projects/VCU Firmware Main/IRP/Git Repo/VCU14_29bit_overCAN_withIRP_new4g_proto26_adding_All10sec_data/Libraries/XMCLib/inc\xmc_gpio.h **** __STATIC_INLINE void XMC_GPIO_SetOutputLow(XMC_GPIO_PORT_t *const port, const uint8_t pin)
 288:D:/Projects/VCU Firmware Main/IRP/Git Repo/VCU14_29bit_overCAN_withIRP_new4g_proto26_adding_All10sec_data/Libraries/XMCLib/inc\xmc_gpio.h **** {
  74              	 .loc 1 288 0
  75              	 .cfi_startproc
  76              	 
  77              	 
  78              	 
  79 0000 80B4     	 push {r7}
  80              	.LCFI6:
  81              	 .cfi_def_cfa_offset 4
  82              	 .cfi_offset 7,-4
  83 0002 83B0     	 sub sp,sp,#12
  84              	.LCFI7:
  85              	 .cfi_def_cfa_offset 16
  86 0004 00AF     	 add r7,sp,#0
  87              	.LCFI8:
  88              	 .cfi_def_cfa_register 7
  89 0006 7860     	 str r0,[r7,#4]
  90 0008 0B46     	 mov r3,r1
  91 000a FB70     	 strb r3,[r7,#3]
 289:D:/Projects/VCU Firmware Main/IRP/Git Repo/VCU14_29bit_overCAN_withIRP_new4g_proto26_adding_All10sec_data/Libraries/XMCLib/inc\xmc_gpio.h ****   XMC_ASSERT("XMC_GPIO_SetOutputLow: Invalid port", XMC_GPIO_CHECK_OUTPUT_PORT(port));
 290:D:/Projects/VCU Firmware Main/IRP/Git Repo/VCU14_29bit_overCAN_withIRP_new4g_proto26_adding_All10sec_data/Libraries/XMCLib/inc\xmc_gpio.h **** 
 291:D:/Projects/VCU Firmware Main/IRP/Git Repo/VCU14_29bit_overCAN_withIRP_new4g_proto26_adding_All10sec_data/Libraries/XMCLib/inc\xmc_gpio.h ****   port->OMR = 0x10000U << pin;
  92              	 .loc 1 291 0
  93 000c FB78     	 ldrb r3,[r7,#3]
  94 000e 4FF48032 	 mov r2,#65536
  95 0012 9A40     	 lsls r2,r2,r3
  96 0014 7B68     	 ldr r3,[r7,#4]
  97 0016 5A60     	 str r2,[r3,#4]
 292:D:/Projects/VCU Firmware Main/IRP/Git Repo/VCU14_29bit_overCAN_withIRP_new4g_proto26_adding_All10sec_data/Libraries/XMCLib/inc\xmc_gpio.h **** }
  98              	 .loc 1 292 0
  99 0018 0C37     	 adds r7,r7,#12
 100              	.LCFI9:
 101              	 .cfi_def_cfa_offset 4
 102 001a BD46     	 mov sp,r7
 103              	.LCFI10:
 104              	 .cfi_def_cfa_register 13
 105              	 
 106 001c 5DF8047B 	 ldr r7,[sp],#4
 107              	.LCFI11:
 108              	 .cfi_restore 7
 109              	 .cfi_def_cfa_offset 0
 110 0020 7047     	 bx lr
 111              	 .cfi_endproc
 112              	.LFE136:
 114 0022 00BF     	 .section .text.DIGITAL_IO_SetOutputHigh,"ax",%progbits
 115              	 .align 2
 116              	 .thumb
 117              	 .thumb_func
 119              	DIGITAL_IO_SetOutputHigh:
 120              	.LFB143:
 121              	 .file 2 "D:/Projects/VCU Firmware Main/IRP/Git Repo/VCU14_29bit_overCAN_withIRP_new4g_proto26_adding_All10sec_data/Dave/Generated/DIGITAL_IO/digital_io.h"
   1:D:/Projects/VCU Firmware Main/IRP/Git Repo/VCU14_29bit_overCAN_withIRP_new4g_proto26_adding_All10sec_data/Dave/Generated/DIGITAL_IO\digital_io.h **** /*
   2:D:/Projects/VCU Firmware Main/IRP/Git Repo/VCU14_29bit_overCAN_withIRP_new4g_proto26_adding_All10sec_data/Dave/Generated/DIGITAL_IO\digital_io.h ****  *
   3:D:/Projects/VCU Firmware Main/IRP/Git Repo/VCU14_29bit_overCAN_withIRP_new4g_proto26_adding_All10sec_data/Dave/Generated/DIGITAL_IO\digital_io.h ****  * @file digital_io.h
   4:D:/Projects/VCU Firmware Main/IRP/Git Repo/VCU14_29bit_overCAN_withIRP_new4g_proto26_adding_All10sec_data/Dave/Generated/DIGITAL_IO\digital_io.h ****  * @date 2021-01-08
   5:D:/Projects/VCU Firmware Main/IRP/Git Repo/VCU14_29bit_overCAN_withIRP_new4g_proto26_adding_All10sec_data/Dave/Generated/DIGITAL_IO\digital_io.h ****  *
   6:D:/Projects/VCU Firmware Main/IRP/Git Repo/VCU14_29bit_overCAN_withIRP_new4g_proto26_adding_All10sec_data/Dave/Generated/DIGITAL_IO\digital_io.h ****  * NOTE:
   7:D:/Projects/VCU Firmware Main/IRP/Git Repo/VCU14_29bit_overCAN_withIRP_new4g_proto26_adding_All10sec_data/Dave/Generated/DIGITAL_IO\digital_io.h ****  * This file is generated by DAVE. Any manual modification done to this file will be lost when the 
   8:D:/Projects/VCU Firmware Main/IRP/Git Repo/VCU14_29bit_overCAN_withIRP_new4g_proto26_adding_All10sec_data/Dave/Generated/DIGITAL_IO\digital_io.h ****  *
   9:D:/Projects/VCU Firmware Main/IRP/Git Repo/VCU14_29bit_overCAN_withIRP_new4g_proto26_adding_All10sec_data/Dave/Generated/DIGITAL_IO\digital_io.h ****  * @cond
  10:D:/Projects/VCU Firmware Main/IRP/Git Repo/VCU14_29bit_overCAN_withIRP_new4g_proto26_adding_All10sec_data/Dave/Generated/DIGITAL_IO\digital_io.h ****  **************************************************************************************************
  11:D:/Projects/VCU Firmware Main/IRP/Git Repo/VCU14_29bit_overCAN_withIRP_new4g_proto26_adding_All10sec_data/Dave/Generated/DIGITAL_IO\digital_io.h ****  * DIGITAL_IO v4.0.18 - The DIGITAL_IO APP is used to configure a port pin as digital Input/Output.
  12:D:/Projects/VCU Firmware Main/IRP/Git Repo/VCU14_29bit_overCAN_withIRP_new4g_proto26_adding_All10sec_data/Dave/Generated/DIGITAL_IO\digital_io.h ****  *
  13:D:/Projects/VCU Firmware Main/IRP/Git Repo/VCU14_29bit_overCAN_withIRP_new4g_proto26_adding_All10sec_data/Dave/Generated/DIGITAL_IO\digital_io.h ****  * Copyright (c) 2015-2020, Infineon Technologies AG
  14:D:/Projects/VCU Firmware Main/IRP/Git Repo/VCU14_29bit_overCAN_withIRP_new4g_proto26_adding_All10sec_data/Dave/Generated/DIGITAL_IO\digital_io.h ****  * All rights reserved.
  15:D:/Projects/VCU Firmware Main/IRP/Git Repo/VCU14_29bit_overCAN_withIRP_new4g_proto26_adding_All10sec_data/Dave/Generated/DIGITAL_IO\digital_io.h ****  *
  16:D:/Projects/VCU Firmware Main/IRP/Git Repo/VCU14_29bit_overCAN_withIRP_new4g_proto26_adding_All10sec_data/Dave/Generated/DIGITAL_IO\digital_io.h ****  * Redistribution and use in source and binary forms, with or without modification,are permitted pr
  17:D:/Projects/VCU Firmware Main/IRP/Git Repo/VCU14_29bit_overCAN_withIRP_new4g_proto26_adding_All10sec_data/Dave/Generated/DIGITAL_IO\digital_io.h ****  * following conditions are met:
  18:D:/Projects/VCU Firmware Main/IRP/Git Repo/VCU14_29bit_overCAN_withIRP_new4g_proto26_adding_All10sec_data/Dave/Generated/DIGITAL_IO\digital_io.h ****  *
  19:D:/Projects/VCU Firmware Main/IRP/Git Repo/VCU14_29bit_overCAN_withIRP_new4g_proto26_adding_All10sec_data/Dave/Generated/DIGITAL_IO\digital_io.h ****  *   Redistributions of source code must retain the above copyright notice, this list of conditions
  20:D:/Projects/VCU Firmware Main/IRP/Git Repo/VCU14_29bit_overCAN_withIRP_new4g_proto26_adding_All10sec_data/Dave/Generated/DIGITAL_IO\digital_io.h ****  *   disclaimer.
  21:D:/Projects/VCU Firmware Main/IRP/Git Repo/VCU14_29bit_overCAN_withIRP_new4g_proto26_adding_All10sec_data/Dave/Generated/DIGITAL_IO\digital_io.h ****  *
  22:D:/Projects/VCU Firmware Main/IRP/Git Repo/VCU14_29bit_overCAN_withIRP_new4g_proto26_adding_All10sec_data/Dave/Generated/DIGITAL_IO\digital_io.h ****  *   Redistributions in binary form must reproduce the above copyright notice, this list of conditi
  23:D:/Projects/VCU Firmware Main/IRP/Git Repo/VCU14_29bit_overCAN_withIRP_new4g_proto26_adding_All10sec_data/Dave/Generated/DIGITAL_IO\digital_io.h ****  *   following disclaimer in the documentation and/or other materials provided with the distributio
  24:D:/Projects/VCU Firmware Main/IRP/Git Repo/VCU14_29bit_overCAN_withIRP_new4g_proto26_adding_All10sec_data/Dave/Generated/DIGITAL_IO\digital_io.h ****  *
  25:D:/Projects/VCU Firmware Main/IRP/Git Repo/VCU14_29bit_overCAN_withIRP_new4g_proto26_adding_All10sec_data/Dave/Generated/DIGITAL_IO\digital_io.h ****  *   Neither the name of the copyright holders nor the names of its contributors may be used to end
  26:D:/Projects/VCU Firmware Main/IRP/Git Repo/VCU14_29bit_overCAN_withIRP_new4g_proto26_adding_All10sec_data/Dave/Generated/DIGITAL_IO\digital_io.h ****  *   products derived from this software without specific prior written permission.
  27:D:/Projects/VCU Firmware Main/IRP/Git Repo/VCU14_29bit_overCAN_withIRP_new4g_proto26_adding_All10sec_data/Dave/Generated/DIGITAL_IO\digital_io.h ****  *
  28:D:/Projects/VCU Firmware Main/IRP/Git Repo/VCU14_29bit_overCAN_withIRP_new4g_proto26_adding_All10sec_data/Dave/Generated/DIGITAL_IO\digital_io.h ****  * THIS SOFTWARE IS PROVIDED BY THE COPYRIGHT HOLDERS AND CONTRIBUTORS "AS IS" AND ANY EXPRESS OR I
  29:D:/Projects/VCU Firmware Main/IRP/Git Repo/VCU14_29bit_overCAN_withIRP_new4g_proto26_adding_All10sec_data/Dave/Generated/DIGITAL_IO\digital_io.h ****  * INCLUDING, BUT NOT LIMITED TO, THE IMPLIED WARRANTIES OF MERCHANTABILITY AND FITNESS FOR A PARTI
  30:D:/Projects/VCU Firmware Main/IRP/Git Repo/VCU14_29bit_overCAN_withIRP_new4g_proto26_adding_All10sec_data/Dave/Generated/DIGITAL_IO\digital_io.h ****  * DISCLAIMED. IN NO EVENT SHALL THE COPYRIGHT HOLDER OR CONTRIBUTORS BE LIABLE  FOR ANY DIRECT, IN
  31:D:/Projects/VCU Firmware Main/IRP/Git Repo/VCU14_29bit_overCAN_withIRP_new4g_proto26_adding_All10sec_data/Dave/Generated/DIGITAL_IO\digital_io.h ****  * SPECIAL, EXEMPLARY, OR CONSEQUENTIAL DAMAGES (INCLUDING, BUT NOT LIMITED TO, PROCUREMENT OF SUBS
  32:D:/Projects/VCU Firmware Main/IRP/Git Repo/VCU14_29bit_overCAN_withIRP_new4g_proto26_adding_All10sec_data/Dave/Generated/DIGITAL_IO\digital_io.h ****  * SERVICES; LOSS OF USE, DATA, OR PROFITS; OR BUSINESS INTERRUPTION) HOWEVER CAUSED AND ON ANY THE
  33:D:/Projects/VCU Firmware Main/IRP/Git Repo/VCU14_29bit_overCAN_withIRP_new4g_proto26_adding_All10sec_data/Dave/Generated/DIGITAL_IO\digital_io.h ****  * WHETHER IN CONTRACT, STRICT LIABILITY,OR TORT (INCLUDING NEGLIGENCE OR OTHERWISE) ARISING IN ANY
  34:D:/Projects/VCU Firmware Main/IRP/Git Repo/VCU14_29bit_overCAN_withIRP_new4g_proto26_adding_All10sec_data/Dave/Generated/DIGITAL_IO\digital_io.h ****  * USE OF THIS SOFTWARE, EVEN IF ADVISED OF THE POSSIBILITY OF SUCH DAMAGE.
  35:D:/Projects/VCU Firmware Main/IRP/Git Repo/VCU14_29bit_overCAN_withIRP_new4g_proto26_adding_All10sec_data/Dave/Generated/DIGITAL_IO\digital_io.h ****  *
  36:D:/Projects/VCU Firmware Main/IRP/Git Repo/VCU14_29bit_overCAN_withIRP_new4g_proto26_adding_All10sec_data/Dave/Generated/DIGITAL_IO\digital_io.h ****  * To improve the quality of the software, users are encouraged to share modifications, enhancement
  37:D:/Projects/VCU Firmware Main/IRP/Git Repo/VCU14_29bit_overCAN_withIRP_new4g_proto26_adding_All10sec_data/Dave/Generated/DIGITAL_IO\digital_io.h ****  * with Infineon Technologies AG (dave@infineon.com).
  38:D:/Projects/VCU Firmware Main/IRP/Git Repo/VCU14_29bit_overCAN_withIRP_new4g_proto26_adding_All10sec_data/Dave/Generated/DIGITAL_IO\digital_io.h ****  **************************************************************************************************
  39:D:/Projects/VCU Firmware Main/IRP/Git Repo/VCU14_29bit_overCAN_withIRP_new4g_proto26_adding_All10sec_data/Dave/Generated/DIGITAL_IO\digital_io.h ****  *
  40:D:/Projects/VCU Firmware Main/IRP/Git Repo/VCU14_29bit_overCAN_withIRP_new4g_proto26_adding_All10sec_data/Dave/Generated/DIGITAL_IO\digital_io.h ****  * Change History
  41:D:/Projects/VCU Firmware Main/IRP/Git Repo/VCU14_29bit_overCAN_withIRP_new4g_proto26_adding_All10sec_data/Dave/Generated/DIGITAL_IO\digital_io.h ****  * --------------
  42:D:/Projects/VCU Firmware Main/IRP/Git Repo/VCU14_29bit_overCAN_withIRP_new4g_proto26_adding_All10sec_data/Dave/Generated/DIGITAL_IO\digital_io.h ****  *
  43:D:/Projects/VCU Firmware Main/IRP/Git Repo/VCU14_29bit_overCAN_withIRP_new4g_proto26_adding_All10sec_data/Dave/Generated/DIGITAL_IO\digital_io.h ****  * 2015-02-16
  44:D:/Projects/VCU Firmware Main/IRP/Git Repo/VCU14_29bit_overCAN_withIRP_new4g_proto26_adding_All10sec_data/Dave/Generated/DIGITAL_IO\digital_io.h ****  *     - Initial version
  45:D:/Projects/VCU Firmware Main/IRP/Git Repo/VCU14_29bit_overCAN_withIRP_new4g_proto26_adding_All10sec_data/Dave/Generated/DIGITAL_IO\digital_io.h ****  *
  46:D:/Projects/VCU Firmware Main/IRP/Git Repo/VCU14_29bit_overCAN_withIRP_new4g_proto26_adding_All10sec_data/Dave/Generated/DIGITAL_IO\digital_io.h ****  * 2015-04-22
  47:D:/Projects/VCU Firmware Main/IRP/Git Repo/VCU14_29bit_overCAN_withIRP_new4g_proto26_adding_All10sec_data/Dave/Generated/DIGITAL_IO\digital_io.h ****  *     - XMC_ASSERT is added in static inline functions.<br>
  48:D:/Projects/VCU Firmware Main/IRP/Git Repo/VCU14_29bit_overCAN_withIRP_new4g_proto26_adding_All10sec_data/Dave/Generated/DIGITAL_IO\digital_io.h ****  *
  49:D:/Projects/VCU Firmware Main/IRP/Git Repo/VCU14_29bit_overCAN_withIRP_new4g_proto26_adding_All10sec_data/Dave/Generated/DIGITAL_IO\digital_io.h ****  * 2015-06-20
  50:D:/Projects/VCU Firmware Main/IRP/Git Repo/VCU14_29bit_overCAN_withIRP_new4g_proto26_adding_All10sec_data/Dave/Generated/DIGITAL_IO\digital_io.h ****  *     - Version check added for XMCLib dependency.<br>
  51:D:/Projects/VCU Firmware Main/IRP/Git Repo/VCU14_29bit_overCAN_withIRP_new4g_proto26_adding_All10sec_data/Dave/Generated/DIGITAL_IO\digital_io.h ****  *
  52:D:/Projects/VCU Firmware Main/IRP/Git Repo/VCU14_29bit_overCAN_withIRP_new4g_proto26_adding_All10sec_data/Dave/Generated/DIGITAL_IO\digital_io.h ****  * 2015-12-22
  53:D:/Projects/VCU Firmware Main/IRP/Git Repo/VCU14_29bit_overCAN_withIRP_new4g_proto26_adding_All10sec_data/Dave/Generated/DIGITAL_IO\digital_io.h ****  *     - Added hardware controlled IO feature.
  54:D:/Projects/VCU Firmware Main/IRP/Git Repo/VCU14_29bit_overCAN_withIRP_new4g_proto26_adding_All10sec_data/Dave/Generated/DIGITAL_IO\digital_io.h ****  * 2016-07-08:
  55:D:/Projects/VCU Firmware Main/IRP/Git Repo/VCU14_29bit_overCAN_withIRP_new4g_proto26_adding_All10sec_data/Dave/Generated/DIGITAL_IO\digital_io.h ****  *     - Fixed incorrect case for an included header.<br>
  56:D:/Projects/VCU Firmware Main/IRP/Git Repo/VCU14_29bit_overCAN_withIRP_new4g_proto26_adding_All10sec_data/Dave/Generated/DIGITAL_IO\digital_io.h ****  * 2021-01-08:
  57:D:/Projects/VCU Firmware Main/IRP/Git Repo/VCU14_29bit_overCAN_withIRP_new4g_proto26_adding_All10sec_data/Dave/Generated/DIGITAL_IO\digital_io.h ****  *     - Modified check for minimum XMCLib version
  58:D:/Projects/VCU Firmware Main/IRP/Git Repo/VCU14_29bit_overCAN_withIRP_new4g_proto26_adding_All10sec_data/Dave/Generated/DIGITAL_IO\digital_io.h ****  *
  59:D:/Projects/VCU Firmware Main/IRP/Git Repo/VCU14_29bit_overCAN_withIRP_new4g_proto26_adding_All10sec_data/Dave/Generated/DIGITAL_IO\digital_io.h ****  * @endcond
  60:D:/Projects/VCU Firmware Main/IRP/Git Repo/VCU14_29bit_overCAN_withIRP_new4g_proto26_adding_All10sec_data/Dave/Generated/DIGITAL_IO\digital_io.h ****  *
  61:D:/Projects/VCU Firmware Main/IRP/Git Repo/VCU14_29bit_overCAN_withIRP_new4g_proto26_adding_All10sec_data/Dave/Generated/DIGITAL_IO\digital_io.h ****  */
  62:D:/Projects/VCU Firmware Main/IRP/Git Repo/VCU14_29bit_overCAN_withIRP_new4g_proto26_adding_All10sec_data/Dave/Generated/DIGITAL_IO\digital_io.h **** 
  63:D:/Projects/VCU Firmware Main/IRP/Git Repo/VCU14_29bit_overCAN_withIRP_new4g_proto26_adding_All10sec_data/Dave/Generated/DIGITAL_IO\digital_io.h **** /**************************************************************************************************
  64:D:/Projects/VCU Firmware Main/IRP/Git Repo/VCU14_29bit_overCAN_withIRP_new4g_proto26_adding_All10sec_data/Dave/Generated/DIGITAL_IO\digital_io.h ****  * HEADER FILES
  65:D:/Projects/VCU Firmware Main/IRP/Git Repo/VCU14_29bit_overCAN_withIRP_new4g_proto26_adding_All10sec_data/Dave/Generated/DIGITAL_IO\digital_io.h ****  **************************************************************************************************
  66:D:/Projects/VCU Firmware Main/IRP/Git Repo/VCU14_29bit_overCAN_withIRP_new4g_proto26_adding_All10sec_data/Dave/Generated/DIGITAL_IO\digital_io.h **** 
  67:D:/Projects/VCU Firmware Main/IRP/Git Repo/VCU14_29bit_overCAN_withIRP_new4g_proto26_adding_All10sec_data/Dave/Generated/DIGITAL_IO\digital_io.h **** #ifndef DIGITAL_IO_H
  68:D:/Projects/VCU Firmware Main/IRP/Git Repo/VCU14_29bit_overCAN_withIRP_new4g_proto26_adding_All10sec_data/Dave/Generated/DIGITAL_IO\digital_io.h **** #define DIGITAL_IO_H
  69:D:/Projects/VCU Firmware Main/IRP/Git Repo/VCU14_29bit_overCAN_withIRP_new4g_proto26_adding_All10sec_data/Dave/Generated/DIGITAL_IO\digital_io.h **** 
  70:D:/Projects/VCU Firmware Main/IRP/Git Repo/VCU14_29bit_overCAN_withIRP_new4g_proto26_adding_All10sec_data/Dave/Generated/DIGITAL_IO\digital_io.h **** #include "xmc_gpio.h"
  71:D:/Projects/VCU Firmware Main/IRP/Git Repo/VCU14_29bit_overCAN_withIRP_new4g_proto26_adding_All10sec_data/Dave/Generated/DIGITAL_IO\digital_io.h **** #include "DAVE_Common.h"
  72:D:/Projects/VCU Firmware Main/IRP/Git Repo/VCU14_29bit_overCAN_withIRP_new4g_proto26_adding_All10sec_data/Dave/Generated/DIGITAL_IO\digital_io.h **** #include "digital_io_conf.h"
  73:D:/Projects/VCU Firmware Main/IRP/Git Repo/VCU14_29bit_overCAN_withIRP_new4g_proto26_adding_All10sec_data/Dave/Generated/DIGITAL_IO\digital_io.h **** 
  74:D:/Projects/VCU Firmware Main/IRP/Git Repo/VCU14_29bit_overCAN_withIRP_new4g_proto26_adding_All10sec_data/Dave/Generated/DIGITAL_IO\digital_io.h **** /**************************************************************************************************
  75:D:/Projects/VCU Firmware Main/IRP/Git Repo/VCU14_29bit_overCAN_withIRP_new4g_proto26_adding_All10sec_data/Dave/Generated/DIGITAL_IO\digital_io.h ****  * MACROS
  76:D:/Projects/VCU Firmware Main/IRP/Git Repo/VCU14_29bit_overCAN_withIRP_new4g_proto26_adding_All10sec_data/Dave/Generated/DIGITAL_IO\digital_io.h ****  **************************************************************************************************
  77:D:/Projects/VCU Firmware Main/IRP/Git Repo/VCU14_29bit_overCAN_withIRP_new4g_proto26_adding_All10sec_data/Dave/Generated/DIGITAL_IO\digital_io.h **** #define DIGITAL_IO_XMC_LIB_MAJOR_VERSION 2
  78:D:/Projects/VCU Firmware Main/IRP/Git Repo/VCU14_29bit_overCAN_withIRP_new4g_proto26_adding_All10sec_data/Dave/Generated/DIGITAL_IO\digital_io.h **** #define DIGITAL_IO_XMC_LIB_MINOR_VERSION 0
  79:D:/Projects/VCU Firmware Main/IRP/Git Repo/VCU14_29bit_overCAN_withIRP_new4g_proto26_adding_All10sec_data/Dave/Generated/DIGITAL_IO\digital_io.h **** #define DIGITAL_IO_XMC_LIB_PATCH_VERSION 0
  80:D:/Projects/VCU Firmware Main/IRP/Git Repo/VCU14_29bit_overCAN_withIRP_new4g_proto26_adding_All10sec_data/Dave/Generated/DIGITAL_IO\digital_io.h **** 
  81:D:/Projects/VCU Firmware Main/IRP/Git Repo/VCU14_29bit_overCAN_withIRP_new4g_proto26_adding_All10sec_data/Dave/Generated/DIGITAL_IO\digital_io.h **** #if !((XMC_LIB_MAJOR_VERSION > DIGITAL_IO_XMC_LIB_MAJOR_VERSION) ||\
  82:D:/Projects/VCU Firmware Main/IRP/Git Repo/VCU14_29bit_overCAN_withIRP_new4g_proto26_adding_All10sec_data/Dave/Generated/DIGITAL_IO\digital_io.h ****       ((XMC_LIB_MAJOR_VERSION == DIGITAL_IO_XMC_LIB_MAJOR_VERSION) && (XMC_LIB_MINOR_VERSION > DIGI
  83:D:/Projects/VCU Firmware Main/IRP/Git Repo/VCU14_29bit_overCAN_withIRP_new4g_proto26_adding_All10sec_data/Dave/Generated/DIGITAL_IO\digital_io.h ****       ((XMC_LIB_MAJOR_VERSION == DIGITAL_IO_XMC_LIB_MAJOR_VERSION) && (XMC_LIB_MINOR_VERSION == DIG
  84:D:/Projects/VCU Firmware Main/IRP/Git Repo/VCU14_29bit_overCAN_withIRP_new4g_proto26_adding_All10sec_data/Dave/Generated/DIGITAL_IO\digital_io.h **** #error "DIGITAL_IO requires XMC Peripheral Library v2.0.0 or higher"
  85:D:/Projects/VCU Firmware Main/IRP/Git Repo/VCU14_29bit_overCAN_withIRP_new4g_proto26_adding_All10sec_data/Dave/Generated/DIGITAL_IO\digital_io.h **** #endif
  86:D:/Projects/VCU Firmware Main/IRP/Git Repo/VCU14_29bit_overCAN_withIRP_new4g_proto26_adding_All10sec_data/Dave/Generated/DIGITAL_IO\digital_io.h **** 
  87:D:/Projects/VCU Firmware Main/IRP/Git Repo/VCU14_29bit_overCAN_withIRP_new4g_proto26_adding_All10sec_data/Dave/Generated/DIGITAL_IO\digital_io.h ****  /*************************************************************************************************
  88:D:/Projects/VCU Firmware Main/IRP/Git Repo/VCU14_29bit_overCAN_withIRP_new4g_proto26_adding_All10sec_data/Dave/Generated/DIGITAL_IO\digital_io.h ****  * ENUMS
  89:D:/Projects/VCU Firmware Main/IRP/Git Repo/VCU14_29bit_overCAN_withIRP_new4g_proto26_adding_All10sec_data/Dave/Generated/DIGITAL_IO\digital_io.h ****  **************************************************************************************************
  90:D:/Projects/VCU Firmware Main/IRP/Git Repo/VCU14_29bit_overCAN_withIRP_new4g_proto26_adding_All10sec_data/Dave/Generated/DIGITAL_IO\digital_io.h **** 
  91:D:/Projects/VCU Firmware Main/IRP/Git Repo/VCU14_29bit_overCAN_withIRP_new4g_proto26_adding_All10sec_data/Dave/Generated/DIGITAL_IO\digital_io.h **** /**
  92:D:/Projects/VCU Firmware Main/IRP/Git Repo/VCU14_29bit_overCAN_withIRP_new4g_proto26_adding_All10sec_data/Dave/Generated/DIGITAL_IO\digital_io.h **** * @ingroup DIGITAL_IO_enumerations
  93:D:/Projects/VCU Firmware Main/IRP/Git Repo/VCU14_29bit_overCAN_withIRP_new4g_proto26_adding_All10sec_data/Dave/Generated/DIGITAL_IO\digital_io.h **** * @{
  94:D:/Projects/VCU Firmware Main/IRP/Git Repo/VCU14_29bit_overCAN_withIRP_new4g_proto26_adding_All10sec_data/Dave/Generated/DIGITAL_IO\digital_io.h **** */
  95:D:/Projects/VCU Firmware Main/IRP/Git Repo/VCU14_29bit_overCAN_withIRP_new4g_proto26_adding_All10sec_data/Dave/Generated/DIGITAL_IO\digital_io.h **** 
  96:D:/Projects/VCU Firmware Main/IRP/Git Repo/VCU14_29bit_overCAN_withIRP_new4g_proto26_adding_All10sec_data/Dave/Generated/DIGITAL_IO\digital_io.h **** /**
  97:D:/Projects/VCU Firmware Main/IRP/Git Repo/VCU14_29bit_overCAN_withIRP_new4g_proto26_adding_All10sec_data/Dave/Generated/DIGITAL_IO\digital_io.h **** * @brief Initialization status of DIGITAL_IO APP.
  98:D:/Projects/VCU Firmware Main/IRP/Git Repo/VCU14_29bit_overCAN_withIRP_new4g_proto26_adding_All10sec_data/Dave/Generated/DIGITAL_IO\digital_io.h **** */
  99:D:/Projects/VCU Firmware Main/IRP/Git Repo/VCU14_29bit_overCAN_withIRP_new4g_proto26_adding_All10sec_data/Dave/Generated/DIGITAL_IO\digital_io.h **** typedef enum DIGITAL_IO_STATUS
 100:D:/Projects/VCU Firmware Main/IRP/Git Repo/VCU14_29bit_overCAN_withIRP_new4g_proto26_adding_All10sec_data/Dave/Generated/DIGITAL_IO\digital_io.h **** {
 101:D:/Projects/VCU Firmware Main/IRP/Git Repo/VCU14_29bit_overCAN_withIRP_new4g_proto26_adding_All10sec_data/Dave/Generated/DIGITAL_IO\digital_io.h ****   DIGITAL_IO_STATUS_OK = 0U,/**< 0=Status OK */
 102:D:/Projects/VCU Firmware Main/IRP/Git Repo/VCU14_29bit_overCAN_withIRP_new4g_proto26_adding_All10sec_data/Dave/Generated/DIGITAL_IO\digital_io.h ****   DIGITAL_IO_STATUS_FAILURE = 1U/**< 1=Status Failed */
 103:D:/Projects/VCU Firmware Main/IRP/Git Repo/VCU14_29bit_overCAN_withIRP_new4g_proto26_adding_All10sec_data/Dave/Generated/DIGITAL_IO\digital_io.h **** } DIGITAL_IO_STATUS_t;
 104:D:/Projects/VCU Firmware Main/IRP/Git Repo/VCU14_29bit_overCAN_withIRP_new4g_proto26_adding_All10sec_data/Dave/Generated/DIGITAL_IO\digital_io.h **** 
 105:D:/Projects/VCU Firmware Main/IRP/Git Repo/VCU14_29bit_overCAN_withIRP_new4g_proto26_adding_All10sec_data/Dave/Generated/DIGITAL_IO\digital_io.h **** /**
 106:D:/Projects/VCU Firmware Main/IRP/Git Repo/VCU14_29bit_overCAN_withIRP_new4g_proto26_adding_All10sec_data/Dave/Generated/DIGITAL_IO\digital_io.h **** * @}
 107:D:/Projects/VCU Firmware Main/IRP/Git Repo/VCU14_29bit_overCAN_withIRP_new4g_proto26_adding_All10sec_data/Dave/Generated/DIGITAL_IO\digital_io.h **** */
 108:D:/Projects/VCU Firmware Main/IRP/Git Repo/VCU14_29bit_overCAN_withIRP_new4g_proto26_adding_All10sec_data/Dave/Generated/DIGITAL_IO\digital_io.h **** 
 109:D:/Projects/VCU Firmware Main/IRP/Git Repo/VCU14_29bit_overCAN_withIRP_new4g_proto26_adding_All10sec_data/Dave/Generated/DIGITAL_IO\digital_io.h **** /**************************************************************************************************
 110:D:/Projects/VCU Firmware Main/IRP/Git Repo/VCU14_29bit_overCAN_withIRP_new4g_proto26_adding_All10sec_data/Dave/Generated/DIGITAL_IO\digital_io.h ****  * DATA STRUCTURES
 111:D:/Projects/VCU Firmware Main/IRP/Git Repo/VCU14_29bit_overCAN_withIRP_new4g_proto26_adding_All10sec_data/Dave/Generated/DIGITAL_IO\digital_io.h ****  **************************************************************************************************
 112:D:/Projects/VCU Firmware Main/IRP/Git Repo/VCU14_29bit_overCAN_withIRP_new4g_proto26_adding_All10sec_data/Dave/Generated/DIGITAL_IO\digital_io.h **** /**
 113:D:/Projects/VCU Firmware Main/IRP/Git Repo/VCU14_29bit_overCAN_withIRP_new4g_proto26_adding_All10sec_data/Dave/Generated/DIGITAL_IO\digital_io.h **** * @ingroup DIGITAL_IO_datastructures
 114:D:/Projects/VCU Firmware Main/IRP/Git Repo/VCU14_29bit_overCAN_withIRP_new4g_proto26_adding_All10sec_data/Dave/Generated/DIGITAL_IO\digital_io.h **** * @{
 115:D:/Projects/VCU Firmware Main/IRP/Git Repo/VCU14_29bit_overCAN_withIRP_new4g_proto26_adding_All10sec_data/Dave/Generated/DIGITAL_IO\digital_io.h **** */
 116:D:/Projects/VCU Firmware Main/IRP/Git Repo/VCU14_29bit_overCAN_withIRP_new4g_proto26_adding_All10sec_data/Dave/Generated/DIGITAL_IO\digital_io.h **** 
 117:D:/Projects/VCU Firmware Main/IRP/Git Repo/VCU14_29bit_overCAN_withIRP_new4g_proto26_adding_All10sec_data/Dave/Generated/DIGITAL_IO\digital_io.h **** /**
 118:D:/Projects/VCU Firmware Main/IRP/Git Repo/VCU14_29bit_overCAN_withIRP_new4g_proto26_adding_All10sec_data/Dave/Generated/DIGITAL_IO\digital_io.h **** * @brief Initialization data structure of DIGITAL_IO APP
 119:D:/Projects/VCU Firmware Main/IRP/Git Repo/VCU14_29bit_overCAN_withIRP_new4g_proto26_adding_All10sec_data/Dave/Generated/DIGITAL_IO\digital_io.h **** */
 120:D:/Projects/VCU Firmware Main/IRP/Git Repo/VCU14_29bit_overCAN_withIRP_new4g_proto26_adding_All10sec_data/Dave/Generated/DIGITAL_IO\digital_io.h **** typedef struct DIGITAL_IO
 121:D:/Projects/VCU Firmware Main/IRP/Git Repo/VCU14_29bit_overCAN_withIRP_new4g_proto26_adding_All10sec_data/Dave/Generated/DIGITAL_IO\digital_io.h **** {
 122:D:/Projects/VCU Firmware Main/IRP/Git Repo/VCU14_29bit_overCAN_withIRP_new4g_proto26_adding_All10sec_data/Dave/Generated/DIGITAL_IO\digital_io.h ****   XMC_GPIO_PORT_t *const gpio_port;             /**< port number */
 123:D:/Projects/VCU Firmware Main/IRP/Git Repo/VCU14_29bit_overCAN_withIRP_new4g_proto26_adding_All10sec_data/Dave/Generated/DIGITAL_IO\digital_io.h ****   const XMC_GPIO_CONFIG_t gpio_config;          /**< mode, initial output level and pad driver stre
 124:D:/Projects/VCU Firmware Main/IRP/Git Repo/VCU14_29bit_overCAN_withIRP_new4g_proto26_adding_All10sec_data/Dave/Generated/DIGITAL_IO\digital_io.h ****   const uint8_t gpio_pin;                       /**< pin number */
 125:D:/Projects/VCU Firmware Main/IRP/Git Repo/VCU14_29bit_overCAN_withIRP_new4g_proto26_adding_All10sec_data/Dave/Generated/DIGITAL_IO\digital_io.h ****   const XMC_GPIO_HWCTRL_t hwctrl;               /**< Hardware port control */
 126:D:/Projects/VCU Firmware Main/IRP/Git Repo/VCU14_29bit_overCAN_withIRP_new4g_proto26_adding_All10sec_data/Dave/Generated/DIGITAL_IO\digital_io.h **** } DIGITAL_IO_t;
 127:D:/Projects/VCU Firmware Main/IRP/Git Repo/VCU14_29bit_overCAN_withIRP_new4g_proto26_adding_All10sec_data/Dave/Generated/DIGITAL_IO\digital_io.h **** 
 128:D:/Projects/VCU Firmware Main/IRP/Git Repo/VCU14_29bit_overCAN_withIRP_new4g_proto26_adding_All10sec_data/Dave/Generated/DIGITAL_IO\digital_io.h **** 
 129:D:/Projects/VCU Firmware Main/IRP/Git Repo/VCU14_29bit_overCAN_withIRP_new4g_proto26_adding_All10sec_data/Dave/Generated/DIGITAL_IO\digital_io.h **** /**
 130:D:/Projects/VCU Firmware Main/IRP/Git Repo/VCU14_29bit_overCAN_withIRP_new4g_proto26_adding_All10sec_data/Dave/Generated/DIGITAL_IO\digital_io.h **** * @}
 131:D:/Projects/VCU Firmware Main/IRP/Git Repo/VCU14_29bit_overCAN_withIRP_new4g_proto26_adding_All10sec_data/Dave/Generated/DIGITAL_IO\digital_io.h **** */
 132:D:/Projects/VCU Firmware Main/IRP/Git Repo/VCU14_29bit_overCAN_withIRP_new4g_proto26_adding_All10sec_data/Dave/Generated/DIGITAL_IO\digital_io.h **** 
 133:D:/Projects/VCU Firmware Main/IRP/Git Repo/VCU14_29bit_overCAN_withIRP_new4g_proto26_adding_All10sec_data/Dave/Generated/DIGITAL_IO\digital_io.h **** 
 134:D:/Projects/VCU Firmware Main/IRP/Git Repo/VCU14_29bit_overCAN_withIRP_new4g_proto26_adding_All10sec_data/Dave/Generated/DIGITAL_IO\digital_io.h **** /**************************************************************************************************
 135:D:/Projects/VCU Firmware Main/IRP/Git Repo/VCU14_29bit_overCAN_withIRP_new4g_proto26_adding_All10sec_data/Dave/Generated/DIGITAL_IO\digital_io.h ****  * API Prototypes
 136:D:/Projects/VCU Firmware Main/IRP/Git Repo/VCU14_29bit_overCAN_withIRP_new4g_proto26_adding_All10sec_data/Dave/Generated/DIGITAL_IO\digital_io.h ****  **************************************************************************************************
 137:D:/Projects/VCU Firmware Main/IRP/Git Repo/VCU14_29bit_overCAN_withIRP_new4g_proto26_adding_All10sec_data/Dave/Generated/DIGITAL_IO\digital_io.h **** 
 138:D:/Projects/VCU Firmware Main/IRP/Git Repo/VCU14_29bit_overCAN_withIRP_new4g_proto26_adding_All10sec_data/Dave/Generated/DIGITAL_IO\digital_io.h **** 
 139:D:/Projects/VCU Firmware Main/IRP/Git Repo/VCU14_29bit_overCAN_withIRP_new4g_proto26_adding_All10sec_data/Dave/Generated/DIGITAL_IO\digital_io.h **** #ifdef __cplusplus
 140:D:/Projects/VCU Firmware Main/IRP/Git Repo/VCU14_29bit_overCAN_withIRP_new4g_proto26_adding_All10sec_data/Dave/Generated/DIGITAL_IO\digital_io.h **** extern "C" {
 141:D:/Projects/VCU Firmware Main/IRP/Git Repo/VCU14_29bit_overCAN_withIRP_new4g_proto26_adding_All10sec_data/Dave/Generated/DIGITAL_IO\digital_io.h **** #endif
 142:D:/Projects/VCU Firmware Main/IRP/Git Repo/VCU14_29bit_overCAN_withIRP_new4g_proto26_adding_All10sec_data/Dave/Generated/DIGITAL_IO\digital_io.h **** 
 143:D:/Projects/VCU Firmware Main/IRP/Git Repo/VCU14_29bit_overCAN_withIRP_new4g_proto26_adding_All10sec_data/Dave/Generated/DIGITAL_IO\digital_io.h **** /**
 144:D:/Projects/VCU Firmware Main/IRP/Git Repo/VCU14_29bit_overCAN_withIRP_new4g_proto26_adding_All10sec_data/Dave/Generated/DIGITAL_IO\digital_io.h **** * @ingroup DIGITAL_IO_apidoc
 145:D:/Projects/VCU Firmware Main/IRP/Git Repo/VCU14_29bit_overCAN_withIRP_new4g_proto26_adding_All10sec_data/Dave/Generated/DIGITAL_IO\digital_io.h **** * @{
 146:D:/Projects/VCU Firmware Main/IRP/Git Repo/VCU14_29bit_overCAN_withIRP_new4g_proto26_adding_All10sec_data/Dave/Generated/DIGITAL_IO\digital_io.h **** */
 147:D:/Projects/VCU Firmware Main/IRP/Git Repo/VCU14_29bit_overCAN_withIRP_new4g_proto26_adding_All10sec_data/Dave/Generated/DIGITAL_IO\digital_io.h **** 
 148:D:/Projects/VCU Firmware Main/IRP/Git Repo/VCU14_29bit_overCAN_withIRP_new4g_proto26_adding_All10sec_data/Dave/Generated/DIGITAL_IO\digital_io.h **** 
 149:D:/Projects/VCU Firmware Main/IRP/Git Repo/VCU14_29bit_overCAN_withIRP_new4g_proto26_adding_All10sec_data/Dave/Generated/DIGITAL_IO\digital_io.h **** 
 150:D:/Projects/VCU Firmware Main/IRP/Git Repo/VCU14_29bit_overCAN_withIRP_new4g_proto26_adding_All10sec_data/Dave/Generated/DIGITAL_IO\digital_io.h **** /**
 151:D:/Projects/VCU Firmware Main/IRP/Git Repo/VCU14_29bit_overCAN_withIRP_new4g_proto26_adding_All10sec_data/Dave/Generated/DIGITAL_IO\digital_io.h **** * @brief Get DIGITAL_IO APP version
 152:D:/Projects/VCU Firmware Main/IRP/Git Repo/VCU14_29bit_overCAN_withIRP_new4g_proto26_adding_All10sec_data/Dave/Generated/DIGITAL_IO\digital_io.h **** * @return DAVE_APP_VERSION_t APP version information (major, minor and patch number)
 153:D:/Projects/VCU Firmware Main/IRP/Git Repo/VCU14_29bit_overCAN_withIRP_new4g_proto26_adding_All10sec_data/Dave/Generated/DIGITAL_IO\digital_io.h **** *
 154:D:/Projects/VCU Firmware Main/IRP/Git Repo/VCU14_29bit_overCAN_withIRP_new4g_proto26_adding_All10sec_data/Dave/Generated/DIGITAL_IO\digital_io.h **** * \par<b>Description: </b><br>
 155:D:/Projects/VCU Firmware Main/IRP/Git Repo/VCU14_29bit_overCAN_withIRP_new4g_proto26_adding_All10sec_data/Dave/Generated/DIGITAL_IO\digital_io.h **** * The function can be used to check application software compatibility with a
 156:D:/Projects/VCU Firmware Main/IRP/Git Repo/VCU14_29bit_overCAN_withIRP_new4g_proto26_adding_All10sec_data/Dave/Generated/DIGITAL_IO\digital_io.h **** * specific version of the APP.
 157:D:/Projects/VCU Firmware Main/IRP/Git Repo/VCU14_29bit_overCAN_withIRP_new4g_proto26_adding_All10sec_data/Dave/Generated/DIGITAL_IO\digital_io.h **** *
 158:D:/Projects/VCU Firmware Main/IRP/Git Repo/VCU14_29bit_overCAN_withIRP_new4g_proto26_adding_All10sec_data/Dave/Generated/DIGITAL_IO\digital_io.h **** * Example Usage:
 159:D:/Projects/VCU Firmware Main/IRP/Git Repo/VCU14_29bit_overCAN_withIRP_new4g_proto26_adding_All10sec_data/Dave/Generated/DIGITAL_IO\digital_io.h **** *
 160:D:/Projects/VCU Firmware Main/IRP/Git Repo/VCU14_29bit_overCAN_withIRP_new4g_proto26_adding_All10sec_data/Dave/Generated/DIGITAL_IO\digital_io.h **** * @code
 161:D:/Projects/VCU Firmware Main/IRP/Git Repo/VCU14_29bit_overCAN_withIRP_new4g_proto26_adding_All10sec_data/Dave/Generated/DIGITAL_IO\digital_io.h **** * #include "DAVE.h"
 162:D:/Projects/VCU Firmware Main/IRP/Git Repo/VCU14_29bit_overCAN_withIRP_new4g_proto26_adding_All10sec_data/Dave/Generated/DIGITAL_IO\digital_io.h **** *
 163:D:/Projects/VCU Firmware Main/IRP/Git Repo/VCU14_29bit_overCAN_withIRP_new4g_proto26_adding_All10sec_data/Dave/Generated/DIGITAL_IO\digital_io.h **** * int main(void)
 164:D:/Projects/VCU Firmware Main/IRP/Git Repo/VCU14_29bit_overCAN_withIRP_new4g_proto26_adding_All10sec_data/Dave/Generated/DIGITAL_IO\digital_io.h **** * {
 165:D:/Projects/VCU Firmware Main/IRP/Git Repo/VCU14_29bit_overCAN_withIRP_new4g_proto26_adding_All10sec_data/Dave/Generated/DIGITAL_IO\digital_io.h **** *   DAVE_STATUS_t init_status;
 166:D:/Projects/VCU Firmware Main/IRP/Git Repo/VCU14_29bit_overCAN_withIRP_new4g_proto26_adding_All10sec_data/Dave/Generated/DIGITAL_IO\digital_io.h **** *   DAVE_APP_VERSION_t version;
 167:D:/Projects/VCU Firmware Main/IRP/Git Repo/VCU14_29bit_overCAN_withIRP_new4g_proto26_adding_All10sec_data/Dave/Generated/DIGITAL_IO\digital_io.h **** *
 168:D:/Projects/VCU Firmware Main/IRP/Git Repo/VCU14_29bit_overCAN_withIRP_new4g_proto26_adding_All10sec_data/Dave/Generated/DIGITAL_IO\digital_io.h **** *   // Initialize DIGITAL_IO APP:
 169:D:/Projects/VCU Firmware Main/IRP/Git Repo/VCU14_29bit_overCAN_withIRP_new4g_proto26_adding_All10sec_data/Dave/Generated/DIGITAL_IO\digital_io.h **** *   // DIGITAL_IO_Init() is called from within DAVE_Init().
 170:D:/Projects/VCU Firmware Main/IRP/Git Repo/VCU14_29bit_overCAN_withIRP_new4g_proto26_adding_All10sec_data/Dave/Generated/DIGITAL_IO\digital_io.h **** *   init_status = DAVE_Init();
 171:D:/Projects/VCU Firmware Main/IRP/Git Repo/VCU14_29bit_overCAN_withIRP_new4g_proto26_adding_All10sec_data/Dave/Generated/DIGITAL_IO\digital_io.h **** *   if(init_status == DAVE_STATUS_SUCCESS)
 172:D:/Projects/VCU Firmware Main/IRP/Git Repo/VCU14_29bit_overCAN_withIRP_new4g_proto26_adding_All10sec_data/Dave/Generated/DIGITAL_IO\digital_io.h **** *   {
 173:D:/Projects/VCU Firmware Main/IRP/Git Repo/VCU14_29bit_overCAN_withIRP_new4g_proto26_adding_All10sec_data/Dave/Generated/DIGITAL_IO\digital_io.h **** *     version = DIGITAL_IO_GetAppVersion();
 174:D:/Projects/VCU Firmware Main/IRP/Git Repo/VCU14_29bit_overCAN_withIRP_new4g_proto26_adding_All10sec_data/Dave/Generated/DIGITAL_IO\digital_io.h **** *     if (version.major != 4U) {
 175:D:/Projects/VCU Firmware Main/IRP/Git Repo/VCU14_29bit_overCAN_withIRP_new4g_proto26_adding_All10sec_data/Dave/Generated/DIGITAL_IO\digital_io.h **** *     // Probably, not the right version.
 176:D:/Projects/VCU Firmware Main/IRP/Git Repo/VCU14_29bit_overCAN_withIRP_new4g_proto26_adding_All10sec_data/Dave/Generated/DIGITAL_IO\digital_io.h **** *     }
 177:D:/Projects/VCU Firmware Main/IRP/Git Repo/VCU14_29bit_overCAN_withIRP_new4g_proto26_adding_All10sec_data/Dave/Generated/DIGITAL_IO\digital_io.h **** *   }
 178:D:/Projects/VCU Firmware Main/IRP/Git Repo/VCU14_29bit_overCAN_withIRP_new4g_proto26_adding_All10sec_data/Dave/Generated/DIGITAL_IO\digital_io.h **** *
 179:D:/Projects/VCU Firmware Main/IRP/Git Repo/VCU14_29bit_overCAN_withIRP_new4g_proto26_adding_All10sec_data/Dave/Generated/DIGITAL_IO\digital_io.h **** *     // More code here
 180:D:/Projects/VCU Firmware Main/IRP/Git Repo/VCU14_29bit_overCAN_withIRP_new4g_proto26_adding_All10sec_data/Dave/Generated/DIGITAL_IO\digital_io.h **** *     while(1) {
 181:D:/Projects/VCU Firmware Main/IRP/Git Repo/VCU14_29bit_overCAN_withIRP_new4g_proto26_adding_All10sec_data/Dave/Generated/DIGITAL_IO\digital_io.h **** *
 182:D:/Projects/VCU Firmware Main/IRP/Git Repo/VCU14_29bit_overCAN_withIRP_new4g_proto26_adding_All10sec_data/Dave/Generated/DIGITAL_IO\digital_io.h **** *     }
 183:D:/Projects/VCU Firmware Main/IRP/Git Repo/VCU14_29bit_overCAN_withIRP_new4g_proto26_adding_All10sec_data/Dave/Generated/DIGITAL_IO\digital_io.h **** *     return (1);
 184:D:/Projects/VCU Firmware Main/IRP/Git Repo/VCU14_29bit_overCAN_withIRP_new4g_proto26_adding_All10sec_data/Dave/Generated/DIGITAL_IO\digital_io.h **** *  }
 185:D:/Projects/VCU Firmware Main/IRP/Git Repo/VCU14_29bit_overCAN_withIRP_new4g_proto26_adding_All10sec_data/Dave/Generated/DIGITAL_IO\digital_io.h **** * @endcode<BR>
 186:D:/Projects/VCU Firmware Main/IRP/Git Repo/VCU14_29bit_overCAN_withIRP_new4g_proto26_adding_All10sec_data/Dave/Generated/DIGITAL_IO\digital_io.h **** */
 187:D:/Projects/VCU Firmware Main/IRP/Git Repo/VCU14_29bit_overCAN_withIRP_new4g_proto26_adding_All10sec_data/Dave/Generated/DIGITAL_IO\digital_io.h **** 
 188:D:/Projects/VCU Firmware Main/IRP/Git Repo/VCU14_29bit_overCAN_withIRP_new4g_proto26_adding_All10sec_data/Dave/Generated/DIGITAL_IO\digital_io.h **** DAVE_APP_VERSION_t DIGITAL_IO_GetAppVersion(void);
 189:D:/Projects/VCU Firmware Main/IRP/Git Repo/VCU14_29bit_overCAN_withIRP_new4g_proto26_adding_All10sec_data/Dave/Generated/DIGITAL_IO\digital_io.h **** 
 190:D:/Projects/VCU Firmware Main/IRP/Git Repo/VCU14_29bit_overCAN_withIRP_new4g_proto26_adding_All10sec_data/Dave/Generated/DIGITAL_IO\digital_io.h **** /**
 191:D:/Projects/VCU Firmware Main/IRP/Git Repo/VCU14_29bit_overCAN_withIRP_new4g_proto26_adding_All10sec_data/Dave/Generated/DIGITAL_IO\digital_io.h **** *
 192:D:/Projects/VCU Firmware Main/IRP/Git Repo/VCU14_29bit_overCAN_withIRP_new4g_proto26_adding_All10sec_data/Dave/Generated/DIGITAL_IO\digital_io.h **** * @brief Function to initialize the port pin as per UI settings.
 193:D:/Projects/VCU Firmware Main/IRP/Git Repo/VCU14_29bit_overCAN_withIRP_new4g_proto26_adding_All10sec_data/Dave/Generated/DIGITAL_IO\digital_io.h **** * @param handler Pointer pointing to APP data structure. Refer @ref DIGITAL_IO_t for details.
 194:D:/Projects/VCU Firmware Main/IRP/Git Repo/VCU14_29bit_overCAN_withIRP_new4g_proto26_adding_All10sec_data/Dave/Generated/DIGITAL_IO\digital_io.h **** * @return DIGITAL_IO_STATUS_t DIGITAL_IO APP status. Refer @ref DIGITAL_IO_STATUS_t structure for d
 195:D:/Projects/VCU Firmware Main/IRP/Git Repo/VCU14_29bit_overCAN_withIRP_new4g_proto26_adding_All10sec_data/Dave/Generated/DIGITAL_IO\digital_io.h **** *
 196:D:/Projects/VCU Firmware Main/IRP/Git Repo/VCU14_29bit_overCAN_withIRP_new4g_proto26_adding_All10sec_data/Dave/Generated/DIGITAL_IO\digital_io.h **** * \par<b>Description:</b><br>
 197:D:/Projects/VCU Firmware Main/IRP/Git Repo/VCU14_29bit_overCAN_withIRP_new4g_proto26_adding_All10sec_data/Dave/Generated/DIGITAL_IO\digital_io.h **** * This function initializes GPIO port registers IOCR,PDISC,OMR,PDR/PHCR to configure pin direction,
 198:D:/Projects/VCU Firmware Main/IRP/Git Repo/VCU14_29bit_overCAN_withIRP_new4g_proto26_adding_All10sec_data/Dave/Generated/DIGITAL_IO\digital_io.h **** * and pad driver strength/hysteresis.
 199:D:/Projects/VCU Firmware Main/IRP/Git Repo/VCU14_29bit_overCAN_withIRP_new4g_proto26_adding_All10sec_data/Dave/Generated/DIGITAL_IO\digital_io.h **** *
 200:D:/Projects/VCU Firmware Main/IRP/Git Repo/VCU14_29bit_overCAN_withIRP_new4g_proto26_adding_All10sec_data/Dave/Generated/DIGITAL_IO\digital_io.h **** * \par<b>Related APIs:</b><BR>
 201:D:/Projects/VCU Firmware Main/IRP/Git Repo/VCU14_29bit_overCAN_withIRP_new4g_proto26_adding_All10sec_data/Dave/Generated/DIGITAL_IO\digital_io.h **** * None
 202:D:/Projects/VCU Firmware Main/IRP/Git Repo/VCU14_29bit_overCAN_withIRP_new4g_proto26_adding_All10sec_data/Dave/Generated/DIGITAL_IO\digital_io.h **** *
 203:D:/Projects/VCU Firmware Main/IRP/Git Repo/VCU14_29bit_overCAN_withIRP_new4g_proto26_adding_All10sec_data/Dave/Generated/DIGITAL_IO\digital_io.h **** * Example Usage:
 204:D:/Projects/VCU Firmware Main/IRP/Git Repo/VCU14_29bit_overCAN_withIRP_new4g_proto26_adding_All10sec_data/Dave/Generated/DIGITAL_IO\digital_io.h **** * @code
 205:D:/Projects/VCU Firmware Main/IRP/Git Repo/VCU14_29bit_overCAN_withIRP_new4g_proto26_adding_All10sec_data/Dave/Generated/DIGITAL_IO\digital_io.h **** * #include "DAVE.h" //Declarations from DAVE Code Generation (includes SFR declaration)
 206:D:/Projects/VCU Firmware Main/IRP/Git Repo/VCU14_29bit_overCAN_withIRP_new4g_proto26_adding_All10sec_data/Dave/Generated/DIGITAL_IO\digital_io.h **** *
 207:D:/Projects/VCU Firmware Main/IRP/Git Repo/VCU14_29bit_overCAN_withIRP_new4g_proto26_adding_All10sec_data/Dave/Generated/DIGITAL_IO\digital_io.h **** * int main(void)
 208:D:/Projects/VCU Firmware Main/IRP/Git Repo/VCU14_29bit_overCAN_withIRP_new4g_proto26_adding_All10sec_data/Dave/Generated/DIGITAL_IO\digital_io.h **** * {
 209:D:/Projects/VCU Firmware Main/IRP/Git Repo/VCU14_29bit_overCAN_withIRP_new4g_proto26_adding_All10sec_data/Dave/Generated/DIGITAL_IO\digital_io.h **** *   DAVE_STATUS_t status;
 210:D:/Projects/VCU Firmware Main/IRP/Git Repo/VCU14_29bit_overCAN_withIRP_new4g_proto26_adding_All10sec_data/Dave/Generated/DIGITAL_IO\digital_io.h **** *   status = DAVE_Init();  //(DAVE_STATUS_t)DIGITAL_IO_Init(&DIGITAL_IO_0) is called within DAVE_In
 211:D:/Projects/VCU Firmware Main/IRP/Git Repo/VCU14_29bit_overCAN_withIRP_new4g_proto26_adding_All10sec_data/Dave/Generated/DIGITAL_IO\digital_io.h **** *   if(status == DAVE_STATUS_SUCCESS)
 212:D:/Projects/VCU Firmware Main/IRP/Git Repo/VCU14_29bit_overCAN_withIRP_new4g_proto26_adding_All10sec_data/Dave/Generated/DIGITAL_IO\digital_io.h **** *   {
 213:D:/Projects/VCU Firmware Main/IRP/Git Repo/VCU14_29bit_overCAN_withIRP_new4g_proto26_adding_All10sec_data/Dave/Generated/DIGITAL_IO\digital_io.h **** *     XMC_DEBUG("DAVE Apps initialization success\n");
 214:D:/Projects/VCU Firmware Main/IRP/Git Repo/VCU14_29bit_overCAN_withIRP_new4g_proto26_adding_All10sec_data/Dave/Generated/DIGITAL_IO\digital_io.h **** *   }
 215:D:/Projects/VCU Firmware Main/IRP/Git Repo/VCU14_29bit_overCAN_withIRP_new4g_proto26_adding_All10sec_data/Dave/Generated/DIGITAL_IO\digital_io.h **** *   else
 216:D:/Projects/VCU Firmware Main/IRP/Git Repo/VCU14_29bit_overCAN_withIRP_new4g_proto26_adding_All10sec_data/Dave/Generated/DIGITAL_IO\digital_io.h **** *   {
 217:D:/Projects/VCU Firmware Main/IRP/Git Repo/VCU14_29bit_overCAN_withIRP_new4g_proto26_adding_All10sec_data/Dave/Generated/DIGITAL_IO\digital_io.h **** *     XMC_DEBUG(("DAVE Apps initialization failed with status %d\n", status));
 218:D:/Projects/VCU Firmware Main/IRP/Git Repo/VCU14_29bit_overCAN_withIRP_new4g_proto26_adding_All10sec_data/Dave/Generated/DIGITAL_IO\digital_io.h **** *     while(1U)
 219:D:/Projects/VCU Firmware Main/IRP/Git Repo/VCU14_29bit_overCAN_withIRP_new4g_proto26_adding_All10sec_data/Dave/Generated/DIGITAL_IO\digital_io.h **** *     {
 220:D:/Projects/VCU Firmware Main/IRP/Git Repo/VCU14_29bit_overCAN_withIRP_new4g_proto26_adding_All10sec_data/Dave/Generated/DIGITAL_IO\digital_io.h **** *     }
 221:D:/Projects/VCU Firmware Main/IRP/Git Repo/VCU14_29bit_overCAN_withIRP_new4g_proto26_adding_All10sec_data/Dave/Generated/DIGITAL_IO\digital_io.h **** *   }
 222:D:/Projects/VCU Firmware Main/IRP/Git Repo/VCU14_29bit_overCAN_withIRP_new4g_proto26_adding_All10sec_data/Dave/Generated/DIGITAL_IO\digital_io.h **** *   //Placeholder for user application code. The while loop below can be replaced with user applica
 223:D:/Projects/VCU Firmware Main/IRP/Git Repo/VCU14_29bit_overCAN_withIRP_new4g_proto26_adding_All10sec_data/Dave/Generated/DIGITAL_IO\digital_io.h **** *   while(1U)
 224:D:/Projects/VCU Firmware Main/IRP/Git Repo/VCU14_29bit_overCAN_withIRP_new4g_proto26_adding_All10sec_data/Dave/Generated/DIGITAL_IO\digital_io.h **** *   {
 225:D:/Projects/VCU Firmware Main/IRP/Git Repo/VCU14_29bit_overCAN_withIRP_new4g_proto26_adding_All10sec_data/Dave/Generated/DIGITAL_IO\digital_io.h **** *   }
 226:D:/Projects/VCU Firmware Main/IRP/Git Repo/VCU14_29bit_overCAN_withIRP_new4g_proto26_adding_All10sec_data/Dave/Generated/DIGITAL_IO\digital_io.h **** *   return 1U;
 227:D:/Projects/VCU Firmware Main/IRP/Git Repo/VCU14_29bit_overCAN_withIRP_new4g_proto26_adding_All10sec_data/Dave/Generated/DIGITAL_IO\digital_io.h **** *  }
 228:D:/Projects/VCU Firmware Main/IRP/Git Repo/VCU14_29bit_overCAN_withIRP_new4g_proto26_adding_All10sec_data/Dave/Generated/DIGITAL_IO\digital_io.h **** *  @endcode
 229:D:/Projects/VCU Firmware Main/IRP/Git Repo/VCU14_29bit_overCAN_withIRP_new4g_proto26_adding_All10sec_data/Dave/Generated/DIGITAL_IO\digital_io.h **** */
 230:D:/Projects/VCU Firmware Main/IRP/Git Repo/VCU14_29bit_overCAN_withIRP_new4g_proto26_adding_All10sec_data/Dave/Generated/DIGITAL_IO\digital_io.h **** 
 231:D:/Projects/VCU Firmware Main/IRP/Git Repo/VCU14_29bit_overCAN_withIRP_new4g_proto26_adding_All10sec_data/Dave/Generated/DIGITAL_IO\digital_io.h **** DIGITAL_IO_STATUS_t DIGITAL_IO_Init(const DIGITAL_IO_t *const handler);
 232:D:/Projects/VCU Firmware Main/IRP/Git Repo/VCU14_29bit_overCAN_withIRP_new4g_proto26_adding_All10sec_data/Dave/Generated/DIGITAL_IO\digital_io.h **** 
 233:D:/Projects/VCU Firmware Main/IRP/Git Repo/VCU14_29bit_overCAN_withIRP_new4g_proto26_adding_All10sec_data/Dave/Generated/DIGITAL_IO\digital_io.h **** /**
 234:D:/Projects/VCU Firmware Main/IRP/Git Repo/VCU14_29bit_overCAN_withIRP_new4g_proto26_adding_All10sec_data/Dave/Generated/DIGITAL_IO\digital_io.h **** *
 235:D:/Projects/VCU Firmware Main/IRP/Git Repo/VCU14_29bit_overCAN_withIRP_new4g_proto26_adding_All10sec_data/Dave/Generated/DIGITAL_IO\digital_io.h **** * @brief Function to set port pin high.
 236:D:/Projects/VCU Firmware Main/IRP/Git Repo/VCU14_29bit_overCAN_withIRP_new4g_proto26_adding_All10sec_data/Dave/Generated/DIGITAL_IO\digital_io.h **** * @param handler Pointer pointing to APP data structure. Refer @ref DIGITAL_IO_t for details.
 237:D:/Projects/VCU Firmware Main/IRP/Git Repo/VCU14_29bit_overCAN_withIRP_new4g_proto26_adding_All10sec_data/Dave/Generated/DIGITAL_IO\digital_io.h **** * @return None
 238:D:/Projects/VCU Firmware Main/IRP/Git Repo/VCU14_29bit_overCAN_withIRP_new4g_proto26_adding_All10sec_data/Dave/Generated/DIGITAL_IO\digital_io.h **** *
 239:D:/Projects/VCU Firmware Main/IRP/Git Repo/VCU14_29bit_overCAN_withIRP_new4g_proto26_adding_All10sec_data/Dave/Generated/DIGITAL_IO\digital_io.h **** * \par<b>Description:</b><br>
 240:D:/Projects/VCU Firmware Main/IRP/Git Repo/VCU14_29bit_overCAN_withIRP_new4g_proto26_adding_All10sec_data/Dave/Generated/DIGITAL_IO\digital_io.h **** * This function configures port output modification register Pn_OMR, to make port pin to high level
 241:D:/Projects/VCU Firmware Main/IRP/Git Repo/VCU14_29bit_overCAN_withIRP_new4g_proto26_adding_All10sec_data/Dave/Generated/DIGITAL_IO\digital_io.h **** *
 242:D:/Projects/VCU Firmware Main/IRP/Git Repo/VCU14_29bit_overCAN_withIRP_new4g_proto26_adding_All10sec_data/Dave/Generated/DIGITAL_IO\digital_io.h **** * \par<b>Related APIs:</b><BR>
 243:D:/Projects/VCU Firmware Main/IRP/Git Repo/VCU14_29bit_overCAN_withIRP_new4g_proto26_adding_All10sec_data/Dave/Generated/DIGITAL_IO\digital_io.h **** *  DIGITAL_IO_SetOutputLow()
 244:D:/Projects/VCU Firmware Main/IRP/Git Repo/VCU14_29bit_overCAN_withIRP_new4g_proto26_adding_All10sec_data/Dave/Generated/DIGITAL_IO\digital_io.h **** *
 245:D:/Projects/VCU Firmware Main/IRP/Git Repo/VCU14_29bit_overCAN_withIRP_new4g_proto26_adding_All10sec_data/Dave/Generated/DIGITAL_IO\digital_io.h **** * Example Usage:
 246:D:/Projects/VCU Firmware Main/IRP/Git Repo/VCU14_29bit_overCAN_withIRP_new4g_proto26_adding_All10sec_data/Dave/Generated/DIGITAL_IO\digital_io.h **** * @code
 247:D:/Projects/VCU Firmware Main/IRP/Git Repo/VCU14_29bit_overCAN_withIRP_new4g_proto26_adding_All10sec_data/Dave/Generated/DIGITAL_IO\digital_io.h **** * #include "DAVE.h" //Declarations from DAVE Code Generation (includes SFR declaration)
 248:D:/Projects/VCU Firmware Main/IRP/Git Repo/VCU14_29bit_overCAN_withIRP_new4g_proto26_adding_All10sec_data/Dave/Generated/DIGITAL_IO\digital_io.h **** *
 249:D:/Projects/VCU Firmware Main/IRP/Git Repo/VCU14_29bit_overCAN_withIRP_new4g_proto26_adding_All10sec_data/Dave/Generated/DIGITAL_IO\digital_io.h **** * int main(void)
 250:D:/Projects/VCU Firmware Main/IRP/Git Repo/VCU14_29bit_overCAN_withIRP_new4g_proto26_adding_All10sec_data/Dave/Generated/DIGITAL_IO\digital_io.h **** * {
 251:D:/Projects/VCU Firmware Main/IRP/Git Repo/VCU14_29bit_overCAN_withIRP_new4g_proto26_adding_All10sec_data/Dave/Generated/DIGITAL_IO\digital_io.h **** *   DAVE_STATUS_t status;
 252:D:/Projects/VCU Firmware Main/IRP/Git Repo/VCU14_29bit_overCAN_withIRP_new4g_proto26_adding_All10sec_data/Dave/Generated/DIGITAL_IO\digital_io.h **** *   status = DAVE_Init();  //(DAVE_STATUS_t)DIGITAL_IO_Init(&DIGITAL_IO_0) is called within DAVE_In
 253:D:/Projects/VCU Firmware Main/IRP/Git Repo/VCU14_29bit_overCAN_withIRP_new4g_proto26_adding_All10sec_data/Dave/Generated/DIGITAL_IO\digital_io.h **** *   if(status == DAVE_STATUS_SUCCESS)
 254:D:/Projects/VCU Firmware Main/IRP/Git Repo/VCU14_29bit_overCAN_withIRP_new4g_proto26_adding_All10sec_data/Dave/Generated/DIGITAL_IO\digital_io.h **** *   {
 255:D:/Projects/VCU Firmware Main/IRP/Git Repo/VCU14_29bit_overCAN_withIRP_new4g_proto26_adding_All10sec_data/Dave/Generated/DIGITAL_IO\digital_io.h **** *     XMC_DEBUG("DAVE Apps initialization success\n");
 256:D:/Projects/VCU Firmware Main/IRP/Git Repo/VCU14_29bit_overCAN_withIRP_new4g_proto26_adding_All10sec_data/Dave/Generated/DIGITAL_IO\digital_io.h **** *   }
 257:D:/Projects/VCU Firmware Main/IRP/Git Repo/VCU14_29bit_overCAN_withIRP_new4g_proto26_adding_All10sec_data/Dave/Generated/DIGITAL_IO\digital_io.h **** *   else
 258:D:/Projects/VCU Firmware Main/IRP/Git Repo/VCU14_29bit_overCAN_withIRP_new4g_proto26_adding_All10sec_data/Dave/Generated/DIGITAL_IO\digital_io.h **** *   {
 259:D:/Projects/VCU Firmware Main/IRP/Git Repo/VCU14_29bit_overCAN_withIRP_new4g_proto26_adding_All10sec_data/Dave/Generated/DIGITAL_IO\digital_io.h **** *     XMC_DEBUG(("DAVE Apps initialization failed with status %d\n", status));
 260:D:/Projects/VCU Firmware Main/IRP/Git Repo/VCU14_29bit_overCAN_withIRP_new4g_proto26_adding_All10sec_data/Dave/Generated/DIGITAL_IO\digital_io.h **** *     while(1U)
 261:D:/Projects/VCU Firmware Main/IRP/Git Repo/VCU14_29bit_overCAN_withIRP_new4g_proto26_adding_All10sec_data/Dave/Generated/DIGITAL_IO\digital_io.h **** *     {
 262:D:/Projects/VCU Firmware Main/IRP/Git Repo/VCU14_29bit_overCAN_withIRP_new4g_proto26_adding_All10sec_data/Dave/Generated/DIGITAL_IO\digital_io.h **** *     }
 263:D:/Projects/VCU Firmware Main/IRP/Git Repo/VCU14_29bit_overCAN_withIRP_new4g_proto26_adding_All10sec_data/Dave/Generated/DIGITAL_IO\digital_io.h **** *   }
 264:D:/Projects/VCU Firmware Main/IRP/Git Repo/VCU14_29bit_overCAN_withIRP_new4g_proto26_adding_All10sec_data/Dave/Generated/DIGITAL_IO\digital_io.h **** *   //Placeholder for user application code. The while loop below can be replaced with user applica
 265:D:/Projects/VCU Firmware Main/IRP/Git Repo/VCU14_29bit_overCAN_withIRP_new4g_proto26_adding_All10sec_data/Dave/Generated/DIGITAL_IO\digital_io.h **** *   DIGITAL_IO_SetOutputHigh(&DIGITAL_IO_0);
 266:D:/Projects/VCU Firmware Main/IRP/Git Repo/VCU14_29bit_overCAN_withIRP_new4g_proto26_adding_All10sec_data/Dave/Generated/DIGITAL_IO\digital_io.h **** *   while(1U)
 267:D:/Projects/VCU Firmware Main/IRP/Git Repo/VCU14_29bit_overCAN_withIRP_new4g_proto26_adding_All10sec_data/Dave/Generated/DIGITAL_IO\digital_io.h **** *   {
 268:D:/Projects/VCU Firmware Main/IRP/Git Repo/VCU14_29bit_overCAN_withIRP_new4g_proto26_adding_All10sec_data/Dave/Generated/DIGITAL_IO\digital_io.h **** *     // Add application code here
 269:D:/Projects/VCU Firmware Main/IRP/Git Repo/VCU14_29bit_overCAN_withIRP_new4g_proto26_adding_All10sec_data/Dave/Generated/DIGITAL_IO\digital_io.h **** *   }
 270:D:/Projects/VCU Firmware Main/IRP/Git Repo/VCU14_29bit_overCAN_withIRP_new4g_proto26_adding_All10sec_data/Dave/Generated/DIGITAL_IO\digital_io.h **** *
 271:D:/Projects/VCU Firmware Main/IRP/Git Repo/VCU14_29bit_overCAN_withIRP_new4g_proto26_adding_All10sec_data/Dave/Generated/DIGITAL_IO\digital_io.h **** *   return (1);
 272:D:/Projects/VCU Firmware Main/IRP/Git Repo/VCU14_29bit_overCAN_withIRP_new4g_proto26_adding_All10sec_data/Dave/Generated/DIGITAL_IO\digital_io.h **** * }
 273:D:/Projects/VCU Firmware Main/IRP/Git Repo/VCU14_29bit_overCAN_withIRP_new4g_proto26_adding_All10sec_data/Dave/Generated/DIGITAL_IO\digital_io.h **** *  @endcode
 274:D:/Projects/VCU Firmware Main/IRP/Git Repo/VCU14_29bit_overCAN_withIRP_new4g_proto26_adding_All10sec_data/Dave/Generated/DIGITAL_IO\digital_io.h **** */
 275:D:/Projects/VCU Firmware Main/IRP/Git Repo/VCU14_29bit_overCAN_withIRP_new4g_proto26_adding_All10sec_data/Dave/Generated/DIGITAL_IO\digital_io.h **** 
 276:D:/Projects/VCU Firmware Main/IRP/Git Repo/VCU14_29bit_overCAN_withIRP_new4g_proto26_adding_All10sec_data/Dave/Generated/DIGITAL_IO\digital_io.h **** __STATIC_INLINE void DIGITAL_IO_SetOutputHigh(const DIGITAL_IO_t *const handler)
 277:D:/Projects/VCU Firmware Main/IRP/Git Repo/VCU14_29bit_overCAN_withIRP_new4g_proto26_adding_All10sec_data/Dave/Generated/DIGITAL_IO\digital_io.h **** {
 122              	 .loc 2 277 0
 123              	 .cfi_startproc
 124              	 
 125              	 
 126 0000 80B5     	 push {r7,lr}
 127              	.LCFI12:
 128              	 .cfi_def_cfa_offset 8
 129              	 .cfi_offset 7,-8
 130              	 .cfi_offset 14,-4
 131 0002 82B0     	 sub sp,sp,#8
 132              	.LCFI13:
 133              	 .cfi_def_cfa_offset 16
 134 0004 00AF     	 add r7,sp,#0
 135              	.LCFI14:
 136              	 .cfi_def_cfa_register 7
 137 0006 7860     	 str r0,[r7,#4]
 278:D:/Projects/VCU Firmware Main/IRP/Git Repo/VCU14_29bit_overCAN_withIRP_new4g_proto26_adding_All10sec_data/Dave/Generated/DIGITAL_IO\digital_io.h ****   XMC_ASSERT("DIGITAL_IO_SetOutputHigh: handler null pointer", handler != NULL);
 279:D:/Projects/VCU Firmware Main/IRP/Git Repo/VCU14_29bit_overCAN_withIRP_new4g_proto26_adding_All10sec_data/Dave/Generated/DIGITAL_IO\digital_io.h ****   XMC_GPIO_SetOutputHigh(handler->gpio_port, handler->gpio_pin);
 138              	 .loc 2 279 0
 139 0008 7B68     	 ldr r3,[r7,#4]
 140 000a 1A68     	 ldr r2,[r3]
 141 000c 7B68     	 ldr r3,[r7,#4]
 142 000e 1B7C     	 ldrb r3,[r3,#16]
 143 0010 1046     	 mov r0,r2
 144 0012 1946     	 mov r1,r3
 145 0014 FFF7FEFF 	 bl XMC_GPIO_SetOutputHigh
 280:D:/Projects/VCU Firmware Main/IRP/Git Repo/VCU14_29bit_overCAN_withIRP_new4g_proto26_adding_All10sec_data/Dave/Generated/DIGITAL_IO\digital_io.h **** }
 146              	 .loc 2 280 0
 147 0018 0837     	 adds r7,r7,#8
 148              	.LCFI15:
 149              	 .cfi_def_cfa_offset 8
 150 001a BD46     	 mov sp,r7
 151              	.LCFI16:
 152              	 .cfi_def_cfa_register 13
 153              	 
 154 001c 80BD     	 pop {r7,pc}
 155              	 .cfi_endproc
 156              	.LFE143:
 158 001e 00BF     	 .section .text.DIGITAL_IO_SetOutputLow,"ax",%progbits
 159              	 .align 2
 160              	 .thumb
 161              	 .thumb_func
 163              	DIGITAL_IO_SetOutputLow:
 164              	.LFB144:
 281:D:/Projects/VCU Firmware Main/IRP/Git Repo/VCU14_29bit_overCAN_withIRP_new4g_proto26_adding_All10sec_data/Dave/Generated/DIGITAL_IO\digital_io.h **** 
 282:D:/Projects/VCU Firmware Main/IRP/Git Repo/VCU14_29bit_overCAN_withIRP_new4g_proto26_adding_All10sec_data/Dave/Generated/DIGITAL_IO\digital_io.h **** /**
 283:D:/Projects/VCU Firmware Main/IRP/Git Repo/VCU14_29bit_overCAN_withIRP_new4g_proto26_adding_All10sec_data/Dave/Generated/DIGITAL_IO\digital_io.h **** * @brief Function to reset port pin.
 284:D:/Projects/VCU Firmware Main/IRP/Git Repo/VCU14_29bit_overCAN_withIRP_new4g_proto26_adding_All10sec_data/Dave/Generated/DIGITAL_IO\digital_io.h **** * @param handler Pointer pointing to APP data structure. Refer @ref DIGITAL_IO_t for details.
 285:D:/Projects/VCU Firmware Main/IRP/Git Repo/VCU14_29bit_overCAN_withIRP_new4g_proto26_adding_All10sec_data/Dave/Generated/DIGITAL_IO\digital_io.h **** * @return None
 286:D:/Projects/VCU Firmware Main/IRP/Git Repo/VCU14_29bit_overCAN_withIRP_new4g_proto26_adding_All10sec_data/Dave/Generated/DIGITAL_IO\digital_io.h **** *
 287:D:/Projects/VCU Firmware Main/IRP/Git Repo/VCU14_29bit_overCAN_withIRP_new4g_proto26_adding_All10sec_data/Dave/Generated/DIGITAL_IO\digital_io.h **** * \par<b>Description:</b><br>
 288:D:/Projects/VCU Firmware Main/IRP/Git Repo/VCU14_29bit_overCAN_withIRP_new4g_proto26_adding_All10sec_data/Dave/Generated/DIGITAL_IO\digital_io.h **** * This function configures port output modification register Pn_OMR, to make port pin to low level.
 289:D:/Projects/VCU Firmware Main/IRP/Git Repo/VCU14_29bit_overCAN_withIRP_new4g_proto26_adding_All10sec_data/Dave/Generated/DIGITAL_IO\digital_io.h **** *
 290:D:/Projects/VCU Firmware Main/IRP/Git Repo/VCU14_29bit_overCAN_withIRP_new4g_proto26_adding_All10sec_data/Dave/Generated/DIGITAL_IO\digital_io.h **** * \par<b>Related APIs:</b><BR>
 291:D:/Projects/VCU Firmware Main/IRP/Git Repo/VCU14_29bit_overCAN_withIRP_new4g_proto26_adding_All10sec_data/Dave/Generated/DIGITAL_IO\digital_io.h **** * DIGITAL_IO_SetOutputHigh()
 292:D:/Projects/VCU Firmware Main/IRP/Git Repo/VCU14_29bit_overCAN_withIRP_new4g_proto26_adding_All10sec_data/Dave/Generated/DIGITAL_IO\digital_io.h **** *
 293:D:/Projects/VCU Firmware Main/IRP/Git Repo/VCU14_29bit_overCAN_withIRP_new4g_proto26_adding_All10sec_data/Dave/Generated/DIGITAL_IO\digital_io.h **** * Example Usage:
 294:D:/Projects/VCU Firmware Main/IRP/Git Repo/VCU14_29bit_overCAN_withIRP_new4g_proto26_adding_All10sec_data/Dave/Generated/DIGITAL_IO\digital_io.h **** * @code
 295:D:/Projects/VCU Firmware Main/IRP/Git Repo/VCU14_29bit_overCAN_withIRP_new4g_proto26_adding_All10sec_data/Dave/Generated/DIGITAL_IO\digital_io.h **** *  #include "DAVE.h" //Declarations from DAVE Code Generation (includes SFR declaration)
 296:D:/Projects/VCU Firmware Main/IRP/Git Repo/VCU14_29bit_overCAN_withIRP_new4g_proto26_adding_All10sec_data/Dave/Generated/DIGITAL_IO\digital_io.h **** *
 297:D:/Projects/VCU Firmware Main/IRP/Git Repo/VCU14_29bit_overCAN_withIRP_new4g_proto26_adding_All10sec_data/Dave/Generated/DIGITAL_IO\digital_io.h **** *  int main(void)
 298:D:/Projects/VCU Firmware Main/IRP/Git Repo/VCU14_29bit_overCAN_withIRP_new4g_proto26_adding_All10sec_data/Dave/Generated/DIGITAL_IO\digital_io.h **** *  {
 299:D:/Projects/VCU Firmware Main/IRP/Git Repo/VCU14_29bit_overCAN_withIRP_new4g_proto26_adding_All10sec_data/Dave/Generated/DIGITAL_IO\digital_io.h **** *    DAVE_STATUS_t status;
 300:D:/Projects/VCU Firmware Main/IRP/Git Repo/VCU14_29bit_overCAN_withIRP_new4g_proto26_adding_All10sec_data/Dave/Generated/DIGITAL_IO\digital_io.h **** *    status = DAVE_Init();  //(DAVE_STATUS_t)DIGITAL_IO_Init(&DIGITAL_IO_0) is called within DAVE_I
 301:D:/Projects/VCU Firmware Main/IRP/Git Repo/VCU14_29bit_overCAN_withIRP_new4g_proto26_adding_All10sec_data/Dave/Generated/DIGITAL_IO\digital_io.h **** *    if(status == DAVE_STATUS_SUCCESS)
 302:D:/Projects/VCU Firmware Main/IRP/Git Repo/VCU14_29bit_overCAN_withIRP_new4g_proto26_adding_All10sec_data/Dave/Generated/DIGITAL_IO\digital_io.h **** *    {
 303:D:/Projects/VCU Firmware Main/IRP/Git Repo/VCU14_29bit_overCAN_withIRP_new4g_proto26_adding_All10sec_data/Dave/Generated/DIGITAL_IO\digital_io.h **** *      XMC_DEBUG("DAVE Apps initialization success\n");
 304:D:/Projects/VCU Firmware Main/IRP/Git Repo/VCU14_29bit_overCAN_withIRP_new4g_proto26_adding_All10sec_data/Dave/Generated/DIGITAL_IO\digital_io.h **** *    }
 305:D:/Projects/VCU Firmware Main/IRP/Git Repo/VCU14_29bit_overCAN_withIRP_new4g_proto26_adding_All10sec_data/Dave/Generated/DIGITAL_IO\digital_io.h **** *    else
 306:D:/Projects/VCU Firmware Main/IRP/Git Repo/VCU14_29bit_overCAN_withIRP_new4g_proto26_adding_All10sec_data/Dave/Generated/DIGITAL_IO\digital_io.h **** *    {
 307:D:/Projects/VCU Firmware Main/IRP/Git Repo/VCU14_29bit_overCAN_withIRP_new4g_proto26_adding_All10sec_data/Dave/Generated/DIGITAL_IO\digital_io.h **** *      XMC_DEBUG(("DAVE Apps initialization failed with status %d\n", status));
 308:D:/Projects/VCU Firmware Main/IRP/Git Repo/VCU14_29bit_overCAN_withIRP_new4g_proto26_adding_All10sec_data/Dave/Generated/DIGITAL_IO\digital_io.h **** *      while(1U)
 309:D:/Projects/VCU Firmware Main/IRP/Git Repo/VCU14_29bit_overCAN_withIRP_new4g_proto26_adding_All10sec_data/Dave/Generated/DIGITAL_IO\digital_io.h **** *      {
 310:D:/Projects/VCU Firmware Main/IRP/Git Repo/VCU14_29bit_overCAN_withIRP_new4g_proto26_adding_All10sec_data/Dave/Generated/DIGITAL_IO\digital_io.h **** *      }
 311:D:/Projects/VCU Firmware Main/IRP/Git Repo/VCU14_29bit_overCAN_withIRP_new4g_proto26_adding_All10sec_data/Dave/Generated/DIGITAL_IO\digital_io.h **** *    }
 312:D:/Projects/VCU Firmware Main/IRP/Git Repo/VCU14_29bit_overCAN_withIRP_new4g_proto26_adding_All10sec_data/Dave/Generated/DIGITAL_IO\digital_io.h **** *    //Placeholder for user application code. The while loop below can be replaced with user applic
 313:D:/Projects/VCU Firmware Main/IRP/Git Repo/VCU14_29bit_overCAN_withIRP_new4g_proto26_adding_All10sec_data/Dave/Generated/DIGITAL_IO\digital_io.h **** *    DIGITAL_IO_SetOutputLow(&DIGITAL_IO_0);
 314:D:/Projects/VCU Firmware Main/IRP/Git Repo/VCU14_29bit_overCAN_withIRP_new4g_proto26_adding_All10sec_data/Dave/Generated/DIGITAL_IO\digital_io.h **** *    while(1U)
 315:D:/Projects/VCU Firmware Main/IRP/Git Repo/VCU14_29bit_overCAN_withIRP_new4g_proto26_adding_All10sec_data/Dave/Generated/DIGITAL_IO\digital_io.h **** *    {
 316:D:/Projects/VCU Firmware Main/IRP/Git Repo/VCU14_29bit_overCAN_withIRP_new4g_proto26_adding_All10sec_data/Dave/Generated/DIGITAL_IO\digital_io.h **** *      // Add application code here
 317:D:/Projects/VCU Firmware Main/IRP/Git Repo/VCU14_29bit_overCAN_withIRP_new4g_proto26_adding_All10sec_data/Dave/Generated/DIGITAL_IO\digital_io.h **** *    }
 318:D:/Projects/VCU Firmware Main/IRP/Git Repo/VCU14_29bit_overCAN_withIRP_new4g_proto26_adding_All10sec_data/Dave/Generated/DIGITAL_IO\digital_io.h **** *
 319:D:/Projects/VCU Firmware Main/IRP/Git Repo/VCU14_29bit_overCAN_withIRP_new4g_proto26_adding_All10sec_data/Dave/Generated/DIGITAL_IO\digital_io.h **** *   return (1);
 320:D:/Projects/VCU Firmware Main/IRP/Git Repo/VCU14_29bit_overCAN_withIRP_new4g_proto26_adding_All10sec_data/Dave/Generated/DIGITAL_IO\digital_io.h **** * }
 321:D:/Projects/VCU Firmware Main/IRP/Git Repo/VCU14_29bit_overCAN_withIRP_new4g_proto26_adding_All10sec_data/Dave/Generated/DIGITAL_IO\digital_io.h **** *  @endcode
 322:D:/Projects/VCU Firmware Main/IRP/Git Repo/VCU14_29bit_overCAN_withIRP_new4g_proto26_adding_All10sec_data/Dave/Generated/DIGITAL_IO\digital_io.h **** */
 323:D:/Projects/VCU Firmware Main/IRP/Git Repo/VCU14_29bit_overCAN_withIRP_new4g_proto26_adding_All10sec_data/Dave/Generated/DIGITAL_IO\digital_io.h **** 
 324:D:/Projects/VCU Firmware Main/IRP/Git Repo/VCU14_29bit_overCAN_withIRP_new4g_proto26_adding_All10sec_data/Dave/Generated/DIGITAL_IO\digital_io.h **** __STATIC_INLINE void DIGITAL_IO_SetOutputLow(const DIGITAL_IO_t *const handler)
 325:D:/Projects/VCU Firmware Main/IRP/Git Repo/VCU14_29bit_overCAN_withIRP_new4g_proto26_adding_All10sec_data/Dave/Generated/DIGITAL_IO\digital_io.h **** {
 165              	 .loc 2 325 0
 166              	 .cfi_startproc
 167              	 
 168              	 
 169 0000 80B5     	 push {r7,lr}
 170              	.LCFI17:
 171              	 .cfi_def_cfa_offset 8
 172              	 .cfi_offset 7,-8
 173              	 .cfi_offset 14,-4
 174 0002 82B0     	 sub sp,sp,#8
 175              	.LCFI18:
 176              	 .cfi_def_cfa_offset 16
 177 0004 00AF     	 add r7,sp,#0
 178              	.LCFI19:
 179              	 .cfi_def_cfa_register 7
 180 0006 7860     	 str r0,[r7,#4]
 326:D:/Projects/VCU Firmware Main/IRP/Git Repo/VCU14_29bit_overCAN_withIRP_new4g_proto26_adding_All10sec_data/Dave/Generated/DIGITAL_IO\digital_io.h ****   XMC_ASSERT("DIGITAL_IO_SetOutputLow: handler null pointer", handler != NULL);
 327:D:/Projects/VCU Firmware Main/IRP/Git Repo/VCU14_29bit_overCAN_withIRP_new4g_proto26_adding_All10sec_data/Dave/Generated/DIGITAL_IO\digital_io.h ****   XMC_GPIO_SetOutputLow(handler->gpio_port,handler->gpio_pin);
 181              	 .loc 2 327 0
 182 0008 7B68     	 ldr r3,[r7,#4]
 183 000a 1A68     	 ldr r2,[r3]
 184 000c 7B68     	 ldr r3,[r7,#4]
 185 000e 1B7C     	 ldrb r3,[r3,#16]
 186 0010 1046     	 mov r0,r2
 187 0012 1946     	 mov r1,r3
 188 0014 FFF7FEFF 	 bl XMC_GPIO_SetOutputLow
 328:D:/Projects/VCU Firmware Main/IRP/Git Repo/VCU14_29bit_overCAN_withIRP_new4g_proto26_adding_All10sec_data/Dave/Generated/DIGITAL_IO\digital_io.h **** }
 189              	 .loc 2 328 0
 190 0018 0837     	 adds r7,r7,#8
 191              	.LCFI20:
 192              	 .cfi_def_cfa_offset 8
 193 001a BD46     	 mov sp,r7
 194              	.LCFI21:
 195              	 .cfi_def_cfa_register 13
 196              	 
 197 001c 80BD     	 pop {r7,pc}
 198              	 .cfi_endproc
 199              	.LFE144:
 201              	 .comm cluster_door_in,4,4
 202              	 .comm Vcu_OutPuts,3,4
 203              	 .comm Combi_Switch_IN,8,4
 204              	 .comm Seat_Switch_IN,3,4
 205              	 .comm Door_Switch_IN,7,4
 206              	 .comm Relay_Control_Switch_OUT,47,4
 207              	 .comm Hvac_IN,24,4
 208              	 .comm Switch_Ios_IN,20,4
 209              	 .comm Motor_controller_OUT,5,4
 210              	 .comm Lights_OUT,8,4
 211              	 .comm Sensors_OUT,8,4
 212              	 .comm Aux_Inputs,6,4
 213              	 .comm Instrument_Cluster_OUT,18,4
 214              	 .comm Seat_Belt_OUT,3,4
 215              	 .global Gear_OUT
 216 001e 00BF     	 .section .data.Gear_OUT,"aw",%progbits
 217              	 .align 2
 220              	Gear_OUT:
 221 0000 20000000 	 .word CAN_MSG_DB+32
 222              	 .comm Instrumetcluster_DriveMode_OUT,4,4
 223              	 .comm Door_Switch_OUT,7,4
 224              	 .comm instrument_cluster_doorsvar,7,4
 225              	 .comm cluster_door_out,4,4
 226              	 .comm current_time,8,4
 227              	 .comm timeval,8,4
 228              	 .comm GPS_data_val,16,4
 229              	 .comm epoch,4,4
 230              	 .comm ambient_temp,1,1
 231              	 .comm BMS_SOC,1,1
 232              	 .comm CAN_MSG_DB_HVAC,60,4
 233              	 .comm eps_status,4,4
 234              	 .comm instrument_clustor_doors,1,1
 235              	 .comm CAN_BMS_29bit,132,4
 236              	 .comm CAN_IRP_29bit,132,4
 237              	 .comm charge_complete,1,1
 238              	 .comm charging_started,1,1
 239              	 .comm Bms_SOC,2,2
 240              	 .comm Bms_SOH,2,2
 241              	 .comm Mapped_BMS_SOC,1,1
 242              	 .comm Bms_minTemp,2,2
 243              	 .comm Bms_maxTemp,2,2
 244              	 .comm PackCurrent,4,4
 245              	 .comm PackVoltage,4,4
 246              	 .comm RegenerativeCurrentLimit,2,2
 247              	 .comm ChargeCurrentLimit,2,2
 248              	 .comm DischargeCurrentLimit,2,2
 249              	 .comm HvBatteryPower,4,4
 250              	 .comm bmsFault1,4,4
 251              	 .comm bmsFault2,4,4
 252              	 .comm GtakeFaults,4,4
 253              	 .comm allFault_indicator,3,4
 254              	 .comm cluster_Fault_Indicator,4,4
 255              	 .comm Mcu_Temp,4,4
 256              	 .comm Motor_Temp,4,4
 257              	 .comm VehicleSpeedglb,2,2
 258              	 .comm OBDII_CAN,60,4
 259              	 .comm OBD_data,2,2
 260              	 .global Irp_Mcu_drive_states_29bit
 261              	 .section .data.Irp_Mcu_drive_states_29bit,"aw",%progbits
 262              	 .align 2
 265              	Irp_Mcu_drive_states_29bit:
 266 0000 04000000 	 .word CAN_IRP_29bit+4
 267              	 .global Irp_Mcu_BMS_states_29bit
 268              	 .section .data.Irp_Mcu_BMS_states_29bit,"aw",%progbits
 269              	 .align 2
 272              	Irp_Mcu_BMS_states_29bit:
 273 0000 34000000 	 .word CAN_IRP_29bit+52
 274              	 .global Irp_Mcu_Torques_29bit
 275              	 .section .data.Irp_Mcu_Torques_29bit,"aw",%progbits
 276              	 .align 2
 279              	Irp_Mcu_Torques_29bit:
 280 0000 28000000 	 .word CAN_IRP_29bit+40
 281              	 .global Irp_Mcu_BMS_Currents_29bit
 282              	 .section .data.Irp_Mcu_BMS_Currents_29bit,"aw",%progbits
 283              	 .align 2
 286              	Irp_Mcu_BMS_Currents_29bit:
 287 0000 40000000 	 .word CAN_IRP_29bit+64
 288              	 .global Irp_MCU_Status_29bit
 289              	 .section .data.Irp_MCU_Status_29bit,"aw",%progbits
 290              	 .align 2
 293              	Irp_MCU_Status_29bit:
 294 0000 1C000000 	 .word CAN_IRP_29bit+28
 295              	 .comm Irp_MCU_Faults_29bit,4,4
 296              	 .comm DC_Current_irp,2,2
 297              	 .comm MotorPower_Irp,2,2
 298              	 .comm Torque_Estimation,2,2
 299              	 .comm DC_Voltage_irp,2,2
 300              	 .comm Mcu_Temp_Irp,2,2
 301              	 .comm Motor_Temp_Irp,2,2
 302              	 .comm RPM,2,2
 303              	 .comm Regenration_flag,1,1
 304              	 .comm hv_count,2,2
 305              	 .comm BMS_Avg_temp,4,4
 306              	 .comm AC_ON_4g,1,1
 307              	 .comm speed_4g,2,2
 308              	 .comm AUX_EFUSE_2_OUT_D,3,4
 309              	 .comm HV_BATT_FAN_PWR_OUT,3,4
 310              	 .comm ORVM_OPEN_OUT_D,3,4
 311              	 .comm ORVM_FOLD_OUT_D,3,4
 312              	 .comm ORVM_PWR_OUT_D,3,4
 313              	 .comm AC_BLOWER_SPEED1_OUT_D,3,4
 314              	 .comm AC_BLOWER_SPEED2_OUT_D,3,4
 315              	 .comm AC_BLOWER_SPEED3_OUT_D,3,4
 316              	 .comm AC_SOL_PWR_OUT_D,3,4
 317              	 .comm AUX_EFUSE_3_OUT_D,3,4
 318              	 .comm AUX_EFUSE_4_OUT_D,3,4
 319              	 .comm AUX_EFUSE_5_OUT_D,3,4
 320              	 .comm AUX_MOSFET_OUT3_D,3,4
 321              	 .comm SUNROOF_PWR_OUT_D,3,4
 322              	 .comm HV_CHARGER_EN_OUT_D,3,4
 323              	 .comm AC_COMPRESSOR_OUT_D,3,4
 324              	 .comm ELEC_HANDBRAKE_PWR_OUT_D,3,4
 325              	 .comm SuperLoop_Time,8,8
 326              	 .comm SuperLoop_Time_usec,8,8
 327              	 .comm SuperLoop_Time_msec,8,8
 328              	 .comm SuperLoop_Time_sec,8,8
 329              	 .comm End_Time,4,4
 330              	 .comm Start_Time,4,4
 331              	 .comm CState,1,1
 332              	 .comm PreState,1,1
 333              	 .global Gtake_Mcu_drive_states
 334              	 .section .data.Gtake_Mcu_drive_states,"aw",%progbits
 335              	 .align 2
 338              	Gtake_Mcu_drive_states:
 339 0000 04000000 	 .word CAN_MSG_DB_GTAKE+4
 340              	 .global Gtake_Mcu_drive_states_29bit
 341              	 .section .data.Gtake_Mcu_drive_states_29bit,"aw",%progbits
 342              	 .align 2
 345              	Gtake_Mcu_drive_states_29bit:
 346 0000 4C000000 	 .word CAN_Gtake_29bit+76
 347              	 .global Gtake_Mcu_drive_states_additional_29bit
 348              	 .section .data.Gtake_Mcu_drive_states_additional_29bit,"aw",%progbits
 349              	 .align 2
 352              	Gtake_Mcu_drive_states_additional_29bit:
 353 0000 58000000 	 .word CAN_Gtake_29bit+88
 354              	 .section .text.State_2,"ax",%progbits
 355              	 .align 2
 356              	 .global State_2
 357              	 .thumb
 358              	 .thumb_func
 360              	State_2:
 361              	.LFB605:
 362              	 .file 3 "../VCU_OUT/State_2.c"
   1:../VCU_OUT/State_2.c **** /*
   2:../VCU_OUT/State_2.c ****  * State_2.c
   3:../VCU_OUT/State_2.c ****  *
   4:../VCU_OUT/State_2.c ****  *  Created on: 28-Jun-2023
   5:../VCU_OUT/State_2.c ****  *      Author: Suchit Sawant
   6:../VCU_OUT/State_2.c ****  */
   7:../VCU_OUT/State_2.c **** 
   8:../VCU_OUT/State_2.c **** #include "Vcu_Out.h"
   9:../VCU_OUT/State_2.c **** #include "Vcu_Config.h"
  10:../VCU_OUT/State_2.c **** #include "can_matrix.h"
  11:../VCU_OUT/State_2.c **** #include "Vcu_Init.h"
  12:../VCU_OUT/State_2.c **** 
  13:../VCU_OUT/State_2.c **** Gear_OUT_t *Gear_OUT = (Gear_OUT_t *) &(CAN_MSG_DB[CAN_18FFC621].CAN_Data[4]);
  14:../VCU_OUT/State_2.c **** Gtake_Mcu_tx_id0x121_t *Gtake_Mcu_drive_states = (Gtake_Mcu_tx_id0x121_t *)&(CAN_MSG_DB_GTAKE[CAN_0
  15:../VCU_OUT/State_2.c **** Gtake_tx_0x8000121_t *Gtake_Mcu_drive_states_29bit = (Gtake_tx_0x8000121_t *)&(CAN_Gtake_29bit[CAN_
  16:../VCU_OUT/State_2.c **** Gtake_tx_0x8000111_t *Gtake_Mcu_drive_states_additional_29bit = (Gtake_tx_0x8000111_t *)&(CAN_Gtake
  17:../VCU_OUT/State_2.c **** IRP_Mcu_tx_id0x10_t *Irp_Mcu_drive_states_29bit = (IRP_Mcu_tx_id0x10_t *)&CAN_IRP_29bit[CAN_id0x10]
  18:../VCU_OUT/State_2.c **** IRP_Mcu_tx_id0x20_t *Irp_Mcu_BMS_states_29bit = (IRP_Mcu_tx_id0x20_t *)&CAN_IRP_29bit[CAN_id0x20].C
  19:../VCU_OUT/State_2.c **** IRP_Mcu_tx_id0x21_t *Irp_Mcu_BMS_Currents_29bit = (IRP_Mcu_tx_id0x21_t *)&CAN_IRP_29bit[CAN_id0x21]
  20:../VCU_OUT/State_2.c **** IRP_Mcu_rx_id0x13_t *Irp_Mcu_Torques_29bit = (IRP_Mcu_rx_id0x13_t *)&CAN_IRP_29bit[CAN_id0x13].CAN_
  21:../VCU_OUT/State_2.c **** IRP_Mcu_rx_id0x12_t *Irp_MCU_Status_29bit = (IRP_Mcu_rx_id0x12_t *)&CAN_IRP_29bit[CAN_id0x12].CAN_D
  22:../VCU_OUT/State_2.c **** 
  23:../VCU_OUT/State_2.c **** 
  24:../VCU_OUT/State_2.c **** enum Gearchange_Sequence_forHzaard_t{not_allowed, allowed };
  25:../VCU_OUT/State_2.c **** 
  26:../VCU_OUT/State_2.c **** 
  27:../VCU_OUT/State_2.c **** void State_2(void)
  28:../VCU_OUT/State_2.c **** {
 363              	 .loc 3 28 0
 364              	 .cfi_startproc
 365              	 
 366              	 
 367 0000 80B5     	 push {r7,lr}
 368              	.LCFI22:
 369              	 .cfi_def_cfa_offset 8
 370              	 .cfi_offset 7,-8
 371              	 .cfi_offset 14,-4
 372 0002 00AF     	 add r7,sp,#0
 373              	.LCFI23:
 374              	 .cfi_def_cfa_register 7
  29:../VCU_OUT/State_2.c **** 	if(Vcu_OutPuts.IGNITION_2_OUT)
 375              	 .loc 3 29 0
 376 0004 0C4B     	 ldr r3,.L8
 377 0006 5B78     	 ldrb r3,[r3,#1]
 378 0008 002B     	 cmp r3,#0
 379 000a 06D0     	 beq .L6
  30:../VCU_OUT/State_2.c **** 	{
  31:../VCU_OUT/State_2.c **** 
  32:../VCU_OUT/State_2.c **** 		/* ignition 2 on state */
  33:../VCU_OUT/State_2.c **** 		ignition2_d_on();
 380              	 .loc 3 33 0
 381 000c FFF7FEFF 	 bl ignition2_d_on
  34:../VCU_OUT/State_2.c **** 		VcuOut_MotorController();
 382              	 .loc 3 34 0
 383 0010 FFF7FEFF 	 bl VcuOut_MotorController
  35:../VCU_OUT/State_2.c **** 
  36:../VCU_OUT/State_2.c **** 		Can_Outputs_State2();
 384              	 .loc 3 36 0
 385 0014 FFF7FEFF 	 bl Can_Outputs_State2
 386 0018 0AE0     	 b .L7
 387              	.L6:
  37:../VCU_OUT/State_2.c **** 
  38:../VCU_OUT/State_2.c **** 
  39:../VCU_OUT/State_2.c **** 
  40:../VCU_OUT/State_2.c **** 
  41:../VCU_OUT/State_2.c **** 		//State2_Lights();
  42:../VCU_OUT/State_2.c **** 
  43:../VCU_OUT/State_2.c **** 	}
  44:../VCU_OUT/State_2.c **** 	else if(!(Vcu_OutPuts.IGNITION_2_OUT))
 388              	 .loc 3 44 0
 389 001a 074B     	 ldr r3,.L8
 390 001c 5B78     	 ldrb r3,[r3,#1]
 391 001e 83F00103 	 eor r3,r3,#1
 392 0022 DBB2     	 uxtb r3,r3
 393 0024 002B     	 cmp r3,#0
 394 0026 03D0     	 beq .L7
  45:../VCU_OUT/State_2.c **** 	{
  46:../VCU_OUT/State_2.c **** 
  47:../VCU_OUT/State_2.c **** 		/* ignition 2 off state */
  48:../VCU_OUT/State_2.c **** 		ignition2_d_off();
 395              	 .loc 3 48 0
 396 0028 FFF7FEFF 	 bl ignition2_d_off
  49:../VCU_OUT/State_2.c **** 
  50:../VCU_OUT/State_2.c **** 
  51:../VCU_OUT/State_2.c **** 		VcuOut_MotorController_off();
 397              	 .loc 3 51 0
 398 002c FFF7FEFF 	 bl VcuOut_MotorController_off
 399              	.L7:
  52:../VCU_OUT/State_2.c **** 	}
  53:../VCU_OUT/State_2.c **** 
  54:../VCU_OUT/State_2.c **** 	State2_Lights();
 400              	 .loc 3 54 0
 401 0030 FFF7FEFF 	 bl State2_Lights
  55:../VCU_OUT/State_2.c **** }
 402              	 .loc 3 55 0
 403 0034 80BD     	 pop {r7,pc}
 404              	.L9:
 405 0036 00BF     	 .align 2
 406              	.L8:
 407 0038 00000000 	 .word Vcu_OutPuts
 408              	 .cfi_endproc
 409              	.LFE605:
 411              	 .section .text.ignition2_d_on,"ax",%progbits
 412              	 .align 2
 413              	 .global ignition2_d_on
 414              	 .thumb
 415              	 .thumb_func
 417              	ignition2_d_on:
 418              	.LFB606:
  56:../VCU_OUT/State_2.c **** 
  57:../VCU_OUT/State_2.c **** 
  58:../VCU_OUT/State_2.c **** void ignition2_d_on()
  59:../VCU_OUT/State_2.c **** {
 419              	 .loc 3 59 0
 420              	 .cfi_startproc
 421              	 
 422              	 
 423 0000 80B5     	 push {r7,lr}
 424              	.LCFI24:
 425              	 .cfi_def_cfa_offset 8
 426              	 .cfi_offset 7,-8
 427              	 .cfi_offset 14,-4
 428 0002 00AF     	 add r7,sp,#0
 429              	.LCFI25:
 430              	 .cfi_def_cfa_register 7
  60:../VCU_OUT/State_2.c **** 	/* ignition 2 by default on */
  61:../VCU_OUT/State_2.c **** 	digital_io_setoutputhigh(&SUNROOF_PWR_OUT_D);//irp_12v supply
 431              	 .loc 3 61 0
 432 0004 1048     	 ldr r0,.L11
 433 0006 FFF7FEFF 	 bl digital_io_setoutputhigh
  62:../VCU_OUT/State_2.c **** 	//ignition_default_state_MC();
  63:../VCU_OUT/State_2.c **** 	DIGITAL_IO_SetOutputHigh(&PWR_STEERING_OUT_D);/// power steering// check
 434              	 .loc 3 63 0
 435 000a 1048     	 ldr r0,.L11+4
 436 000c FFF7FEFF 	 bl DIGITAL_IO_SetOutputHigh
  64:../VCU_OUT/State_2.c **** 	DIGITAL_IO_SetOutputHigh(&VACUUM_PUMP_OUT_D); // check
 437              	 .loc 3 64 0
 438 0010 0F48     	 ldr r0,.L11+8
 439 0012 FFF7FEFF 	 bl DIGITAL_IO_SetOutputHigh
  65:../VCU_OUT/State_2.c **** 
  66:../VCU_OUT/State_2.c **** 	//DIGITAL_IO_SetOutputHigh(&MC_RELAY_PWR_OUT_D); // common for everything giving 12v to mc every r
  67:../VCU_OUT/State_2.c **** 	DIGITAL_IO_SetOutputHigh(&MC_RELAY_PWR_OUT_D);
 440              	 .loc 3 67 0
 441 0016 0F48     	 ldr r0,.L11+12
 442 0018 FFF7FEFF 	 bl DIGITAL_IO_SetOutputHigh
  68:../VCU_OUT/State_2.c **** 
  69:../VCU_OUT/State_2.c **** 	DIGITAL_IO_SetOutputHigh(&AUX_EFUSE_1_OUT_D); // common for everything giving 12v to mc every rela
 443              	 .loc 3 69 0
 444 001c 0E48     	 ldr r0,.L11+16
 445 001e FFF7FEFF 	 bl DIGITAL_IO_SetOutputHigh
  70:../VCU_OUT/State_2.c **** 
  71:../VCU_OUT/State_2.c **** 	DIGITAL_IO_SetOutputHigh(&MC_REGEN_RELAY_OUT_D); // on relay, relay_driver_pin as output
 446              	 .loc 3 71 0
 447 0022 0E48     	 ldr r0,.L11+20
 448 0024 FFF7FEFF 	 bl DIGITAL_IO_SetOutputHigh
  72:../VCU_OUT/State_2.c **** 
  73:../VCU_OUT/State_2.c **** 	DIGITAL_IO_SetOutputHigh(&MC_ELOCK_RELAY_OUT_D); // start relay , relay_driver_pin as output
 449              	 .loc 3 73 0
 450 0028 0D48     	 ldr r0,.L11+24
 451 002a FFF7FEFF 	 bl DIGITAL_IO_SetOutputHigh
  74:../VCU_OUT/State_2.c **** 
  75:../VCU_OUT/State_2.c **** 	DIGITAL_IO_SetOutputHigh(&MC_FAN_PWR_OUT_D);  // start, on, fwd, rev relay output side
 452              	 .loc 3 75 0
 453 002e 0D48     	 ldr r0,.L11+28
 454 0030 FFF7FEFF 	 bl DIGITAL_IO_SetOutputHigh
  76:../VCU_OUT/State_2.c **** 
  77:../VCU_OUT/State_2.c **** 	DIGITAL_IO_SetOutputHigh(&MC_REV_RELAY_OUT_D);//in irp contactor +ve is coming from harness and -v
 455              	 .loc 3 77 0
 456 0034 0C48     	 ldr r0,.L11+32
 457 0036 FFF7FEFF 	 bl DIGITAL_IO_SetOutputHigh
  78:../VCU_OUT/State_2.c **** 	//digital_io_setoutputhigh(&SUNROOF_PWR_OUT_D);//irp_12v supply
  79:../VCU_OUT/State_2.c **** 	Irp_Mcu_drive_states_29bit->Ignition_Key_indicator = 1;
 458              	 .loc 3 79 0
 459 003a 0C4B     	 ldr r3,.L11+36
 460 003c 1A68     	 ldr r2,[r3]
 461 003e 1378     	 ldrb r3,[r2]
 462 0040 43F08003 	 orr r3,r3,#128
 463 0044 1370     	 strb r3,[r2]
  80:../VCU_OUT/State_2.c **** }
 464              	 .loc 3 80 0
 465 0046 80BD     	 pop {r7,pc}
 466              	.L12:
 467              	 .align 2
 468              	.L11:
 469 0048 00000000 	 .word SUNROOF_PWR_OUT_D
 470 004c 00000000 	 .word PWR_STEERING_OUT_D
 471 0050 00000000 	 .word VACUUM_PUMP_OUT_D
 472 0054 00000000 	 .word MC_RELAY_PWR_OUT_D
 473 0058 00000000 	 .word AUX_EFUSE_1_OUT_D
 474 005c 00000000 	 .word MC_REGEN_RELAY_OUT_D
 475 0060 00000000 	 .word MC_ELOCK_RELAY_OUT_D
 476 0064 00000000 	 .word MC_FAN_PWR_OUT_D
 477 0068 00000000 	 .word MC_REV_RELAY_OUT_D
 478 006c 00000000 	 .word Irp_Mcu_drive_states_29bit
 479              	 .cfi_endproc
 480              	.LFE606:
 482              	 .section .text.ignition2_d_off,"ax",%progbits
 483              	 .align 2
 484              	 .global ignition2_d_off
 485              	 .thumb
 486              	 .thumb_func
 488              	ignition2_d_off:
 489              	.LFB607:
  81:../VCU_OUT/State_2.c **** 
  82:../VCU_OUT/State_2.c **** void ignition2_d_off()
  83:../VCU_OUT/State_2.c **** {
 490              	 .loc 3 83 0
 491              	 .cfi_startproc
 492              	 
 493              	 
 494 0000 80B5     	 push {r7,lr}
 495              	.LCFI26:
 496              	 .cfi_def_cfa_offset 8
 497              	 .cfi_offset 7,-8
 498              	 .cfi_offset 14,-4
 499 0002 00AF     	 add r7,sp,#0
 500              	.LCFI27:
 501              	 .cfi_def_cfa_register 7
  84:../VCU_OUT/State_2.c **** 	DIGITAL_IO_SetOutputLow(&PWR_STEERING_OUT_D);/// power steering
 502              	 .loc 3 84 0
 503 0004 1248     	 ldr r0,.L14
 504 0006 FFF7FEFF 	 bl DIGITAL_IO_SetOutputLow
  85:../VCU_OUT/State_2.c **** 	DIGITAL_IO_SetOutputLow(&VACUUM_PUMP_OUT_D);
 505              	 .loc 3 85 0
 506 000a 1248     	 ldr r0,.L14+4
 507 000c FFF7FEFF 	 bl DIGITAL_IO_SetOutputLow
  86:../VCU_OUT/State_2.c **** 
  87:../VCU_OUT/State_2.c **** 	//DIGITAL_IO_SetOutputLow(&MC_RELAY_PWR_OUT_D);
  88:../VCU_OUT/State_2.c **** 
  89:../VCU_OUT/State_2.c **** 	DIGITAL_IO_SetOutputLow(&MC_ELOCK_RELAY_OUT_D);
 508              	 .loc 3 89 0
 509 0010 1148     	 ldr r0,.L14+8
 510 0012 FFF7FEFF 	 bl DIGITAL_IO_SetOutputLow
  90:../VCU_OUT/State_2.c **** 
  91:../VCU_OUT/State_2.c **** 	DIGITAL_IO_SetOutputLow(&MC_REGEN_RELAY_OUT_D);
 511              	 .loc 3 91 0
 512 0016 1148     	 ldr r0,.L14+12
 513 0018 FFF7FEFF 	 bl DIGITAL_IO_SetOutputLow
  92:../VCU_OUT/State_2.c **** 
  93:../VCU_OUT/State_2.c **** 	DIGITAL_IO_SetOutputLow(&MC_FAN_PWR_OUT_D);
 514              	 .loc 3 93 0
 515 001c 1048     	 ldr r0,.L14+16
 516 001e FFF7FEFF 	 bl DIGITAL_IO_SetOutputLow
  94:../VCU_OUT/State_2.c **** 
  95:../VCU_OUT/State_2.c **** 	DIGITAL_IO_SetOutputLow(&AUX_EFUSE_1_OUT_D); // common for everything giving 12v to mc every relay
 517              	 .loc 3 95 0
 518 0022 1048     	 ldr r0,.L14+20
 519 0024 FFF7FEFF 	 bl DIGITAL_IO_SetOutputLow
  96:../VCU_OUT/State_2.c **** 
  97:../VCU_OUT/State_2.c **** 	DIGITAL_IO_SetOutputLow(&MC_RELAY_PWR_OUT_D);
 520              	 .loc 3 97 0
 521 0028 0F48     	 ldr r0,.L14+24
 522 002a FFF7FEFF 	 bl DIGITAL_IO_SetOutputLow
  98:../VCU_OUT/State_2.c **** 
  99:../VCU_OUT/State_2.c **** 	DIGITAL_IO_SetOutputLow(&REV_LIGHT_OUT_D);
 523              	 .loc 3 99 0
 524 002e 0F48     	 ldr r0,.L14+28
 525 0030 FFF7FEFF 	 bl DIGITAL_IO_SetOutputLow
 100:../VCU_OUT/State_2.c **** 
 101:../VCU_OUT/State_2.c **** 	DIGITAL_IO_SetOutputLow(&MC_REV_RELAY_OUT_D);//in irp contactor +ve is coming from harness and -ve
 526              	 .loc 3 101 0
 527 0034 0E48     	 ldr r0,.L14+32
 528 0036 FFF7FEFF 	 bl DIGITAL_IO_SetOutputLow
 102:../VCU_OUT/State_2.c **** 	digital_io_setoutputlow(&SUNROOF_PWR_OUT_D);//irp_12v supply
 529              	 .loc 3 102 0
 530 003a 0E48     	 ldr r0,.L14+36
 531 003c FFF7FEFF 	 bl digital_io_setoutputlow
 103:../VCU_OUT/State_2.c **** 	Irp_Mcu_drive_states_29bit->Ignition_Key_indicator = 0;
 532              	 .loc 3 103 0
 533 0040 0D4B     	 ldr r3,.L14+40
 534 0042 1A68     	 ldr r2,[r3]
 535 0044 1378     	 ldrb r3,[r2]
 536 0046 6FF3C713 	 bfc r3,#7,#1
 537 004a 1370     	 strb r3,[r2]
 104:../VCU_OUT/State_2.c **** }
 538              	 .loc 3 104 0
 539 004c 80BD     	 pop {r7,pc}
 540              	.L15:
 541 004e 00BF     	 .align 2
 542              	.L14:
 543 0050 00000000 	 .word PWR_STEERING_OUT_D
 544 0054 00000000 	 .word VACUUM_PUMP_OUT_D
 545 0058 00000000 	 .word MC_ELOCK_RELAY_OUT_D
 546 005c 00000000 	 .word MC_REGEN_RELAY_OUT_D
 547 0060 00000000 	 .word MC_FAN_PWR_OUT_D
 548 0064 00000000 	 .word AUX_EFUSE_1_OUT_D
 549 0068 00000000 	 .word MC_RELAY_PWR_OUT_D
 550 006c 00000000 	 .word REV_LIGHT_OUT_D
 551 0070 00000000 	 .word MC_REV_RELAY_OUT_D
 552 0074 00000000 	 .word SUNROOF_PWR_OUT_D
 553 0078 00000000 	 .word Irp_Mcu_drive_states_29bit
 554              	 .cfi_endproc
 555              	.LFE607:
 557              	 .section .text.all_ig2_direct_controlled_off,"ax",%progbits
 558              	 .align 2
 559              	 .global all_ig2_direct_controlled_off
 560              	 .thumb
 561              	 .thumb_func
 563              	all_ig2_direct_controlled_off:
 564              	.LFB608:
 105:../VCU_OUT/State_2.c **** 
 106:../VCU_OUT/State_2.c **** void all_ig2_direct_controlled_off(void)
 107:../VCU_OUT/State_2.c **** {
 565              	 .loc 3 107 0
 566              	 .cfi_startproc
 567              	 
 568              	 
 569              	 
 570 0000 80B4     	 push {r7}
 571              	.LCFI28:
 572              	 .cfi_def_cfa_offset 4
 573              	 .cfi_offset 7,-4
 574 0002 00AF     	 add r7,sp,#0
 575              	.LCFI29:
 576              	 .cfi_def_cfa_register 7
 108:../VCU_OUT/State_2.c **** 
 109:../VCU_OUT/State_2.c **** }
 577              	 .loc 3 109 0
 578 0004 BD46     	 mov sp,r7
 579              	.LCFI30:
 580              	 .cfi_def_cfa_register 13
 581              	 
 582 0006 5DF8047B 	 ldr r7,[sp],#4
 583              	.LCFI31:
 584              	 .cfi_restore 7
 585              	 .cfi_def_cfa_offset 0
 586 000a 7047     	 bx lr
 587              	 .cfi_endproc
 588              	.LFE608:
 590              	 .section .text.Can_Outputs_State2,"ax",%progbits
 591              	 .align 2
 592              	 .global Can_Outputs_State2
 593              	 .thumb
 594              	 .thumb_func
 596              	Can_Outputs_State2:
 597              	.LFB609:
 110:../VCU_OUT/State_2.c **** 
 111:../VCU_OUT/State_2.c **** void Can_Outputs_State2(void)
 112:../VCU_OUT/State_2.c **** {
 598              	 .loc 3 112 0
 599              	 .cfi_startproc
 600              	 
 601              	 
 602 0000 80B5     	 push {r7,lr}
 603              	.LCFI32:
 604              	 .cfi_def_cfa_offset 8
 605              	 .cfi_offset 7,-8
 606              	 .cfi_offset 14,-4
 607 0002 00AF     	 add r7,sp,#0
 608              	.LCFI33:
 609              	 .cfi_def_cfa_register 7
 113:../VCU_OUT/State_2.c **** 	CAN_OUTPUT_EPS();
 610              	 .loc 3 113 0
 611 0004 FFF7FEFF 	 bl CAN_OUTPUT_EPS
 114:../VCU_OUT/State_2.c **** 	//Gtake_Tx_29bit();
 115:../VCU_OUT/State_2.c **** 
 116:../VCU_OUT/State_2.c **** 	Irp_Tx_29bit();
 612              	 .loc 3 116 0
 613 0008 FFF7FEFF 	 bl Irp_Tx_29bit
 117:../VCU_OUT/State_2.c **** 
 118:../VCU_OUT/State_2.c **** 	//Tx_CAN_0x121();
 119:../VCU_OUT/State_2.c **** }
 614              	 .loc 3 119 0
 615 000c 80BD     	 pop {r7,pc}
 616              	 .cfi_endproc
 617              	.LFE609:
 619 000e 00BF     	 .section .text.VcuOut_MotorController,"ax",%progbits
 620              	 .align 2
 621              	 .global VcuOut_MotorController
 622              	 .thumb
 623              	 .thumb_func
 625              	VcuOut_MotorController:
 626              	.LFB610:
 120:../VCU_OUT/State_2.c **** 
 121:../VCU_OUT/State_2.c **** void VcuOut_MotorController(void)
 122:../VCU_OUT/State_2.c **** {
 627              	 .loc 3 122 0
 628              	 .cfi_startproc
 629              	 
 630              	 
 631 0000 80B5     	 push {r7,lr}
 632              	.LCFI34:
 633              	 .cfi_def_cfa_offset 8
 634              	 .cfi_offset 7,-8
 635              	 .cfi_offset 14,-4
 636 0002 00AF     	 add r7,sp,#0
 637              	.LCFI35:
 638              	 .cfi_def_cfa_register 7
 123:../VCU_OUT/State_2.c **** 	//VcuOut_MotorController_Gtake();
 124:../VCU_OUT/State_2.c **** 	VcuOut_MotorController_IRP();
 639              	 .loc 3 124 0
 640 0004 FFF7FEFF 	 bl VcuOut_MotorController_IRP
 125:../VCU_OUT/State_2.c **** }
 641              	 .loc 3 125 0
 642 0008 80BD     	 pop {r7,pc}
 643              	 .cfi_endproc
 644              	.LFE610:
 646 000a 00BF     	 .section .text.VcuOut_MotorController_Gtake,"ax",%progbits
 647              	 .align 2
 648              	 .global VcuOut_MotorController_Gtake
 649              	 .thumb
 650              	 .thumb_func
 652              	VcuOut_MotorController_Gtake:
 653              	.LFB611:
 126:../VCU_OUT/State_2.c **** 
 127:../VCU_OUT/State_2.c **** void VcuOut_MotorController_Gtake(void)
 128:../VCU_OUT/State_2.c **** {
 654              	 .loc 3 128 0
 655              	 .cfi_startproc
 656              	 
 657              	 
 658              	 
 659 0000 80B4     	 push {r7}
 660              	.LCFI36:
 661              	 .cfi_def_cfa_offset 4
 662              	 .cfi_offset 7,-4
 663 0002 00AF     	 add r7,sp,#0
 664              	.LCFI37:
 665              	 .cfi_def_cfa_register 7
 129:../VCU_OUT/State_2.c **** 
 130:../VCU_OUT/State_2.c **** static enum Gearchange_Sequence_forHzaard_t Gearchange_Sequence_forHzaard = not_allowed;
 131:../VCU_OUT/State_2.c **** 
 132:../VCU_OUT/State_2.c **** 	if(Lights_OUT.brake_switch_out_d && (!VehicleSpeedglb)/*&& (limphome_Mode())*/)
 666              	 .loc 3 132 0
 667 0004 404B     	 ldr r3,.L30
 668 0006 5B78     	 ldrb r3,[r3,#1]
 669 0008 002B     	 cmp r3,#0
 670 000a 76D0     	 beq .L20
 671              	 .loc 3 132 0 is_stmt 0 discriminator 1
 672 000c 3F4B     	 ldr r3,.L30+4
 673 000e 1B88     	 ldrh r3,[r3]
 674 0010 002B     	 cmp r3,#0
 675 0012 72D1     	 bne .L20
 133:../VCU_OUT/State_2.c **** 	{
 134:../VCU_OUT/State_2.c **** 		//Gearchange_Sequence_forHzaard = not_allowed;
 135:../VCU_OUT/State_2.c **** 		if(Motor_controller_OUT.forward_Relay )
 676              	 .loc 3 135 0 is_stmt 1
 677 0014 3E4B     	 ldr r3,.L30+8
 678 0016 DB78     	 ldrb r3,[r3,#3]
 679 0018 002B     	 cmp r3,#0
 680 001a 18D0     	 beq .L21
 136:../VCU_OUT/State_2.c **** 		{
 137:../VCU_OUT/State_2.c **** 			if(Gearchange_Sequence_forHzaard)
 681              	 .loc 3 137 0
 682 001c 3D4B     	 ldr r3,.L30+12
 683 001e 1B78     	 ldrb r3,[r3]
 684 0020 002B     	 cmp r3,#0
 685 0022 10D0     	 beq .L22
 138:../VCU_OUT/State_2.c **** 			{
 139:../VCU_OUT/State_2.c **** 				/*DIGITAL_IO_SetOutputHigh(&MC_FWD_RELAY_OUT_D);
 140:../VCU_OUT/State_2.c **** 				DIGITAL_IO_SetOutputLow(&MC_REV_RELAY_OUT_D);
 141:../VCU_OUT/State_2.c **** 				DIGITAL_IO_SetOutputLow(&MC_PARK_RELAY_OUT_D);*/
 142:../VCU_OUT/State_2.c **** 
 143:../VCU_OUT/State_2.c **** 				Gtake_Mcu_drive_states_29bit ->Drive_mode_cmd = 1; // see drive mode
 686              	 .loc 3 143 0
 687 0024 3C4B     	 ldr r3,.L30+16
 688 0026 1A68     	 ldr r2,[r3]
 689 0028 1378     	 ldrb r3,[r2]
 690 002a 0121     	 movs r1,#1
 691 002c 61F3C503 	 bfi r3,r1,#3,#3
 692 0030 1370     	 strb r3,[r2]
 144:../VCU_OUT/State_2.c **** 				Gtake_Mcu_drive_states_29bit ->Motor_direction_cmd = fwd;
 693              	 .loc 3 144 0
 694 0032 394B     	 ldr r3,.L30+16
 695 0034 1A68     	 ldr r2,[r3]
 696 0036 1378     	 ldrb r3,[r2]
 697 0038 6FF30203 	 bfc r3,#0,#3
 698 003c 1370     	 strb r3,[r2]
 145:../VCU_OUT/State_2.c **** 				//Gtake_Mcu_drive_states -> Drive_mode_cmd = 2;
 146:../VCU_OUT/State_2.c **** 				//Gtake_Mcu_drive_states -> Motor_direction_cmd = 000;
 147:../VCU_OUT/State_2.c **** 				Gear_OUT-> forward = 0x00;
 699              	 .loc 3 147 0
 700 003e 374B     	 ldr r3,.L30+20
 701 0040 1B68     	 ldr r3,[r3]
 702 0042 0022     	 movs r2,#0
 703 0044 1A70     	 strb r2,[r3]
 704              	.L22:
 148:../VCU_OUT/State_2.c **** 			}
 149:../VCU_OUT/State_2.c **** 			Gearchange_Sequence_forHzaard = not_allowed;
 705              	 .loc 3 149 0
 706 0046 334B     	 ldr r3,.L30+12
 707 0048 0022     	 movs r2,#0
 708 004a 1A70     	 strb r2,[r3]
 709 004c 54E0     	 b .L23
 710              	.L21:
 150:../VCU_OUT/State_2.c **** 		}
 151:../VCU_OUT/State_2.c **** 		else if (Motor_controller_OUT.reverse_relay)
 711              	 .loc 3 151 0
 712 004e 304B     	 ldr r3,.L30+8
 713 0050 5B78     	 ldrb r3,[r3,#1]
 714 0052 002B     	 cmp r3,#0
 715 0054 19D0     	 beq .L24
 152:../VCU_OUT/State_2.c **** 		{
 153:../VCU_OUT/State_2.c **** 			if(Gearchange_Sequence_forHzaard)
 716              	 .loc 3 153 0
 717 0056 2F4B     	 ldr r3,.L30+12
 718 0058 1B78     	 ldrb r3,[r3]
 719 005a 002B     	 cmp r3,#0
 720 005c 11D0     	 beq .L25
 154:../VCU_OUT/State_2.c **** 			{
 155:../VCU_OUT/State_2.c **** 				/*DIGITAL_IO_SetOutputHigh(&MC_REV_RELAY_OUT_D);
 156:../VCU_OUT/State_2.c **** 				DIGITAL_IO_SetOutputLow(&MC_FWD_RELAY_OUT_D);
 157:../VCU_OUT/State_2.c **** 				DIGITAL_IO_SetOutputLow(&MC_PARK_RELAY_OUT_D);*/
 158:../VCU_OUT/State_2.c **** 
 159:../VCU_OUT/State_2.c **** 				//Gtake_Mcu_drive_states -> Drive_mode_cmd = 2;
 160:../VCU_OUT/State_2.c **** 				Gtake_Mcu_drive_states_29bit ->Drive_mode_cmd = 1;
 721              	 .loc 3 160 0
 722 005e 2E4B     	 ldr r3,.L30+16
 723 0060 1A68     	 ldr r2,[r3]
 724 0062 1378     	 ldrb r3,[r2]
 725 0064 0121     	 movs r1,#1
 726 0066 61F3C503 	 bfi r3,r1,#3,#3
 727 006a 1370     	 strb r3,[r2]
 161:../VCU_OUT/State_2.c **** 				Gtake_Mcu_drive_states_29bit ->Motor_direction_cmd = rev;
 728              	 .loc 3 161 0
 729 006c 2A4B     	 ldr r3,.L30+16
 730 006e 1A68     	 ldr r2,[r3]
 731 0070 1378     	 ldrb r3,[r2]
 732 0072 0121     	 movs r1,#1
 733 0074 61F30203 	 bfi r3,r1,#0,#3
 734 0078 1370     	 strb r3,[r2]
 162:../VCU_OUT/State_2.c **** 				//Gtake_Mcu_drive_states -> Motor_direction_cmd = 001;
 163:../VCU_OUT/State_2.c **** 
 164:../VCU_OUT/State_2.c **** 				Gear_OUT-> reverse = 0x03;
 735              	 .loc 3 164 0
 736 007a 284B     	 ldr r3,.L30+20
 737 007c 1B68     	 ldr r3,[r3]
 738 007e 0322     	 movs r2,#3
 739 0080 1A70     	 strb r2,[r3]
 740              	.L25:
 165:../VCU_OUT/State_2.c **** 			}
 166:../VCU_OUT/State_2.c **** 			Gearchange_Sequence_forHzaard = not_allowed;
 741              	 .loc 3 166 0
 742 0082 244B     	 ldr r3,.L30+12
 743 0084 0022     	 movs r2,#0
 744 0086 1A70     	 strb r2,[r3]
 745 0088 36E0     	 b .L23
 746              	.L24:
 167:../VCU_OUT/State_2.c **** 		}
 168:../VCU_OUT/State_2.c **** 		else if (Motor_controller_OUT.park_relay)
 747              	 .loc 3 168 0
 748 008a 214B     	 ldr r3,.L30+8
 749 008c 9B78     	 ldrb r3,[r3,#2]
 750 008e 002B     	 cmp r3,#0
 751 0090 15D0     	 beq .L26
 169:../VCU_OUT/State_2.c **** 		{
 170:../VCU_OUT/State_2.c **** 			/*DIGITAL_IO_SetOutputHigh(&MC_PARK_RELAY_OUT_D);
 171:../VCU_OUT/State_2.c **** 			DIGITAL_IO_SetOutputLow(&MC_FWD_RELAY_OUT_D);
 172:../VCU_OUT/State_2.c **** 			DIGITAL_IO_SetOutputLow(&MC_REV_RELAY_OUT_D);*/
 173:../VCU_OUT/State_2.c **** 
 174:../VCU_OUT/State_2.c **** 			if(Gear_OUT-> reverse == 0x03)
 752              	 .loc 3 174 0
 753 0092 224B     	 ldr r3,.L30+20
 754 0094 1B68     	 ldr r3,[r3]
 755 0096 1B78     	 ldrb r3,[r3]
 756 0098 032B     	 cmp r3,#3
 757 009a 05D1     	 bne .L27
 175:../VCU_OUT/State_2.c **** 				Gtake_Mcu_drive_states_29bit ->Motor_direction_cmd = 00;
 758              	 .loc 3 175 0
 759 009c 1E4B     	 ldr r3,.L30+16
 760 009e 1A68     	 ldr r2,[r3]
 761 00a0 1378     	 ldrb r3,[r2]
 762 00a2 6FF30203 	 bfc r3,#0,#3
 763 00a6 1370     	 strb r3,[r2]
 764              	.L27:
 176:../VCU_OUT/State_2.c **** 
 177:../VCU_OUT/State_2.c **** 			Gtake_Mcu_drive_states_29bit ->Drive_mode_cmd = 0;
 765              	 .loc 3 177 0
 766 00a8 1B4B     	 ldr r3,.L30+16
 767 00aa 1A68     	 ldr r2,[r3]
 768 00ac 1378     	 ldrb r3,[r2]
 769 00ae 6FF3C503 	 bfc r3,#3,#3
 770 00b2 1370     	 strb r3,[r2]
 178:../VCU_OUT/State_2.c **** 			Gear_OUT-> park = 0x02;
 771              	 .loc 3 178 0
 772 00b4 194B     	 ldr r3,.L30+20
 773 00b6 1B68     	 ldr r3,[r3]
 774 00b8 0222     	 movs r2,#2
 775 00ba 1A70     	 strb r2,[r3]
 776 00bc 1CE0     	 b .L23
 777              	.L26:
 179:../VCU_OUT/State_2.c **** 		}
 180:../VCU_OUT/State_2.c **** 		else if(Motor_controller_OUT.neutral)
 778              	 .loc 3 180 0
 779 00be 144B     	 ldr r3,.L30+8
 780 00c0 1B79     	 ldrb r3,[r3,#4]
 781 00c2 002B     	 cmp r3,#0
 782 00c4 18D0     	 beq .L23
 181:../VCU_OUT/State_2.c **** 		{
 182:../VCU_OUT/State_2.c **** 
 183:../VCU_OUT/State_2.c **** 			/*DIGITAL_IO_SetOutputLow(&MC_FWD_RELAY_OUT_D);
 184:../VCU_OUT/State_2.c **** 			DIGITAL_IO_SetOutputLow(&MC_REV_RELAY_OUT_D);
 185:../VCU_OUT/State_2.c **** 			DIGITAL_IO_SetOutputLow(&MC_PARK_RELAY_OUT_D);*/
 186:../VCU_OUT/State_2.c **** 
 187:../VCU_OUT/State_2.c **** 			//Gtake_Mcu_drive_states -> Drive_mode_cmd = 0x000;
 188:../VCU_OUT/State_2.c **** 			if(Gear_OUT-> reverse == 0x03)
 783              	 .loc 3 188 0
 784 00c6 154B     	 ldr r3,.L30+20
 785 00c8 1B68     	 ldr r3,[r3]
 786 00ca 1B78     	 ldrb r3,[r3]
 787 00cc 032B     	 cmp r3,#3
 788 00ce 05D1     	 bne .L28
 189:../VCU_OUT/State_2.c **** 				Gtake_Mcu_drive_states_29bit ->Motor_direction_cmd = 00;
 789              	 .loc 3 189 0
 790 00d0 114B     	 ldr r3,.L30+16
 791 00d2 1A68     	 ldr r2,[r3]
 792 00d4 1378     	 ldrb r3,[r2]
 793 00d6 6FF30203 	 bfc r3,#0,#3
 794 00da 1370     	 strb r3,[r2]
 795              	.L28:
 190:../VCU_OUT/State_2.c **** 
 191:../VCU_OUT/State_2.c **** 			Gtake_Mcu_drive_states_29bit ->Drive_mode_cmd = 0; //00;
 796              	 .loc 3 191 0
 797 00dc 0E4B     	 ldr r3,.L30+16
 798 00de 1A68     	 ldr r2,[r3]
 799 00e0 1378     	 ldrb r3,[r2]
 800 00e2 6FF3C503 	 bfc r3,#3,#3
 801 00e6 1370     	 strb r3,[r2]
 192:../VCU_OUT/State_2.c **** 			Gear_OUT-> neutral = 0x01;
 802              	 .loc 3 192 0
 803 00e8 0C4B     	 ldr r3,.L30+20
 804 00ea 1B68     	 ldr r3,[r3]
 805 00ec 0122     	 movs r2,#1
 806 00ee 1A70     	 strb r2,[r3]
 193:../VCU_OUT/State_2.c **** 
 194:../VCU_OUT/State_2.c **** 			//Gearchange_Sequence_forHzaard = not_allowed;
 195:../VCU_OUT/State_2.c **** 			//if(Lights_OUT.brake_switch_out_d && (!VehicleSpeedglb))
 196:../VCU_OUT/State_2.c **** 			Gearchange_Sequence_forHzaard = allowed;
 807              	 .loc 3 196 0
 808 00f0 084B     	 ldr r3,.L30+12
 809 00f2 0122     	 movs r2,#1
 810 00f4 1A70     	 strb r2,[r3]
 135:../VCU_OUT/State_2.c **** 		{
 811              	 .loc 3 135 0
 812 00f6 03E0     	 b .L19
 813              	.L23:
 814 00f8 02E0     	 b .L19
 815              	.L20:
 197:../VCU_OUT/State_2.c **** 		}
 198:../VCU_OUT/State_2.c **** 	}
 199:../VCU_OUT/State_2.c **** 	else
 200:../VCU_OUT/State_2.c **** 	{
 201:../VCU_OUT/State_2.c **** 		Gearchange_Sequence_forHzaard = not_allowed;
 816              	 .loc 3 201 0
 817 00fa 064B     	 ldr r3,.L30+12
 818 00fc 0022     	 movs r2,#0
 819 00fe 1A70     	 strb r2,[r3]
 820              	.L19:
 202:../VCU_OUT/State_2.c **** 	}
 203:../VCU_OUT/State_2.c **** 	//limphome_Mode();
 204:../VCU_OUT/State_2.c **** }
 821              	 .loc 3 204 0
 822 0100 BD46     	 mov sp,r7
 823              	.LCFI38:
 824              	 .cfi_def_cfa_register 13
 825              	 
 826 0102 5DF8047B 	 ldr r7,[sp],#4
 827              	.LCFI39:
 828              	 .cfi_restore 7
 829              	 .cfi_def_cfa_offset 0
 830 0106 7047     	 bx lr
 831              	.L31:
 832              	 .align 2
 833              	.L30:
 834 0108 00000000 	 .word Lights_OUT
 835 010c 00000000 	 .word VehicleSpeedglb
 836 0110 00000000 	 .word Motor_controller_OUT
 837 0114 00000000 	 .word Gearchange_Sequence_forHzaard.13965
 838 0118 00000000 	 .word Gtake_Mcu_drive_states_29bit
 839 011c 00000000 	 .word Gear_OUT
 840              	 .cfi_endproc
 841              	.LFE611:
 843              	 .section .text.VcuOut_MotorController_IRP,"ax",%progbits
 844              	 .align 2
 845              	 .global VcuOut_MotorController_IRP
 846              	 .thumb
 847              	 .thumb_func
 849              	VcuOut_MotorController_IRP:
 850              	.LFB612:
 205:../VCU_OUT/State_2.c **** 
 206:../VCU_OUT/State_2.c **** 
 207:../VCU_OUT/State_2.c **** void VcuOut_MotorController_IRP(void)
 208:../VCU_OUT/State_2.c **** {
 851              	 .loc 3 208 0
 852              	 .cfi_startproc
 853              	 
 854              	 
 855 0000 80B5     	 push {r7,lr}
 856              	.LCFI40:
 857              	 .cfi_def_cfa_offset 8
 858              	 .cfi_offset 7,-8
 859              	 .cfi_offset 14,-4
 860 0002 00AF     	 add r7,sp,#0
 861              	.LCFI41:
 862              	 .cfi_def_cfa_register 7
 209:../VCU_OUT/State_2.c **** 
 210:../VCU_OUT/State_2.c **** 	static enum Gearchange_Sequence_forHzaard_t Gearchange_Sequence_forHzaard = not_allowed;
 211:../VCU_OUT/State_2.c **** 
 212:../VCU_OUT/State_2.c **** 	VcuOut_MotorController_IRP_BMS_Status();
 863              	 .loc 3 212 0
 864 0004 FFF7FEFF 	 bl VcuOut_MotorController_IRP_BMS_Status
 213:../VCU_OUT/State_2.c **** 
 214:../VCU_OUT/State_2.c **** 	if(Lights_OUT.brake_switch_out_d && (!VehicleSpeedglb)/*&& (limphome_Mode_IRP())*/)
 865              	 .loc 3 214 0
 866 0008 2E4B     	 ldr r3,.L41
 867 000a 5B78     	 ldrb r3,[r3,#1]
 868 000c 002B     	 cmp r3,#0
 869 000e 53D0     	 beq .L33
 870              	 .loc 3 214 0 is_stmt 0 discriminator 1
 871 0010 2D4B     	 ldr r3,.L41+4
 872 0012 1B88     	 ldrh r3,[r3]
 873 0014 002B     	 cmp r3,#0
 874 0016 4FD1     	 bne .L33
 215:../VCU_OUT/State_2.c **** 	{
 216:../VCU_OUT/State_2.c **** 		//Gearchange_Sequence_forHzaard = not_allowed;
 217:../VCU_OUT/State_2.c **** 		if(Motor_controller_OUT.forward_Relay )
 875              	 .loc 3 217 0 is_stmt 1
 876 0018 2C4B     	 ldr r3,.L41+8
 877 001a DB78     	 ldrb r3,[r3,#3]
 878 001c 002B     	 cmp r3,#0
 879 001e 12D0     	 beq .L34
 218:../VCU_OUT/State_2.c **** 		{
 219:../VCU_OUT/State_2.c **** 			if(Gearchange_Sequence_forHzaard)
 880              	 .loc 3 219 0
 881 0020 2B4B     	 ldr r3,.L41+12
 882 0022 1B78     	 ldrb r3,[r3]
 883 0024 002B     	 cmp r3,#0
 884 0026 0AD0     	 beq .L35
 220:../VCU_OUT/State_2.c **** 			{
 221:../VCU_OUT/State_2.c **** 				Irp_Mcu_drive_states_29bit->FNR = Forward_Irp;
 885              	 .loc 3 221 0
 886 0028 2A4B     	 ldr r3,.L41+16
 887 002a 1A68     	 ldr r2,[r3]
 888 002c 1378     	 ldrb r3,[r2]
 889 002e 0121     	 movs r1,#1
 890 0030 61F30103 	 bfi r3,r1,#0,#2
 891 0034 1370     	 strb r3,[r2]
 222:../VCU_OUT/State_2.c **** 				Gear_OUT-> forward = 0x00;
 892              	 .loc 3 222 0
 893 0036 284B     	 ldr r3,.L41+20
 894 0038 1B68     	 ldr r3,[r3]
 895 003a 0022     	 movs r2,#0
 896 003c 1A70     	 strb r2,[r3]
 897              	.L35:
 223:../VCU_OUT/State_2.c **** 			}
 224:../VCU_OUT/State_2.c **** 			Gearchange_Sequence_forHzaard = not_allowed;
 898              	 .loc 3 224 0
 899 003e 244B     	 ldr r3,.L41+12
 900 0040 0022     	 movs r2,#0
 901 0042 1A70     	 strb r2,[r3]
 902 0044 37E0     	 b .L36
 903              	.L34:
 225:../VCU_OUT/State_2.c **** 		}
 226:../VCU_OUT/State_2.c **** 		else if (Motor_controller_OUT.reverse_relay)
 904              	 .loc 3 226 0
 905 0046 214B     	 ldr r3,.L41+8
 906 0048 5B78     	 ldrb r3,[r3,#1]
 907 004a 002B     	 cmp r3,#0
 908 004c 12D0     	 beq .L37
 227:../VCU_OUT/State_2.c **** 		{
 228:../VCU_OUT/State_2.c **** 			if(Gearchange_Sequence_forHzaard)
 909              	 .loc 3 228 0
 910 004e 204B     	 ldr r3,.L41+12
 911 0050 1B78     	 ldrb r3,[r3]
 912 0052 002B     	 cmp r3,#0
 913 0054 0AD0     	 beq .L38
 229:../VCU_OUT/State_2.c **** 			{
 230:../VCU_OUT/State_2.c **** 				Irp_Mcu_drive_states_29bit->FNR = Reverse_Irp;
 914              	 .loc 3 230 0
 915 0056 1F4B     	 ldr r3,.L41+16
 916 0058 1A68     	 ldr r2,[r3]
 917 005a 1378     	 ldrb r3,[r2]
 918 005c 0221     	 movs r1,#2
 919 005e 61F30103 	 bfi r3,r1,#0,#2
 920 0062 1370     	 strb r3,[r2]
 231:../VCU_OUT/State_2.c **** 				Gear_OUT-> reverse = 0x03;
 921              	 .loc 3 231 0
 922 0064 1C4B     	 ldr r3,.L41+20
 923 0066 1B68     	 ldr r3,[r3]
 924 0068 0322     	 movs r2,#3
 925 006a 1A70     	 strb r2,[r3]
 926              	.L38:
 232:../VCU_OUT/State_2.c **** 			}
 233:../VCU_OUT/State_2.c **** 			Gearchange_Sequence_forHzaard = not_allowed;
 927              	 .loc 3 233 0
 928 006c 184B     	 ldr r3,.L41+12
 929 006e 0022     	 movs r2,#0
 930 0070 1A70     	 strb r2,[r3]
 931 0072 20E0     	 b .L36
 932              	.L37:
 234:../VCU_OUT/State_2.c **** 		}
 235:../VCU_OUT/State_2.c **** 		else if (Motor_controller_OUT.park_relay)
 933              	 .loc 3 235 0
 934 0074 154B     	 ldr r3,.L41+8
 935 0076 9B78     	 ldrb r3,[r3,#2]
 936 0078 002B     	 cmp r3,#0
 937 007a 0AD0     	 beq .L39
 236:../VCU_OUT/State_2.c **** 		{
 237:../VCU_OUT/State_2.c **** 			Irp_Mcu_drive_states_29bit->FNR = Neutral_Irp; //there is no option for irp
 938              	 .loc 3 237 0
 939 007c 154B     	 ldr r3,.L41+16
 940 007e 1A68     	 ldr r2,[r3]
 941 0080 1378     	 ldrb r3,[r2]
 942 0082 6FF30103 	 bfc r3,#0,#2
 943 0086 1370     	 strb r3,[r2]
 238:../VCU_OUT/State_2.c **** 			Gear_OUT-> park = 0x02;
 944              	 .loc 3 238 0
 945 0088 134B     	 ldr r3,.L41+20
 946 008a 1B68     	 ldr r3,[r3]
 947 008c 0222     	 movs r2,#2
 948 008e 1A70     	 strb r2,[r3]
 949 0090 11E0     	 b .L36
 950              	.L39:
 239:../VCU_OUT/State_2.c **** 		}
 240:../VCU_OUT/State_2.c **** 		else if(Motor_controller_OUT.neutral)
 951              	 .loc 3 240 0
 952 0092 0E4B     	 ldr r3,.L41+8
 953 0094 1B79     	 ldrb r3,[r3,#4]
 954 0096 002B     	 cmp r3,#0
 955 0098 0DD0     	 beq .L36
 241:../VCU_OUT/State_2.c **** 		{
 242:../VCU_OUT/State_2.c **** 			Irp_Mcu_drive_states_29bit->FNR = Neutral_Irp;
 956              	 .loc 3 242 0
 957 009a 0E4B     	 ldr r3,.L41+16
 958 009c 1A68     	 ldr r2,[r3]
 959 009e 1378     	 ldrb r3,[r2]
 960 00a0 6FF30103 	 bfc r3,#0,#2
 961 00a4 1370     	 strb r3,[r2]
 243:../VCU_OUT/State_2.c **** 			Gear_OUT-> neutral = 0x01;
 962              	 .loc 3 243 0
 963 00a6 0C4B     	 ldr r3,.L41+20
 964 00a8 1B68     	 ldr r3,[r3]
 965 00aa 0122     	 movs r2,#1
 966 00ac 1A70     	 strb r2,[r3]
 244:../VCU_OUT/State_2.c **** 			Gearchange_Sequence_forHzaard = allowed;
 967              	 .loc 3 244 0
 968 00ae 084B     	 ldr r3,.L41+12
 969 00b0 0122     	 movs r2,#1
 970 00b2 1A70     	 strb r2,[r3]
 217:../VCU_OUT/State_2.c **** 		{
 971              	 .loc 3 217 0
 972 00b4 03E0     	 b .L40
 973              	.L36:
 974 00b6 02E0     	 b .L40
 975              	.L33:
 245:../VCU_OUT/State_2.c **** 		}
 246:../VCU_OUT/State_2.c **** 	}
 247:../VCU_OUT/State_2.c **** 	else
 248:../VCU_OUT/State_2.c **** 	{
 249:../VCU_OUT/State_2.c **** 		Gearchange_Sequence_forHzaard = not_allowed;
 976              	 .loc 3 249 0
 977 00b8 054B     	 ldr r3,.L41+12
 978 00ba 0022     	 movs r2,#0
 979 00bc 1A70     	 strb r2,[r3]
 980              	.L40:
 250:../VCU_OUT/State_2.c **** 	}
 251:../VCU_OUT/State_2.c **** 
 252:../VCU_OUT/State_2.c **** 	limphome_Mode_IRP();
 981              	 .loc 3 252 0
 982 00be FFF7FEFF 	 bl limphome_Mode_IRP
 253:../VCU_OUT/State_2.c **** 
 254:../VCU_OUT/State_2.c **** }
 983              	 .loc 3 254 0
 984 00c2 80BD     	 pop {r7,pc}
 985              	.L42:
 986              	 .align 2
 987              	.L41:
 988 00c4 00000000 	 .word Lights_OUT
 989 00c8 00000000 	 .word VehicleSpeedglb
 990 00cc 00000000 	 .word Motor_controller_OUT
 991 00d0 00000000 	 .word Gearchange_Sequence_forHzaard.13969
 992 00d4 00000000 	 .word Irp_Mcu_drive_states_29bit
 993 00d8 00000000 	 .word Gear_OUT
 994              	 .cfi_endproc
 995              	.LFE612:
 997              	 .section .text.VcuOut_MotorController_off,"ax",%progbits
 998              	 .align 2
 999              	 .global VcuOut_MotorController_off
 1000              	 .thumb
 1001              	 .thumb_func
 1003              	VcuOut_MotorController_off:
 1004              	.LFB613:
 255:../VCU_OUT/State_2.c **** 
 256:../VCU_OUT/State_2.c **** void VcuOut_MotorController_off(void)
 257:../VCU_OUT/State_2.c **** {
 1005              	 .loc 3 257 0
 1006              	 .cfi_startproc
 1007              	 
 1008              	 
 1009 0000 80B5     	 push {r7,lr}
 1010              	.LCFI42:
 1011              	 .cfi_def_cfa_offset 8
 1012              	 .cfi_offset 7,-8
 1013              	 .cfi_offset 14,-4
 1014 0002 00AF     	 add r7,sp,#0
 1015              	.LCFI43:
 1016              	 .cfi_def_cfa_register 7
 258:../VCU_OUT/State_2.c **** 	//VcuOut_MotorController_off_gtake();
 259:../VCU_OUT/State_2.c **** 	VcuOut_MotorController_off_IRP();
 1017              	 .loc 3 259 0
 1018 0004 FFF7FEFF 	 bl VcuOut_MotorController_off_IRP
 260:../VCU_OUT/State_2.c **** 
 261:../VCU_OUT/State_2.c **** }
 1019              	 .loc 3 261 0
 1020 0008 80BD     	 pop {r7,pc}
 1021              	 .cfi_endproc
 1022              	.LFE613:
 1024 000a 00BF     	 .section .text.VcuOut_MotorController_off_gtake,"ax",%progbits
 1025              	 .align 2
 1026              	 .global VcuOut_MotorController_off_gtake
 1027              	 .thumb
 1028              	 .thumb_func
 1030              	VcuOut_MotorController_off_gtake:
 1031              	.LFB614:
 262:../VCU_OUT/State_2.c **** void VcuOut_MotorController_off_gtake(void)
 263:../VCU_OUT/State_2.c **** {
 1032              	 .loc 3 263 0
 1033              	 .cfi_startproc
 1034              	 
 1035              	 
 1036 0000 80B5     	 push {r7,lr}
 1037              	.LCFI44:
 1038              	 .cfi_def_cfa_offset 8
 1039              	 .cfi_offset 7,-8
 1040              	 .cfi_offset 14,-4
 1041 0002 00AF     	 add r7,sp,#0
 1042              	.LCFI45:
 1043              	 .cfi_def_cfa_register 7
 264:../VCU_OUT/State_2.c **** 	DIGITAL_IO_SetOutputLow(&MC_RELAY_PWR_OUT_D);
 1044              	 .loc 3 264 0
 1045 0004 0E48     	 ldr r0,.L45
 1046 0006 FFF7FEFF 	 bl DIGITAL_IO_SetOutputLow
 265:../VCU_OUT/State_2.c **** 	DIGITAL_IO_SetOutputLow(&MC_FWD_RELAY_OUT_D);
 1047              	 .loc 3 265 0
 1048 000a 0E48     	 ldr r0,.L45+4
 1049 000c FFF7FEFF 	 bl DIGITAL_IO_SetOutputLow
 266:../VCU_OUT/State_2.c **** 	DIGITAL_IO_SetOutputLow(&MC_REV_RELAY_OUT_D);
 1050              	 .loc 3 266 0
 1051 0010 0D48     	 ldr r0,.L45+8
 1052 0012 FFF7FEFF 	 bl DIGITAL_IO_SetOutputLow
 267:../VCU_OUT/State_2.c **** 	DIGITAL_IO_SetOutputLow(&MC_PARK_RELAY_OUT_D);
 1053              	 .loc 3 267 0
 1054 0016 0D48     	 ldr r0,.L45+12
 1055 0018 FFF7FEFF 	 bl DIGITAL_IO_SetOutputLow
 268:../VCU_OUT/State_2.c **** 
 269:../VCU_OUT/State_2.c **** 	Gtake_Mcu_drive_states -> Drive_mode_cmd = 0x000;
 1056              	 .loc 3 269 0
 1057 001c 0C4B     	 ldr r3,.L45+16
 1058 001e 1A68     	 ldr r2,[r3]
 1059 0020 1378     	 ldrb r3,[r2]
 1060 0022 6FF3C503 	 bfc r3,#3,#3
 1061 0026 1370     	 strb r3,[r2]
 270:../VCU_OUT/State_2.c **** 	Gtake_Mcu_drive_states_29bit ->Drive_mode_cmd = 0;
 1062              	 .loc 3 270 0
 1063 0028 0A4B     	 ldr r3,.L45+20
 1064 002a 1A68     	 ldr r2,[r3]
 1065 002c 1378     	 ldrb r3,[r2]
 1066 002e 6FF3C503 	 bfc r3,#3,#3
 1067 0032 1370     	 strb r3,[r2]
 271:../VCU_OUT/State_2.c **** 	Gear_OUT-> neutral = 0x01;
 1068              	 .loc 3 271 0
 1069 0034 084B     	 ldr r3,.L45+24
 1070 0036 1B68     	 ldr r3,[r3]
 1071 0038 0122     	 movs r2,#1
 1072 003a 1A70     	 strb r2,[r3]
 272:../VCU_OUT/State_2.c **** 
 273:../VCU_OUT/State_2.c **** }
 1073              	 .loc 3 273 0
 1074 003c 80BD     	 pop {r7,pc}
 1075              	.L46:
 1076 003e 00BF     	 .align 2
 1077              	.L45:
 1078 0040 00000000 	 .word MC_RELAY_PWR_OUT_D
 1079 0044 00000000 	 .word MC_FWD_RELAY_OUT_D
 1080 0048 00000000 	 .word MC_REV_RELAY_OUT_D
 1081 004c 00000000 	 .word MC_PARK_RELAY_OUT_D
 1082 0050 00000000 	 .word Gtake_Mcu_drive_states
 1083 0054 00000000 	 .word Gtake_Mcu_drive_states_29bit
 1084 0058 00000000 	 .word Gear_OUT
 1085              	 .cfi_endproc
 1086              	.LFE614:
 1088              	 .section .text.VcuOut_MotorController_off_IRP,"ax",%progbits
 1089              	 .align 2
 1090              	 .global VcuOut_MotorController_off_IRP
 1091              	 .thumb
 1092              	 .thumb_func
 1094              	VcuOut_MotorController_off_IRP:
 1095              	.LFB615:
 274:../VCU_OUT/State_2.c **** void VcuOut_MotorController_off_IRP(void)
 275:../VCU_OUT/State_2.c **** {
 1096              	 .loc 3 275 0
 1097              	 .cfi_startproc
 1098              	 
 1099              	 
 1100              	 
 1101 0000 80B4     	 push {r7}
 1102              	.LCFI46:
 1103              	 .cfi_def_cfa_offset 4
 1104              	 .cfi_offset 7,-4
 1105 0002 00AF     	 add r7,sp,#0
 1106              	.LCFI47:
 1107              	 .cfi_def_cfa_register 7
 276:../VCU_OUT/State_2.c **** 	Irp_Mcu_drive_states_29bit->FNR = Neutral_Irp;
 1108              	 .loc 3 276 0
 1109 0004 144B     	 ldr r3,.L48
 1110 0006 1A68     	 ldr r2,[r3]
 1111 0008 1378     	 ldrb r3,[r2]
 1112 000a 6FF30103 	 bfc r3,#0,#2
 1113 000e 1370     	 strb r3,[r2]
 277:../VCU_OUT/State_2.c **** 	Irp_Mcu_drive_states_29bit->Throttle_Command = 1023;
 1114              	 .loc 3 277 0
 1115 0010 114B     	 ldr r3,.L48
 1116 0012 1B68     	 ldr r3,[r3]
 1117 0014 4FF0FF32 	 mov r2,#-1
 1118 0018 5A70     	 strb r2,[r3,#1]
 1119 001a 9A78     	 ldrb r2,[r3,#2]
 1120 001c 42F00302 	 orr r2,r2,#3
 1121 0020 9A70     	 strb r2,[r3,#2]
 278:../VCU_OUT/State_2.c **** 	Irp_Mcu_drive_states_29bit->Torque_Command = 0;
 1122              	 .loc 3 278 0
 1123 0022 0D4B     	 ldr r3,.L48
 1124 0024 1B68     	 ldr r3,[r3]
 1125 0026 9A78     	 ldrb r2,[r3,#2]
 1126 0028 02F00F02 	 and r2,r2,#15
 1127 002c 9A70     	 strb r2,[r3,#2]
 1128 002e 0022     	 movs r2,#0
 1129 0030 DA70     	 strb r2,[r3,#3]
 1130 0032 1A79     	 ldrb r2,[r3,#4]
 1131 0034 22F00102 	 bic r2,r2,#1
 1132 0038 1A71     	 strb r2,[r3,#4]
 279:../VCU_OUT/State_2.c **** 	Irp_Mcu_drive_states_29bit->Ignition_Key_indicator = 0;
 1133              	 .loc 3 279 0
 1134 003a 074B     	 ldr r3,.L48
 1135 003c 1A68     	 ldr r2,[r3]
 1136 003e 1378     	 ldrb r3,[r2]
 1137 0040 6FF3C713 	 bfc r3,#7,#1
 1138 0044 1370     	 strb r3,[r2]
 280:../VCU_OUT/State_2.c **** 
 281:../VCU_OUT/State_2.c **** 	Gear_OUT-> neutral = 0x01;
 1139              	 .loc 3 281 0
 1140 0046 054B     	 ldr r3,.L48+4
 1141 0048 1B68     	 ldr r3,[r3]
 1142 004a 0122     	 movs r2,#1
 1143 004c 1A70     	 strb r2,[r3]
 282:../VCU_OUT/State_2.c **** 
 283:../VCU_OUT/State_2.c **** 	//Irp_Mcu_drive_states_29bit-> Regen_On_Brake = 0;//(uint8_t )Relay_Control_Switch_OUT.ac_blower3_
 284:../VCU_OUT/State_2.c **** 	//Irp_Mcu_drive_states_29bit-> Regen_On_Throttle_Realese = 0;//(uint8_t)Relay_Control_Switch_OUT.a
 285:../VCU_OUT/State_2.c **** 
 286:../VCU_OUT/State_2.c **** 
 287:../VCU_OUT/State_2.c **** 	//DIGITAL_IO_SetOutputLow(&MC_REV_RELAY_OUT_D); //in irp contactor +ve is coming from harness and 
 288:../VCU_OUT/State_2.c **** }
 1144              	 .loc 3 288 0
 1145 004e BD46     	 mov sp,r7
 1146              	.LCFI48:
 1147              	 .cfi_def_cfa_register 13
 1148              	 
 1149 0050 5DF8047B 	 ldr r7,[sp],#4
 1150              	.LCFI49:
 1151              	 .cfi_restore 7
 1152              	 .cfi_def_cfa_offset 0
 1153 0054 7047     	 bx lr
 1154              	.L49:
 1155 0056 00BF     	 .align 2
 1156              	.L48:
 1157 0058 00000000 	 .word Irp_Mcu_drive_states_29bit
 1158 005c 00000000 	 .word Gear_OUT
 1159              	 .cfi_endproc
 1160              	.LFE615:
 1162              	 .section .text.VcuOut_MotorController_IRP_BMS_Status,"ax",%progbits
 1163              	 .align 2
 1164              	 .global VcuOut_MotorController_IRP_BMS_Status
 1165              	 .thumb
 1166              	 .thumb_func
 1168              	VcuOut_MotorController_IRP_BMS_Status:
 1169              	.LFB616:
 289:../VCU_OUT/State_2.c **** 
 290:../VCU_OUT/State_2.c **** void VcuOut_MotorController_IRP_BMS_Status(void)
 291:../VCU_OUT/State_2.c **** {
 1170              	 .loc 3 291 0
 1171              	 .cfi_startproc
 1172              	 
 1173              	 
 1174              	 
 1175 0000 80B4     	 push {r7}
 1176              	.LCFI50:
 1177              	 .cfi_def_cfa_offset 4
 1178              	 .cfi_offset 7,-4
 1179 0002 00AF     	 add r7,sp,#0
 1180              	.LCFI51:
 1181              	 .cfi_def_cfa_register 7
 292:../VCU_OUT/State_2.c **** 	//Irp_Mcu_drive_states_29bit -> Driving_Profile = 3;
 293:../VCU_OUT/State_2.c **** 
 294:../VCU_OUT/State_2.c **** 	Irp_Mcu_BMS_states_29bit->BMS_OperationMode = 5;
 1182              	 .loc 3 294 0
 1183 0004 464B     	 ldr r3,.L51
 1184 0006 1B68     	 ldr r3,[r3]
 1185 0008 0522     	 movs r2,#5
 1186 000a 1A70     	 strb r2,[r3]
 295:../VCU_OUT/State_2.c **** 	Irp_Mcu_BMS_states_29bit->BMS_Contactor_Status = 1;
 1187              	 .loc 3 295 0
 1188 000c 444B     	 ldr r3,.L51
 1189 000e 1A68     	 ldr r2,[r3]
 1190 0010 5378     	 ldrb r3,[r2,#1]
 1191 0012 0121     	 movs r1,#1
 1192 0014 61F30103 	 bfi r3,r1,#0,#2
 1193 0018 5370     	 strb r3,[r2,#1]
 296:../VCU_OUT/State_2.c **** 	Irp_Mcu_BMS_states_29bit->SOH = Bms_SOH;
 1194              	 .loc 3 296 0
 1195 001a 414B     	 ldr r3,.L51
 1196 001c 1A68     	 ldr r2,[r3]
 1197 001e 414B     	 ldr r3,.L51+4
 1198 0020 1B88     	 ldrh r3,[r3]
 1199 0022 DBB2     	 uxtb r3,r3
 1200 0024 03F07F03 	 and r3,r3,#127
 1201 0028 D9B2     	 uxtb r1,r3
 1202 002a 9378     	 ldrb r3,[r2,#2]
 1203 002c 61F30603 	 bfi r3,r1,#0,#7
 1204 0030 9370     	 strb r3,[r2,#2]
 297:../VCU_OUT/State_2.c **** 	Irp_Mcu_BMS_states_29bit->BMS_SOC = Bms_SOC;
 1205              	 .loc 3 297 0
 1206 0032 3B4B     	 ldr r3,.L51
 1207 0034 1B68     	 ldr r3,[r3]
 1208 0036 3C4A     	 ldr r2,.L51+8
 1209 0038 1288     	 ldrh r2,[r2]
 1210 003a C2F30902 	 ubfx r2,r2,#0,#10
 1211 003e 92B2     	 uxth r2,r2
 1212 0040 D1B2     	 uxtb r1,r2
 1213 0042 0020     	 movs r0,#0
 1214 0044 0143     	 orrs r1,r1,r0
 1215 0046 D970     	 strb r1,[r3,#3]
 1216 0048 120A     	 lsrs r2,r2,#8
 1217 004a 92B2     	 uxth r2,r2
 1218 004c 02F00302 	 and r2,r2,#3
 1219 0050 02F00300 	 and r0,r2,#3
 1220 0054 1A79     	 ldrb r2,[r3,#4]
 1221 0056 22F00302 	 bic r2,r2,#3
 1222 005a 1146     	 mov r1,r2
 1223 005c 0246     	 mov r2,r0
 1224 005e 0A43     	 orrs r2,r2,r1
 1225 0060 1A71     	 strb r2,[r3,#4]
 298:../VCU_OUT/State_2.c **** 
 299:../VCU_OUT/State_2.c **** 	Irp_Mcu_BMS_Currents_29bit->Battery_Voltage = PackVoltage;//50
 1226              	 .loc 3 299 0
 1227 0062 324B     	 ldr r3,.L51+12
 1228 0064 1B68     	 ldr r3,[r3]
 1229 0066 324A     	 ldr r2,.L51+16
 1230 0068 1268     	 ldr r2,[r2]
 1231 006a 92B2     	 uxth r2,r2
 1232 006c C2F30C02 	 ubfx r2,r2,#0,#13
 1233 0070 92B2     	 uxth r2,r2
 1234 0072 D1B2     	 uxtb r1,r2
 1235 0074 0020     	 movs r0,#0
 1236 0076 0143     	 orrs r1,r1,r0
 1237 0078 1970     	 strb r1,[r3]
 1238 007a 120A     	 lsrs r2,r2,#8
 1239 007c 92B2     	 uxth r2,r2
 1240 007e 02F01F02 	 and r2,r2,#31
 1241 0082 02F01F00 	 and r0,r2,#31
 1242 0086 5A78     	 ldrb r2,[r3,#1]
 1243 0088 22F01F02 	 bic r2,r2,#31
 1244 008c 1146     	 mov r1,r2
 1245 008e 0246     	 mov r2,r0
 1246 0090 0A43     	 orrs r2,r2,r1
 1247 0092 5A70     	 strb r2,[r3,#1]
 300:../VCU_OUT/State_2.c **** 	Irp_Mcu_BMS_Currents_29bit->Battery_Current = PackCurrent;//20
 1248              	 .loc 3 300 0
 1249 0094 254B     	 ldr r3,.L51+12
 1250 0096 1B68     	 ldr r3,[r3]
 1251 0098 264A     	 ldr r2,.L51+20
 1252 009a 1268     	 ldr r2,[r2]
 1253 009c 92B2     	 uxth r2,r2
 1254 009e 5201     	 lsls r2,r2,#5
 1255 00a0 12B2     	 sxth r2,r2
 1256 00a2 5211     	 asrs r2,r2,#5
 1257 00a4 92B2     	 uxth r2,r2
 1258 00a6 D1B2     	 uxtb r1,r2
 1259 00a8 0020     	 movs r0,#0
 1260 00aa 0143     	 orrs r1,r1,r0
 1261 00ac 9970     	 strb r1,[r3,#2]
 1262 00ae 120A     	 lsrs r2,r2,#8
 1263 00b0 92B2     	 uxth r2,r2
 1264 00b2 02F00702 	 and r2,r2,#7
 1265 00b6 02F00700 	 and r0,r2,#7
 1266 00ba DA78     	 ldrb r2,[r3,#3]
 1267 00bc 22F00702 	 bic r2,r2,#7
 1268 00c0 1146     	 mov r1,r2
 1269 00c2 0246     	 mov r2,r0
 1270 00c4 0A43     	 orrs r2,r2,r1
 1271 00c6 DA70     	 strb r2,[r3,#3]
 301:../VCU_OUT/State_2.c **** 	Irp_Mcu_BMS_Currents_29bit->MaxDischargeCurrent = 450;//DischargeCurrentLimit * -1;//20;
 1272              	 .loc 3 301 0
 1273 00c8 184B     	 ldr r3,.L51+12
 1274 00ca 1B68     	 ldr r3,[r3]
 1275 00cc 0022     	 movs r2,#0
 1276 00ce 62F03D02 	 orn r2,r2,#61
 1277 00d2 1A71     	 strb r2,[r3,#4]
 1278 00d4 5A79     	 ldrb r2,[r3,#5]
 1279 00d6 22F00702 	 bic r2,r2,#7
 1280 00da 42F00102 	 orr r2,r2,#1
 1281 00de 5A71     	 strb r2,[r3,#5]
 302:../VCU_OUT/State_2.c **** 	Irp_Mcu_BMS_Currents_29bit->MaxRechargeCurrent = -1 * RegenerativeCurrentLimit;//ChargeCurrentLimi
 1282              	 .loc 3 302 0
 1283 00e0 124B     	 ldr r3,.L51+12
 1284 00e2 1B68     	 ldr r3,[r3]
 1285 00e4 144A     	 ldr r2,.L51+24
 1286 00e6 1288     	 ldrh r2,[r2]
 1287 00e8 5242     	 negs r2,r2
 1288 00ea 92B2     	 uxth r2,r2
 1289 00ec 92B2     	 uxth r2,r2
 1290 00ee 5201     	 lsls r2,r2,#5
 1291 00f0 12B2     	 sxth r2,r2
 1292 00f2 5211     	 asrs r2,r2,#5
 1293 00f4 92B2     	 uxth r2,r2
 1294 00f6 D1B2     	 uxtb r1,r2
 1295 00f8 0020     	 movs r0,#0
 1296 00fa 0143     	 orrs r1,r1,r0
 1297 00fc 9971     	 strb r1,[r3,#6]
 1298 00fe 120A     	 lsrs r2,r2,#8
 1299 0100 92B2     	 uxth r2,r2
 1300 0102 02F00702 	 and r2,r2,#7
 1301 0106 02F00700 	 and r0,r2,#7
 1302 010a DA79     	 ldrb r2,[r3,#7]
 1303 010c 22F00702 	 bic r2,r2,#7
 1304 0110 1146     	 mov r1,r2
 1305 0112 0246     	 mov r2,r0
 1306 0114 0A43     	 orrs r2,r2,r1
 1307 0116 DA71     	 strb r2,[r3,#7]
 303:../VCU_OUT/State_2.c **** 
 304:../VCU_OUT/State_2.c **** }
 1308              	 .loc 3 304 0
 1309 0118 BD46     	 mov sp,r7
 1310              	.LCFI52:
 1311              	 .cfi_def_cfa_register 13
 1312              	 
 1313 011a 5DF8047B 	 ldr r7,[sp],#4
 1314              	.LCFI53:
 1315              	 .cfi_restore 7
 1316              	 .cfi_def_cfa_offset 0
 1317 011e 7047     	 bx lr
 1318              	.L52:
 1319              	 .align 2
 1320              	.L51:
 1321 0120 00000000 	 .word Irp_Mcu_BMS_states_29bit
 1322 0124 00000000 	 .word Bms_SOH
 1323 0128 00000000 	 .word Bms_SOC
 1324 012c 00000000 	 .word Irp_Mcu_BMS_Currents_29bit
 1325 0130 00000000 	 .word PackVoltage
 1326 0134 00000000 	 .word PackCurrent
 1327 0138 00000000 	 .word RegenerativeCurrentLimit
 1328              	 .cfi_endproc
 1329              	.LFE616:
 1331              	 .section .text.State2_Lights,"ax",%progbits
 1332              	 .align 2
 1333              	 .global State2_Lights
 1334              	 .thumb
 1335              	 .thumb_func
 1337              	State2_Lights:
 1338              	.LFB617:
 305:../VCU_OUT/State_2.c **** 
 306:../VCU_OUT/State_2.c **** void State2_Lights(void)
 307:../VCU_OUT/State_2.c **** {
 1339              	 .loc 3 307 0
 1340              	 .cfi_startproc
 1341              	 
 1342              	 
 1343 0000 80B5     	 push {r7,lr}
 1344              	.LCFI54:
 1345              	 .cfi_def_cfa_offset 8
 1346              	 .cfi_offset 7,-8
 1347              	 .cfi_offset 14,-4
 1348 0002 00AF     	 add r7,sp,#0
 1349              	.LCFI55:
 1350              	 .cfi_def_cfa_register 7
 308:../VCU_OUT/State_2.c **** 	if((Lights_OUT.brake_switch_out_d))
 1351              	 .loc 3 308 0
 1352 0004 074B     	 ldr r3,.L56
 1353 0006 5B78     	 ldrb r3,[r3,#1]
 1354 0008 002B     	 cmp r3,#0
 1355 000a 0AD0     	 beq .L53
 309:../VCU_OUT/State_2.c **** 	{
 310:../VCU_OUT/State_2.c **** 		if((Lights_OUT.reverse_light_out))
 1356              	 .loc 3 310 0
 1357 000c 054B     	 ldr r3,.L56
 1358 000e 9B78     	 ldrb r3,[r3,#2]
 1359 0010 002B     	 cmp r3,#0
 1360 0012 03D0     	 beq .L55
 311:../VCU_OUT/State_2.c **** 		{
 312:../VCU_OUT/State_2.c **** 			DIGITAL_IO_SetOutputHigh(&REV_LIGHT_OUT_D);
 1361              	 .loc 3 312 0
 1362 0014 0448     	 ldr r0,.L56+4
 1363 0016 FFF7FEFF 	 bl DIGITAL_IO_SetOutputHigh
 1364 001a 02E0     	 b .L53
 1365              	.L55:
 313:../VCU_OUT/State_2.c **** 		}
 314:../VCU_OUT/State_2.c **** 		else
 315:../VCU_OUT/State_2.c **** 		{
 316:../VCU_OUT/State_2.c **** 			DIGITAL_IO_SetOutputLow(&REV_LIGHT_OUT_D);
 1366              	 .loc 3 316 0
 1367 001c 0248     	 ldr r0,.L56+4
 1368 001e FFF7FEFF 	 bl DIGITAL_IO_SetOutputLow
 1369              	.L53:
 317:../VCU_OUT/State_2.c **** 		}
 318:../VCU_OUT/State_2.c **** 	}
 319:../VCU_OUT/State_2.c **** }
 1370              	 .loc 3 319 0
 1371 0022 80BD     	 pop {r7,pc}
 1372              	.L57:
 1373              	 .align 2
 1374              	.L56:
 1375 0024 00000000 	 .word Lights_OUT
 1376 0028 00000000 	 .word REV_LIGHT_OUT_D
 1377              	 .cfi_endproc
 1378              	.LFE617:
 1380              	 .section .bss.Gearchange_Sequence_forHzaard.13965,"aw",%nobits
 1383              	Gearchange_Sequence_forHzaard.13965:
 1384 0000 00       	 .space 1
 1385              	 .section .bss.Gearchange_Sequence_forHzaard.13969,"aw",%nobits
 1388              	Gearchange_Sequence_forHzaard.13969:
 1389 0000 00       	 .space 1
 1390              	 .text
 1391              	.Letext0:
 1392              	 .file 4 "c:\\infineon\\tools\\dave ide\\4.5.0.202105191637\\eclipse\\arm-gcc-49\\arm-none-eabi\\include\\machine\\_default_types.h"
 1393              	 .file 5 "c:\\infineon\\tools\\dave ide\\4.5.0.202105191637\\eclipse\\arm-gcc-49\\arm-none-eabi\\include\\stdint.h"
 1394              	 .file 6 "D:/Projects/VCU Firmware Main/IRP/Git Repo/VCU14_29bit_overCAN_withIRP_new4g_proto26_adding_All10sec_data/Libraries/XMCLib/inc/xmc4_gpio.h"
 1395              	 .file 7 "D:/Projects/VCU Firmware Main/IRP/Git Repo/VCU14_29bit_overCAN_withIRP_new4g_proto26_adding_All10sec_data/Libraries/XMCLib/inc/xmc_usic.h"
 1396              	 .file 8 "c:\\infineon\\tools\\dave ide\\4.5.0.202105191637\\eclipse\\arm-gcc-49\\arm-none-eabi\\include\\sys\\types.h"
 1397              	 .file 9 "D:/Projects/VCU Firmware Main/IRP/Git Repo/VCU14_29bit_overCAN_withIRP_new4g_proto26_adding_All10sec_data/Libraries/XMCLib/inc/xmc_rtc.h"
 1398              	 .file 10 "D:/Projects/VCU Firmware Main/IRP/Git Repo/VCU14_29bit_overCAN_withIRP_new4g_proto26_adding_All10sec_data/Libraries/XMCLib/inc/xmc_spi.h"
 1399              	 .file 11 "D:/Projects/VCU Firmware Main/IRP/Git Repo/VCU14_29bit_overCAN_withIRP_new4g_proto26_adding_All10sec_data/Vcu_Config.h"
 1400              	 .file 12 "D:/Projects/VCU Firmware Main/IRP/Git Repo/VCU14_29bit_overCAN_withIRP_new4g_proto26_adding_All10sec_data/can_matrix.h"
 1401              	 .file 13 "D:/Projects/VCU Firmware Main/IRP/Git Repo/VCU14_29bit_overCAN_withIRP_new4g_proto26_adding_All10sec_data/Vcu_Init.h"
 1402              	 .file 14 "D:/Projects/VCU Firmware Main/IRP/Git Repo/VCU14_29bit_overCAN_withIRP_new4g_proto26_adding_All10sec_data/Libraries/CMSIS/Include/cmsis_gcc.h"
 1403              	 .file 15 "D:/Projects/VCU Firmware Main/IRP/Git Repo/VCU14_29bit_overCAN_withIRP_new4g_proto26_adding_All10sec_data/Libraries/CMSIS/Include/core_cm4.h"
 1404              	 .file 16 "D:/Projects/VCU Firmware Main/IRP/Git Repo/VCU14_29bit_overCAN_withIRP_new4g_proto26_adding_All10sec_data/Libraries/CMSIS/Infineon/XMC4700_series/Include/system_XMC4700.h"
 1405              	 .file 17 "D:/Projects/VCU Firmware Main/IRP/Git Repo/VCU14_29bit_overCAN_withIRP_new4g_proto26_adding_All10sec_data/Dave/Generated/DIGITAL_IO/digital_io_extern.h"