   1              	 .syntax unified
   2              	 .cpu cortex-m4
   3              	 .eabi_attribute 27,3
   4              	 .fpu fpv4-sp-d16
   5              	 .eabi_attribute 20,1
   6              	 .eabi_attribute 21,1
   7              	 .eabi_attribute 23,3
   8              	 .eabi_attribute 24,1
   9              	 .eabi_attribute 25,1
  10              	 .eabi_attribute 26,1
  11              	 .eabi_attribute 30,6
  12              	 .eabi_attribute 34,1
  13              	 .eabi_attribute 18,4
  14              	 .thumb
  15              	 .file "State_1.c"
  16              	 .text
  17              	.Ltext0:
  18              	 .cfi_sections .debug_frame
  19              	 .section .text.XMC_GPIO_SetOutputHigh,"ax",%progbits
  20              	 .align 2
  21              	 .thumb
  22              	 .thumb_func
  24              	XMC_GPIO_SetOutputHigh:
  25              	.LFB135:
  26              	 .file 1 "D:/Projects/VCU Firmware Main/IRP/Git Repo/VCU14_29bit_overCAN_withIRP_new4g_proto26_adding_All10sec_data/Libraries/XMCLib/inc/xmc_gpio.h"
   1:D:/Projects/VCU Firmware Main/IRP/Git Repo/VCU14_29bit_overCAN_withIRP_new4g_proto26_adding_All10sec_data/Libraries/XMCLib/inc\xmc_gpio.h **** /**
   2:D:/Projects/VCU Firmware Main/IRP/Git Repo/VCU14_29bit_overCAN_withIRP_new4g_proto26_adding_All10sec_data/Libraries/XMCLib/inc\xmc_gpio.h ****  * @file xmc_gpio.h
   3:D:/Projects/VCU Firmware Main/IRP/Git Repo/VCU14_29bit_overCAN_withIRP_new4g_proto26_adding_All10sec_data/Libraries/XMCLib/inc\xmc_gpio.h ****  * @date 2015-06-20
   4:D:/Projects/VCU Firmware Main/IRP/Git Repo/VCU14_29bit_overCAN_withIRP_new4g_proto26_adding_All10sec_data/Libraries/XMCLib/inc\xmc_gpio.h ****  *
   5:D:/Projects/VCU Firmware Main/IRP/Git Repo/VCU14_29bit_overCAN_withIRP_new4g_proto26_adding_All10sec_data/Libraries/XMCLib/inc\xmc_gpio.h ****  * @cond
   6:D:/Projects/VCU Firmware Main/IRP/Git Repo/VCU14_29bit_overCAN_withIRP_new4g_proto26_adding_All10sec_data/Libraries/XMCLib/inc\xmc_gpio.h ****  *****************************************************************************
   7:D:/Projects/VCU Firmware Main/IRP/Git Repo/VCU14_29bit_overCAN_withIRP_new4g_proto26_adding_All10sec_data/Libraries/XMCLib/inc\xmc_gpio.h ****  * XMClib v2.2.0 - XMC Peripheral Driver Library
   8:D:/Projects/VCU Firmware Main/IRP/Git Repo/VCU14_29bit_overCAN_withIRP_new4g_proto26_adding_All10sec_data/Libraries/XMCLib/inc\xmc_gpio.h ****  *
   9:D:/Projects/VCU Firmware Main/IRP/Git Repo/VCU14_29bit_overCAN_withIRP_new4g_proto26_adding_All10sec_data/Libraries/XMCLib/inc\xmc_gpio.h ****  * Copyright (c) 2015-2020, Infineon Technologies AG
  10:D:/Projects/VCU Firmware Main/IRP/Git Repo/VCU14_29bit_overCAN_withIRP_new4g_proto26_adding_All10sec_data/Libraries/XMCLib/inc\xmc_gpio.h ****  * All rights reserved.
  11:D:/Projects/VCU Firmware Main/IRP/Git Repo/VCU14_29bit_overCAN_withIRP_new4g_proto26_adding_All10sec_data/Libraries/XMCLib/inc\xmc_gpio.h ****  *
  12:D:/Projects/VCU Firmware Main/IRP/Git Repo/VCU14_29bit_overCAN_withIRP_new4g_proto26_adding_All10sec_data/Libraries/XMCLib/inc\xmc_gpio.h ****  * Boost Software License - Version 1.0 - August 17th, 2003
  13:D:/Projects/VCU Firmware Main/IRP/Git Repo/VCU14_29bit_overCAN_withIRP_new4g_proto26_adding_All10sec_data/Libraries/XMCLib/inc\xmc_gpio.h ****  *
  14:D:/Projects/VCU Firmware Main/IRP/Git Repo/VCU14_29bit_overCAN_withIRP_new4g_proto26_adding_All10sec_data/Libraries/XMCLib/inc\xmc_gpio.h ****  * Permission is hereby granted, free of charge, to any person or organization
  15:D:/Projects/VCU Firmware Main/IRP/Git Repo/VCU14_29bit_overCAN_withIRP_new4g_proto26_adding_All10sec_data/Libraries/XMCLib/inc\xmc_gpio.h ****  * obtaining a copy of the software and accompanying documentation covered by
  16:D:/Projects/VCU Firmware Main/IRP/Git Repo/VCU14_29bit_overCAN_withIRP_new4g_proto26_adding_All10sec_data/Libraries/XMCLib/inc\xmc_gpio.h ****  * this license (the "Software") to use, reproduce, display, distribute,
  17:D:/Projects/VCU Firmware Main/IRP/Git Repo/VCU14_29bit_overCAN_withIRP_new4g_proto26_adding_All10sec_data/Libraries/XMCLib/inc\xmc_gpio.h ****  * execute, and transmit the Software, and to prepare derivative works of the
  18:D:/Projects/VCU Firmware Main/IRP/Git Repo/VCU14_29bit_overCAN_withIRP_new4g_proto26_adding_All10sec_data/Libraries/XMCLib/inc\xmc_gpio.h ****  * Software, and to permit third-parties to whom the Software is furnished to
  19:D:/Projects/VCU Firmware Main/IRP/Git Repo/VCU14_29bit_overCAN_withIRP_new4g_proto26_adding_All10sec_data/Libraries/XMCLib/inc\xmc_gpio.h ****  * do so, all subject to the following:
  20:D:/Projects/VCU Firmware Main/IRP/Git Repo/VCU14_29bit_overCAN_withIRP_new4g_proto26_adding_All10sec_data/Libraries/XMCLib/inc\xmc_gpio.h ****  *
  21:D:/Projects/VCU Firmware Main/IRP/Git Repo/VCU14_29bit_overCAN_withIRP_new4g_proto26_adding_All10sec_data/Libraries/XMCLib/inc\xmc_gpio.h ****  * The copyright notices in the Software and this entire statement, including
  22:D:/Projects/VCU Firmware Main/IRP/Git Repo/VCU14_29bit_overCAN_withIRP_new4g_proto26_adding_All10sec_data/Libraries/XMCLib/inc\xmc_gpio.h ****  * the above license grant, this restriction and the following disclaimer,
  23:D:/Projects/VCU Firmware Main/IRP/Git Repo/VCU14_29bit_overCAN_withIRP_new4g_proto26_adding_All10sec_data/Libraries/XMCLib/inc\xmc_gpio.h ****  * must be included in all copies of the Software, in whole or in part, and
  24:D:/Projects/VCU Firmware Main/IRP/Git Repo/VCU14_29bit_overCAN_withIRP_new4g_proto26_adding_All10sec_data/Libraries/XMCLib/inc\xmc_gpio.h ****  * all derivative works of the Software, unless such copies or derivative
  25:D:/Projects/VCU Firmware Main/IRP/Git Repo/VCU14_29bit_overCAN_withIRP_new4g_proto26_adding_All10sec_data/Libraries/XMCLib/inc\xmc_gpio.h ****  * works are solely in the form of machine-executable object code generated by
  26:D:/Projects/VCU Firmware Main/IRP/Git Repo/VCU14_29bit_overCAN_withIRP_new4g_proto26_adding_All10sec_data/Libraries/XMCLib/inc\xmc_gpio.h ****  * a source language processor.
  27:D:/Projects/VCU Firmware Main/IRP/Git Repo/VCU14_29bit_overCAN_withIRP_new4g_proto26_adding_All10sec_data/Libraries/XMCLib/inc\xmc_gpio.h ****  *
  28:D:/Projects/VCU Firmware Main/IRP/Git Repo/VCU14_29bit_overCAN_withIRP_new4g_proto26_adding_All10sec_data/Libraries/XMCLib/inc\xmc_gpio.h ****  * THE SOFTWARE IS PROVIDED "AS IS", WITHOUT WARRANTY OF ANY KIND, EXPRESS OR
  29:D:/Projects/VCU Firmware Main/IRP/Git Repo/VCU14_29bit_overCAN_withIRP_new4g_proto26_adding_All10sec_data/Libraries/XMCLib/inc\xmc_gpio.h ****  * IMPLIED, INCLUDING BUT NOT LIMITED TO THE WARRANTIES OF MERCHANTABILITY,
  30:D:/Projects/VCU Firmware Main/IRP/Git Repo/VCU14_29bit_overCAN_withIRP_new4g_proto26_adding_All10sec_data/Libraries/XMCLib/inc\xmc_gpio.h ****  * FITNESS FOR A PARTICULAR PURPOSE, TITLE AND NON-INFRINGEMENT. IN NO EVENT
  31:D:/Projects/VCU Firmware Main/IRP/Git Repo/VCU14_29bit_overCAN_withIRP_new4g_proto26_adding_All10sec_data/Libraries/XMCLib/inc\xmc_gpio.h ****  * SHALL THE COPYRIGHT HOLDERS OR ANYONE DISTRIBUTING THE SOFTWARE BE LIABLE
  32:D:/Projects/VCU Firmware Main/IRP/Git Repo/VCU14_29bit_overCAN_withIRP_new4g_proto26_adding_All10sec_data/Libraries/XMCLib/inc\xmc_gpio.h ****  * FOR ANY DAMAGES OR OTHER LIABILITY, WHETHER IN CONTRACT, TORT OR OTHERWISE,
  33:D:/Projects/VCU Firmware Main/IRP/Git Repo/VCU14_29bit_overCAN_withIRP_new4g_proto26_adding_All10sec_data/Libraries/XMCLib/inc\xmc_gpio.h ****  * ARISING FROM, OUT OF OR IN CONNECTION WITH THE SOFTWARE OR THE USE OR OTHER
  34:D:/Projects/VCU Firmware Main/IRP/Git Repo/VCU14_29bit_overCAN_withIRP_new4g_proto26_adding_All10sec_data/Libraries/XMCLib/inc\xmc_gpio.h ****  * DEALINGS IN THE SOFTWARE.
  35:D:/Projects/VCU Firmware Main/IRP/Git Repo/VCU14_29bit_overCAN_withIRP_new4g_proto26_adding_All10sec_data/Libraries/XMCLib/inc\xmc_gpio.h ****  *
  36:D:/Projects/VCU Firmware Main/IRP/Git Repo/VCU14_29bit_overCAN_withIRP_new4g_proto26_adding_All10sec_data/Libraries/XMCLib/inc\xmc_gpio.h ****  * To improve the quality of the software, users are encouraged to share
  37:D:/Projects/VCU Firmware Main/IRP/Git Repo/VCU14_29bit_overCAN_withIRP_new4g_proto26_adding_All10sec_data/Libraries/XMCLib/inc\xmc_gpio.h ****  * modifications, enhancements or bug fixes with Infineon Technologies AG
  38:D:/Projects/VCU Firmware Main/IRP/Git Repo/VCU14_29bit_overCAN_withIRP_new4g_proto26_adding_All10sec_data/Libraries/XMCLib/inc\xmc_gpio.h ****  * at XMCSupport@infineon.com.
  39:D:/Projects/VCU Firmware Main/IRP/Git Repo/VCU14_29bit_overCAN_withIRP_new4g_proto26_adding_All10sec_data/Libraries/XMCLib/inc\xmc_gpio.h ****  *****************************************************************************
  40:D:/Projects/VCU Firmware Main/IRP/Git Repo/VCU14_29bit_overCAN_withIRP_new4g_proto26_adding_All10sec_data/Libraries/XMCLib/inc\xmc_gpio.h ****  *
  41:D:/Projects/VCU Firmware Main/IRP/Git Repo/VCU14_29bit_overCAN_withIRP_new4g_proto26_adding_All10sec_data/Libraries/XMCLib/inc\xmc_gpio.h ****  * Change History
  42:D:/Projects/VCU Firmware Main/IRP/Git Repo/VCU14_29bit_overCAN_withIRP_new4g_proto26_adding_All10sec_data/Libraries/XMCLib/inc\xmc_gpio.h ****  * --------------
  43:D:/Projects/VCU Firmware Main/IRP/Git Repo/VCU14_29bit_overCAN_withIRP_new4g_proto26_adding_All10sec_data/Libraries/XMCLib/inc\xmc_gpio.h ****  *
  44:D:/Projects/VCU Firmware Main/IRP/Git Repo/VCU14_29bit_overCAN_withIRP_new4g_proto26_adding_All10sec_data/Libraries/XMCLib/inc\xmc_gpio.h ****  * 2015-02-20:
  45:D:/Projects/VCU Firmware Main/IRP/Git Repo/VCU14_29bit_overCAN_withIRP_new4g_proto26_adding_All10sec_data/Libraries/XMCLib/inc\xmc_gpio.h ****  *     - Initial draft<br>
  46:D:/Projects/VCU Firmware Main/IRP/Git Repo/VCU14_29bit_overCAN_withIRP_new4g_proto26_adding_All10sec_data/Libraries/XMCLib/inc\xmc_gpio.h ****  *     - Documentation improved <br>
  47:D:/Projects/VCU Firmware Main/IRP/Git Repo/VCU14_29bit_overCAN_withIRP_new4g_proto26_adding_All10sec_data/Libraries/XMCLib/inc\xmc_gpio.h ****  *
  48:D:/Projects/VCU Firmware Main/IRP/Git Repo/VCU14_29bit_overCAN_withIRP_new4g_proto26_adding_All10sec_data/Libraries/XMCLib/inc\xmc_gpio.h ****  * 2015-06-20:
  49:D:/Projects/VCU Firmware Main/IRP/Git Repo/VCU14_29bit_overCAN_withIRP_new4g_proto26_adding_All10sec_data/Libraries/XMCLib/inc\xmc_gpio.h ****  *     - Removed version macros and declaration of GetDriverVersion API
  50:D:/Projects/VCU Firmware Main/IRP/Git Repo/VCU14_29bit_overCAN_withIRP_new4g_proto26_adding_All10sec_data/Libraries/XMCLib/inc\xmc_gpio.h ****  *
  51:D:/Projects/VCU Firmware Main/IRP/Git Repo/VCU14_29bit_overCAN_withIRP_new4g_proto26_adding_All10sec_data/Libraries/XMCLib/inc\xmc_gpio.h ****  * @endcond
  52:D:/Projects/VCU Firmware Main/IRP/Git Repo/VCU14_29bit_overCAN_withIRP_new4g_proto26_adding_All10sec_data/Libraries/XMCLib/inc\xmc_gpio.h ****  *
  53:D:/Projects/VCU Firmware Main/IRP/Git Repo/VCU14_29bit_overCAN_withIRP_new4g_proto26_adding_All10sec_data/Libraries/XMCLib/inc\xmc_gpio.h ****  */
  54:D:/Projects/VCU Firmware Main/IRP/Git Repo/VCU14_29bit_overCAN_withIRP_new4g_proto26_adding_All10sec_data/Libraries/XMCLib/inc\xmc_gpio.h **** 
  55:D:/Projects/VCU Firmware Main/IRP/Git Repo/VCU14_29bit_overCAN_withIRP_new4g_proto26_adding_All10sec_data/Libraries/XMCLib/inc\xmc_gpio.h **** #ifndef XMC_GPIO_H
  56:D:/Projects/VCU Firmware Main/IRP/Git Repo/VCU14_29bit_overCAN_withIRP_new4g_proto26_adding_All10sec_data/Libraries/XMCLib/inc\xmc_gpio.h **** #define XMC_GPIO_H
  57:D:/Projects/VCU Firmware Main/IRP/Git Repo/VCU14_29bit_overCAN_withIRP_new4g_proto26_adding_All10sec_data/Libraries/XMCLib/inc\xmc_gpio.h **** 
  58:D:/Projects/VCU Firmware Main/IRP/Git Repo/VCU14_29bit_overCAN_withIRP_new4g_proto26_adding_All10sec_data/Libraries/XMCLib/inc\xmc_gpio.h **** /**************************************************************************************************
  59:D:/Projects/VCU Firmware Main/IRP/Git Repo/VCU14_29bit_overCAN_withIRP_new4g_proto26_adding_All10sec_data/Libraries/XMCLib/inc\xmc_gpio.h ****  * HEADER FILES
  60:D:/Projects/VCU Firmware Main/IRP/Git Repo/VCU14_29bit_overCAN_withIRP_new4g_proto26_adding_All10sec_data/Libraries/XMCLib/inc\xmc_gpio.h ****  **************************************************************************************************
  61:D:/Projects/VCU Firmware Main/IRP/Git Repo/VCU14_29bit_overCAN_withIRP_new4g_proto26_adding_All10sec_data/Libraries/XMCLib/inc\xmc_gpio.h **** 
  62:D:/Projects/VCU Firmware Main/IRP/Git Repo/VCU14_29bit_overCAN_withIRP_new4g_proto26_adding_All10sec_data/Libraries/XMCLib/inc\xmc_gpio.h **** #include "xmc_common.h"
  63:D:/Projects/VCU Firmware Main/IRP/Git Repo/VCU14_29bit_overCAN_withIRP_new4g_proto26_adding_All10sec_data/Libraries/XMCLib/inc\xmc_gpio.h **** 
  64:D:/Projects/VCU Firmware Main/IRP/Git Repo/VCU14_29bit_overCAN_withIRP_new4g_proto26_adding_All10sec_data/Libraries/XMCLib/inc\xmc_gpio.h **** /**
  65:D:/Projects/VCU Firmware Main/IRP/Git Repo/VCU14_29bit_overCAN_withIRP_new4g_proto26_adding_All10sec_data/Libraries/XMCLib/inc\xmc_gpio.h ****  * @addtogroup XMClib XMC Peripheral Library
  66:D:/Projects/VCU Firmware Main/IRP/Git Repo/VCU14_29bit_overCAN_withIRP_new4g_proto26_adding_All10sec_data/Libraries/XMCLib/inc\xmc_gpio.h ****  * @{
  67:D:/Projects/VCU Firmware Main/IRP/Git Repo/VCU14_29bit_overCAN_withIRP_new4g_proto26_adding_All10sec_data/Libraries/XMCLib/inc\xmc_gpio.h ****  */
  68:D:/Projects/VCU Firmware Main/IRP/Git Repo/VCU14_29bit_overCAN_withIRP_new4g_proto26_adding_All10sec_data/Libraries/XMCLib/inc\xmc_gpio.h **** 
  69:D:/Projects/VCU Firmware Main/IRP/Git Repo/VCU14_29bit_overCAN_withIRP_new4g_proto26_adding_All10sec_data/Libraries/XMCLib/inc\xmc_gpio.h **** /**
  70:D:/Projects/VCU Firmware Main/IRP/Git Repo/VCU14_29bit_overCAN_withIRP_new4g_proto26_adding_All10sec_data/Libraries/XMCLib/inc\xmc_gpio.h ****  * @addtogroup GPIO
  71:D:/Projects/VCU Firmware Main/IRP/Git Repo/VCU14_29bit_overCAN_withIRP_new4g_proto26_adding_All10sec_data/Libraries/XMCLib/inc\xmc_gpio.h ****  * @brief General Purpose Input Output (GPIO) driver for the XMC microcontroller family.
  72:D:/Projects/VCU Firmware Main/IRP/Git Repo/VCU14_29bit_overCAN_withIRP_new4g_proto26_adding_All10sec_data/Libraries/XMCLib/inc\xmc_gpio.h ****  *
  73:D:/Projects/VCU Firmware Main/IRP/Git Repo/VCU14_29bit_overCAN_withIRP_new4g_proto26_adding_All10sec_data/Libraries/XMCLib/inc\xmc_gpio.h ****  * GPIO driver provide a generic and very flexible software interface for all standard digital I/O 
  74:D:/Projects/VCU Firmware Main/IRP/Git Repo/VCU14_29bit_overCAN_withIRP_new4g_proto26_adding_All10sec_data/Libraries/XMCLib/inc\xmc_gpio.h ****  * Each port slice has individual interfaces for the operation as General Purpose I/O and it furthe
  75:D:/Projects/VCU Firmware Main/IRP/Git Repo/VCU14_29bit_overCAN_withIRP_new4g_proto26_adding_All10sec_data/Libraries/XMCLib/inc\xmc_gpio.h ****  * connectivity to the on-chip periphery and the control for the pad characteristics.
  76:D:/Projects/VCU Firmware Main/IRP/Git Repo/VCU14_29bit_overCAN_withIRP_new4g_proto26_adding_All10sec_data/Libraries/XMCLib/inc\xmc_gpio.h ****  *
  77:D:/Projects/VCU Firmware Main/IRP/Git Repo/VCU14_29bit_overCAN_withIRP_new4g_proto26_adding_All10sec_data/Libraries/XMCLib/inc\xmc_gpio.h ****  * The driver is divided into Input and Output mode.
  78:D:/Projects/VCU Firmware Main/IRP/Git Repo/VCU14_29bit_overCAN_withIRP_new4g_proto26_adding_All10sec_data/Libraries/XMCLib/inc\xmc_gpio.h ****  *
  79:D:/Projects/VCU Firmware Main/IRP/Git Repo/VCU14_29bit_overCAN_withIRP_new4g_proto26_adding_All10sec_data/Libraries/XMCLib/inc\xmc_gpio.h ****  * Input mode features:
  80:D:/Projects/VCU Firmware Main/IRP/Git Repo/VCU14_29bit_overCAN_withIRP_new4g_proto26_adding_All10sec_data/Libraries/XMCLib/inc\xmc_gpio.h ****  * -# Configuration structure XMC_GPIO_CONFIG_t and initialization function XMC_GPIO_Init()
  81:D:/Projects/VCU Firmware Main/IRP/Git Repo/VCU14_29bit_overCAN_withIRP_new4g_proto26_adding_All10sec_data/Libraries/XMCLib/inc\xmc_gpio.h ****  * -# Allows the selection of weak pull-up or pull-down device. Configuration structure XMC_GPIO_MO
  82:D:/Projects/VCU Firmware Main/IRP/Git Repo/VCU14_29bit_overCAN_withIRP_new4g_proto26_adding_All10sec_data/Libraries/XMCLib/inc\xmc_gpio.h ****  * \if XMC1
  83:D:/Projects/VCU Firmware Main/IRP/Git Repo/VCU14_29bit_overCAN_withIRP_new4g_proto26_adding_All10sec_data/Libraries/XMCLib/inc\xmc_gpio.h ****  * -# Allows the selection of input hysteresis. XMC_GPIO_SetInputHysteresis()
  84:D:/Projects/VCU Firmware Main/IRP/Git Repo/VCU14_29bit_overCAN_withIRP_new4g_proto26_adding_All10sec_data/Libraries/XMCLib/inc\xmc_gpio.h ****  * \endif
  85:D:/Projects/VCU Firmware Main/IRP/Git Repo/VCU14_29bit_overCAN_withIRP_new4g_proto26_adding_All10sec_data/Libraries/XMCLib/inc\xmc_gpio.h ****  *
  86:D:/Projects/VCU Firmware Main/IRP/Git Repo/VCU14_29bit_overCAN_withIRP_new4g_proto26_adding_All10sec_data/Libraries/XMCLib/inc\xmc_gpio.h ****  *
  87:D:/Projects/VCU Firmware Main/IRP/Git Repo/VCU14_29bit_overCAN_withIRP_new4g_proto26_adding_All10sec_data/Libraries/XMCLib/inc\xmc_gpio.h ****  * Output mode features:
  88:D:/Projects/VCU Firmware Main/IRP/Git Repo/VCU14_29bit_overCAN_withIRP_new4g_proto26_adding_All10sec_data/Libraries/XMCLib/inc\xmc_gpio.h ****  * -# Allows the selection of push pull/open drain and Alternate output. Configuration structure XM
  89:D:/Projects/VCU Firmware Main/IRP/Git Repo/VCU14_29bit_overCAN_withIRP_new4g_proto26_adding_All10sec_data/Libraries/XMCLib/inc\xmc_gpio.h ****  * \if XMC4
  90:D:/Projects/VCU Firmware Main/IRP/Git Repo/VCU14_29bit_overCAN_withIRP_new4g_proto26_adding_All10sec_data/Libraries/XMCLib/inc\xmc_gpio.h ****  * -# Allows the selection of pad driver strength. Configuration structure XMC_GPIO_OUTPUT_STRENGTH
  91:D:/Projects/VCU Firmware Main/IRP/Git Repo/VCU14_29bit_overCAN_withIRP_new4g_proto26_adding_All10sec_data/Libraries/XMCLib/inc\xmc_gpio.h ****  * \endif
  92:D:/Projects/VCU Firmware Main/IRP/Git Repo/VCU14_29bit_overCAN_withIRP_new4g_proto26_adding_All10sec_data/Libraries/XMCLib/inc\xmc_gpio.h ****  *
  93:D:/Projects/VCU Firmware Main/IRP/Git Repo/VCU14_29bit_overCAN_withIRP_new4g_proto26_adding_All10sec_data/Libraries/XMCLib/inc\xmc_gpio.h ****  * -# Allows the selection of initial output level. Configuration structure XMC_GPIO_OUTPUT_LEVEL_t
  94:D:/Projects/VCU Firmware Main/IRP/Git Repo/VCU14_29bit_overCAN_withIRP_new4g_proto26_adding_All10sec_data/Libraries/XMCLib/inc\xmc_gpio.h ****  *
  95:D:/Projects/VCU Firmware Main/IRP/Git Repo/VCU14_29bit_overCAN_withIRP_new4g_proto26_adding_All10sec_data/Libraries/XMCLib/inc\xmc_gpio.h ****  *@{
  96:D:/Projects/VCU Firmware Main/IRP/Git Repo/VCU14_29bit_overCAN_withIRP_new4g_proto26_adding_All10sec_data/Libraries/XMCLib/inc\xmc_gpio.h ****  */
  97:D:/Projects/VCU Firmware Main/IRP/Git Repo/VCU14_29bit_overCAN_withIRP_new4g_proto26_adding_All10sec_data/Libraries/XMCLib/inc\xmc_gpio.h **** 
  98:D:/Projects/VCU Firmware Main/IRP/Git Repo/VCU14_29bit_overCAN_withIRP_new4g_proto26_adding_All10sec_data/Libraries/XMCLib/inc\xmc_gpio.h **** /**************************************************************************************************
  99:D:/Projects/VCU Firmware Main/IRP/Git Repo/VCU14_29bit_overCAN_withIRP_new4g_proto26_adding_All10sec_data/Libraries/XMCLib/inc\xmc_gpio.h ****  * MACROS
 100:D:/Projects/VCU Firmware Main/IRP/Git Repo/VCU14_29bit_overCAN_withIRP_new4g_proto26_adding_All10sec_data/Libraries/XMCLib/inc\xmc_gpio.h ****  **************************************************************************************************
 101:D:/Projects/VCU Firmware Main/IRP/Git Repo/VCU14_29bit_overCAN_withIRP_new4g_proto26_adding_All10sec_data/Libraries/XMCLib/inc\xmc_gpio.h **** 
 102:D:/Projects/VCU Firmware Main/IRP/Git Repo/VCU14_29bit_overCAN_withIRP_new4g_proto26_adding_All10sec_data/Libraries/XMCLib/inc\xmc_gpio.h **** #define PORT_IOCR_PC_Pos PORT0_IOCR0_PC0_Pos
 103:D:/Projects/VCU Firmware Main/IRP/Git Repo/VCU14_29bit_overCAN_withIRP_new4g_proto26_adding_All10sec_data/Libraries/XMCLib/inc\xmc_gpio.h **** #define PORT_IOCR_PC_Msk PORT0_IOCR0_PC0_Msk
 104:D:/Projects/VCU Firmware Main/IRP/Git Repo/VCU14_29bit_overCAN_withIRP_new4g_proto26_adding_All10sec_data/Libraries/XMCLib/inc\xmc_gpio.h **** 
 105:D:/Projects/VCU Firmware Main/IRP/Git Repo/VCU14_29bit_overCAN_withIRP_new4g_proto26_adding_All10sec_data/Libraries/XMCLib/inc\xmc_gpio.h **** #define PORT_IOCR_PC_Size 				(8U)
 106:D:/Projects/VCU Firmware Main/IRP/Git Repo/VCU14_29bit_overCAN_withIRP_new4g_proto26_adding_All10sec_data/Libraries/XMCLib/inc\xmc_gpio.h **** 
 107:D:/Projects/VCU Firmware Main/IRP/Git Repo/VCU14_29bit_overCAN_withIRP_new4g_proto26_adding_All10sec_data/Libraries/XMCLib/inc\xmc_gpio.h **** 
 108:D:/Projects/VCU Firmware Main/IRP/Git Repo/VCU14_29bit_overCAN_withIRP_new4g_proto26_adding_All10sec_data/Libraries/XMCLib/inc\xmc_gpio.h **** #define XMC_GPIO_CHECK_OUTPUT_LEVEL(level) ((level == XMC_GPIO_OUTPUT_LEVEL_LOW) || \
 109:D:/Projects/VCU Firmware Main/IRP/Git Repo/VCU14_29bit_overCAN_withIRP_new4g_proto26_adding_All10sec_data/Libraries/XMCLib/inc\xmc_gpio.h ****                                             (level == XMC_GPIO_OUTPUT_LEVEL_HIGH))
 110:D:/Projects/VCU Firmware Main/IRP/Git Repo/VCU14_29bit_overCAN_withIRP_new4g_proto26_adding_All10sec_data/Libraries/XMCLib/inc\xmc_gpio.h **** 
 111:D:/Projects/VCU Firmware Main/IRP/Git Repo/VCU14_29bit_overCAN_withIRP_new4g_proto26_adding_All10sec_data/Libraries/XMCLib/inc\xmc_gpio.h **** #define XMC_GPIO_CHECK_HWCTRL(hwctrl) ((hwctrl == XMC_GPIO_HWCTRL_DISABLED) || \
 112:D:/Projects/VCU Firmware Main/IRP/Git Repo/VCU14_29bit_overCAN_withIRP_new4g_proto26_adding_All10sec_data/Libraries/XMCLib/inc\xmc_gpio.h ****                                        (hwctrl == XMC_GPIO_HWCTRL_PERIPHERAL1) || \
 113:D:/Projects/VCU Firmware Main/IRP/Git Repo/VCU14_29bit_overCAN_withIRP_new4g_proto26_adding_All10sec_data/Libraries/XMCLib/inc\xmc_gpio.h ****                                        (hwctrl == XMC_GPIO_HWCTRL_PERIPHERAL2))
 114:D:/Projects/VCU Firmware Main/IRP/Git Repo/VCU14_29bit_overCAN_withIRP_new4g_proto26_adding_All10sec_data/Libraries/XMCLib/inc\xmc_gpio.h **** 
 115:D:/Projects/VCU Firmware Main/IRP/Git Repo/VCU14_29bit_overCAN_withIRP_new4g_proto26_adding_All10sec_data/Libraries/XMCLib/inc\xmc_gpio.h **** /**************************************************************************************************
 116:D:/Projects/VCU Firmware Main/IRP/Git Repo/VCU14_29bit_overCAN_withIRP_new4g_proto26_adding_All10sec_data/Libraries/XMCLib/inc\xmc_gpio.h ****  * ENUMS
 117:D:/Projects/VCU Firmware Main/IRP/Git Repo/VCU14_29bit_overCAN_withIRP_new4g_proto26_adding_All10sec_data/Libraries/XMCLib/inc\xmc_gpio.h ****  **************************************************************************************************
 118:D:/Projects/VCU Firmware Main/IRP/Git Repo/VCU14_29bit_overCAN_withIRP_new4g_proto26_adding_All10sec_data/Libraries/XMCLib/inc\xmc_gpio.h **** 
 119:D:/Projects/VCU Firmware Main/IRP/Git Repo/VCU14_29bit_overCAN_withIRP_new4g_proto26_adding_All10sec_data/Libraries/XMCLib/inc\xmc_gpio.h **** 
 120:D:/Projects/VCU Firmware Main/IRP/Git Repo/VCU14_29bit_overCAN_withIRP_new4g_proto26_adding_All10sec_data/Libraries/XMCLib/inc\xmc_gpio.h **** /**
 121:D:/Projects/VCU Firmware Main/IRP/Git Repo/VCU14_29bit_overCAN_withIRP_new4g_proto26_adding_All10sec_data/Libraries/XMCLib/inc\xmc_gpio.h ****  * Defines output level of a pin. Use type \a XMC_GPIO_OUTPUT_LEVEL_t for this enum.
 122:D:/Projects/VCU Firmware Main/IRP/Git Repo/VCU14_29bit_overCAN_withIRP_new4g_proto26_adding_All10sec_data/Libraries/XMCLib/inc\xmc_gpio.h ****  */
 123:D:/Projects/VCU Firmware Main/IRP/Git Repo/VCU14_29bit_overCAN_withIRP_new4g_proto26_adding_All10sec_data/Libraries/XMCLib/inc\xmc_gpio.h **** typedef enum XMC_GPIO_OUTPUT_LEVEL
 124:D:/Projects/VCU Firmware Main/IRP/Git Repo/VCU14_29bit_overCAN_withIRP_new4g_proto26_adding_All10sec_data/Libraries/XMCLib/inc\xmc_gpio.h **** {
 125:D:/Projects/VCU Firmware Main/IRP/Git Repo/VCU14_29bit_overCAN_withIRP_new4g_proto26_adding_All10sec_data/Libraries/XMCLib/inc\xmc_gpio.h ****   XMC_GPIO_OUTPUT_LEVEL_LOW  = 0x10000U, /**<  Reset bit */
 126:D:/Projects/VCU Firmware Main/IRP/Git Repo/VCU14_29bit_overCAN_withIRP_new4g_proto26_adding_All10sec_data/Libraries/XMCLib/inc\xmc_gpio.h ****   XMC_GPIO_OUTPUT_LEVEL_HIGH = 0x1U, 	/**< Set bit  */
 127:D:/Projects/VCU Firmware Main/IRP/Git Repo/VCU14_29bit_overCAN_withIRP_new4g_proto26_adding_All10sec_data/Libraries/XMCLib/inc\xmc_gpio.h **** } XMC_GPIO_OUTPUT_LEVEL_t;
 128:D:/Projects/VCU Firmware Main/IRP/Git Repo/VCU14_29bit_overCAN_withIRP_new4g_proto26_adding_All10sec_data/Libraries/XMCLib/inc\xmc_gpio.h **** 
 129:D:/Projects/VCU Firmware Main/IRP/Git Repo/VCU14_29bit_overCAN_withIRP_new4g_proto26_adding_All10sec_data/Libraries/XMCLib/inc\xmc_gpio.h **** /**
 130:D:/Projects/VCU Firmware Main/IRP/Git Repo/VCU14_29bit_overCAN_withIRP_new4g_proto26_adding_All10sec_data/Libraries/XMCLib/inc\xmc_gpio.h ****  * Defines direct hardware control characteristics of the pin . Use type \a XMC_GPIO_HWCTRL_t for t
 131:D:/Projects/VCU Firmware Main/IRP/Git Repo/VCU14_29bit_overCAN_withIRP_new4g_proto26_adding_All10sec_data/Libraries/XMCLib/inc\xmc_gpio.h ****  */
 132:D:/Projects/VCU Firmware Main/IRP/Git Repo/VCU14_29bit_overCAN_withIRP_new4g_proto26_adding_All10sec_data/Libraries/XMCLib/inc\xmc_gpio.h **** typedef enum XMC_GPIO_HWCTRL
 133:D:/Projects/VCU Firmware Main/IRP/Git Repo/VCU14_29bit_overCAN_withIRP_new4g_proto26_adding_All10sec_data/Libraries/XMCLib/inc\xmc_gpio.h **** {
 134:D:/Projects/VCU Firmware Main/IRP/Git Repo/VCU14_29bit_overCAN_withIRP_new4g_proto26_adding_All10sec_data/Libraries/XMCLib/inc\xmc_gpio.h ****   XMC_GPIO_HWCTRL_DISABLED     = 0x0U, /**<  Software control only */
 135:D:/Projects/VCU Firmware Main/IRP/Git Repo/VCU14_29bit_overCAN_withIRP_new4g_proto26_adding_All10sec_data/Libraries/XMCLib/inc\xmc_gpio.h ****   XMC_GPIO_HWCTRL_PERIPHERAL1  = 0x1U, /**<  HWI0/HWO0 control path can override the software confi
 136:D:/Projects/VCU Firmware Main/IRP/Git Repo/VCU14_29bit_overCAN_withIRP_new4g_proto26_adding_All10sec_data/Libraries/XMCLib/inc\xmc_gpio.h ****   XMC_GPIO_HWCTRL_PERIPHERAL2  = 0x2U  /**<  HWI1/HWO1 control path can override the software confi
 137:D:/Projects/VCU Firmware Main/IRP/Git Repo/VCU14_29bit_overCAN_withIRP_new4g_proto26_adding_All10sec_data/Libraries/XMCLib/inc\xmc_gpio.h **** } XMC_GPIO_HWCTRL_t;
 138:D:/Projects/VCU Firmware Main/IRP/Git Repo/VCU14_29bit_overCAN_withIRP_new4g_proto26_adding_All10sec_data/Libraries/XMCLib/inc\xmc_gpio.h **** 
 139:D:/Projects/VCU Firmware Main/IRP/Git Repo/VCU14_29bit_overCAN_withIRP_new4g_proto26_adding_All10sec_data/Libraries/XMCLib/inc\xmc_gpio.h **** /**************************************************************************************************
 140:D:/Projects/VCU Firmware Main/IRP/Git Repo/VCU14_29bit_overCAN_withIRP_new4g_proto26_adding_All10sec_data/Libraries/XMCLib/inc\xmc_gpio.h ****  * DEVICE FAMILY EXTENSIONS
 141:D:/Projects/VCU Firmware Main/IRP/Git Repo/VCU14_29bit_overCAN_withIRP_new4g_proto26_adding_All10sec_data/Libraries/XMCLib/inc\xmc_gpio.h ****  **************************************************************************************************
 142:D:/Projects/VCU Firmware Main/IRP/Git Repo/VCU14_29bit_overCAN_withIRP_new4g_proto26_adding_All10sec_data/Libraries/XMCLib/inc\xmc_gpio.h **** 
 143:D:/Projects/VCU Firmware Main/IRP/Git Repo/VCU14_29bit_overCAN_withIRP_new4g_proto26_adding_All10sec_data/Libraries/XMCLib/inc\xmc_gpio.h **** #if UC_FAMILY == XMC1
 144:D:/Projects/VCU Firmware Main/IRP/Git Repo/VCU14_29bit_overCAN_withIRP_new4g_proto26_adding_All10sec_data/Libraries/XMCLib/inc\xmc_gpio.h **** #include "xmc1_gpio.h"
 145:D:/Projects/VCU Firmware Main/IRP/Git Repo/VCU14_29bit_overCAN_withIRP_new4g_proto26_adding_All10sec_data/Libraries/XMCLib/inc\xmc_gpio.h **** #elif UC_FAMILY == XMC4
 146:D:/Projects/VCU Firmware Main/IRP/Git Repo/VCU14_29bit_overCAN_withIRP_new4g_proto26_adding_All10sec_data/Libraries/XMCLib/inc\xmc_gpio.h **** #include "xmc4_gpio.h"
 147:D:/Projects/VCU Firmware Main/IRP/Git Repo/VCU14_29bit_overCAN_withIRP_new4g_proto26_adding_All10sec_data/Libraries/XMCLib/inc\xmc_gpio.h **** #else
 148:D:/Projects/VCU Firmware Main/IRP/Git Repo/VCU14_29bit_overCAN_withIRP_new4g_proto26_adding_All10sec_data/Libraries/XMCLib/inc\xmc_gpio.h **** #error "xmc_gpio.h: family device not supported"
 149:D:/Projects/VCU Firmware Main/IRP/Git Repo/VCU14_29bit_overCAN_withIRP_new4g_proto26_adding_All10sec_data/Libraries/XMCLib/inc\xmc_gpio.h **** #endif
 150:D:/Projects/VCU Firmware Main/IRP/Git Repo/VCU14_29bit_overCAN_withIRP_new4g_proto26_adding_All10sec_data/Libraries/XMCLib/inc\xmc_gpio.h **** 
 151:D:/Projects/VCU Firmware Main/IRP/Git Repo/VCU14_29bit_overCAN_withIRP_new4g_proto26_adding_All10sec_data/Libraries/XMCLib/inc\xmc_gpio.h **** /**************************************************************************************************
 152:D:/Projects/VCU Firmware Main/IRP/Git Repo/VCU14_29bit_overCAN_withIRP_new4g_proto26_adding_All10sec_data/Libraries/XMCLib/inc\xmc_gpio.h ****  * API PROTOTYPES
 153:D:/Projects/VCU Firmware Main/IRP/Git Repo/VCU14_29bit_overCAN_withIRP_new4g_proto26_adding_All10sec_data/Libraries/XMCLib/inc\xmc_gpio.h ****  **************************************************************************************************
 154:D:/Projects/VCU Firmware Main/IRP/Git Repo/VCU14_29bit_overCAN_withIRP_new4g_proto26_adding_All10sec_data/Libraries/XMCLib/inc\xmc_gpio.h **** 
 155:D:/Projects/VCU Firmware Main/IRP/Git Repo/VCU14_29bit_overCAN_withIRP_new4g_proto26_adding_All10sec_data/Libraries/XMCLib/inc\xmc_gpio.h **** #ifdef __cplusplus
 156:D:/Projects/VCU Firmware Main/IRP/Git Repo/VCU14_29bit_overCAN_withIRP_new4g_proto26_adding_All10sec_data/Libraries/XMCLib/inc\xmc_gpio.h **** extern "C" {
 157:D:/Projects/VCU Firmware Main/IRP/Git Repo/VCU14_29bit_overCAN_withIRP_new4g_proto26_adding_All10sec_data/Libraries/XMCLib/inc\xmc_gpio.h **** #endif
 158:D:/Projects/VCU Firmware Main/IRP/Git Repo/VCU14_29bit_overCAN_withIRP_new4g_proto26_adding_All10sec_data/Libraries/XMCLib/inc\xmc_gpio.h **** 
 159:D:/Projects/VCU Firmware Main/IRP/Git Repo/VCU14_29bit_overCAN_withIRP_new4g_proto26_adding_All10sec_data/Libraries/XMCLib/inc\xmc_gpio.h **** 
 160:D:/Projects/VCU Firmware Main/IRP/Git Repo/VCU14_29bit_overCAN_withIRP_new4g_proto26_adding_All10sec_data/Libraries/XMCLib/inc\xmc_gpio.h **** /**
 161:D:/Projects/VCU Firmware Main/IRP/Git Repo/VCU14_29bit_overCAN_withIRP_new4g_proto26_adding_All10sec_data/Libraries/XMCLib/inc\xmc_gpio.h ****  * @param  port	  Constant pointer pointing to GPIO port, to access port registers like Pn_OUT,Pn_O
 162:D:/Projects/VCU Firmware Main/IRP/Git Repo/VCU14_29bit_overCAN_withIRP_new4g_proto26_adding_All10sec_data/Libraries/XMCLib/inc\xmc_gpio.h ****  * @param  pin	  Port pin number.
 163:D:/Projects/VCU Firmware Main/IRP/Git Repo/VCU14_29bit_overCAN_withIRP_new4g_proto26_adding_All10sec_data/Libraries/XMCLib/inc\xmc_gpio.h ****  * @param  config GPIO configuration data structure. Refer data structure @ref XMC_GPIO_CONFIG_t fo
 164:D:/Projects/VCU Firmware Main/IRP/Git Repo/VCU14_29bit_overCAN_withIRP_new4g_proto26_adding_All10sec_data/Libraries/XMCLib/inc\xmc_gpio.h ****  *
 165:D:/Projects/VCU Firmware Main/IRP/Git Repo/VCU14_29bit_overCAN_withIRP_new4g_proto26_adding_All10sec_data/Libraries/XMCLib/inc\xmc_gpio.h ****  * @return None
 166:D:/Projects/VCU Firmware Main/IRP/Git Repo/VCU14_29bit_overCAN_withIRP_new4g_proto26_adding_All10sec_data/Libraries/XMCLib/inc\xmc_gpio.h ****  *
 167:D:/Projects/VCU Firmware Main/IRP/Git Repo/VCU14_29bit_overCAN_withIRP_new4g_proto26_adding_All10sec_data/Libraries/XMCLib/inc\xmc_gpio.h ****  * \par<b>Description:</b><br>
 168:D:/Projects/VCU Firmware Main/IRP/Git Repo/VCU14_29bit_overCAN_withIRP_new4g_proto26_adding_All10sec_data/Libraries/XMCLib/inc\xmc_gpio.h ****  * \if XMC1
 169:D:/Projects/VCU Firmware Main/IRP/Git Repo/VCU14_29bit_overCAN_withIRP_new4g_proto26_adding_All10sec_data/Libraries/XMCLib/inc\xmc_gpio.h ****  * Initializes input / output mode settings like, pull up / pull down devices,hysteresis, push pull
 170:D:/Projects/VCU Firmware Main/IRP/Git Repo/VCU14_29bit_overCAN_withIRP_new4g_proto26_adding_All10sec_data/Libraries/XMCLib/inc\xmc_gpio.h ****  * Also configures alternate function outputs and clears hardware port control for a selected \a po
 171:D:/Projects/VCU Firmware Main/IRP/Git Repo/VCU14_29bit_overCAN_withIRP_new4g_proto26_adding_All10sec_data/Libraries/XMCLib/inc\xmc_gpio.h ****  * \a config provides selected I/O settings. It configures hardware registers Pn_IOCR,Pn_OUT, Pn_OM
 172:D:/Projects/VCU Firmware Main/IRP/Git Repo/VCU14_29bit_overCAN_withIRP_new4g_proto26_adding_All10sec_data/Libraries/XMCLib/inc\xmc_gpio.h ****  * \endif
 173:D:/Projects/VCU Firmware Main/IRP/Git Repo/VCU14_29bit_overCAN_withIRP_new4g_proto26_adding_All10sec_data/Libraries/XMCLib/inc\xmc_gpio.h ****  * \if XMC4
 174:D:/Projects/VCU Firmware Main/IRP/Git Repo/VCU14_29bit_overCAN_withIRP_new4g_proto26_adding_All10sec_data/Libraries/XMCLib/inc\xmc_gpio.h ****  * Initializes input / output mode settings like, pull up / pull down devices,push pull /open drain
 175:D:/Projects/VCU Firmware Main/IRP/Git Repo/VCU14_29bit_overCAN_withIRP_new4g_proto26_adding_All10sec_data/Libraries/XMCLib/inc\xmc_gpio.h ****  * Also configures alternate function outputs and clears hardware port control for selected \a port
 176:D:/Projects/VCU Firmware Main/IRP/Git Repo/VCU14_29bit_overCAN_withIRP_new4g_proto26_adding_All10sec_data/Libraries/XMCLib/inc\xmc_gpio.h ****  * It configures hardware registers Pn_IOCR,Pn_OUT,Pn_OMR,Pn_PDISC and Pn_PDR.\n
 177:D:/Projects/VCU Firmware Main/IRP/Git Repo/VCU14_29bit_overCAN_withIRP_new4g_proto26_adding_All10sec_data/Libraries/XMCLib/inc\xmc_gpio.h ****  * \endif
 178:D:/Projects/VCU Firmware Main/IRP/Git Repo/VCU14_29bit_overCAN_withIRP_new4g_proto26_adding_All10sec_data/Libraries/XMCLib/inc\xmc_gpio.h ****  *
 179:D:/Projects/VCU Firmware Main/IRP/Git Repo/VCU14_29bit_overCAN_withIRP_new4g_proto26_adding_All10sec_data/Libraries/XMCLib/inc\xmc_gpio.h ****  * \par<b>Related APIs:</b><BR>
 180:D:/Projects/VCU Firmware Main/IRP/Git Repo/VCU14_29bit_overCAN_withIRP_new4g_proto26_adding_All10sec_data/Libraries/XMCLib/inc\xmc_gpio.h ****  *  None
 181:D:/Projects/VCU Firmware Main/IRP/Git Repo/VCU14_29bit_overCAN_withIRP_new4g_proto26_adding_All10sec_data/Libraries/XMCLib/inc\xmc_gpio.h ****  *
 182:D:/Projects/VCU Firmware Main/IRP/Git Repo/VCU14_29bit_overCAN_withIRP_new4g_proto26_adding_All10sec_data/Libraries/XMCLib/inc\xmc_gpio.h ****  * \par<b>Note:</b><br>
 183:D:/Projects/VCU Firmware Main/IRP/Git Repo/VCU14_29bit_overCAN_withIRP_new4g_proto26_adding_All10sec_data/Libraries/XMCLib/inc\xmc_gpio.h ****  * This API is called in definition of DAVE_init by code generation and therefore should not be exp
 184:D:/Projects/VCU Firmware Main/IRP/Git Repo/VCU14_29bit_overCAN_withIRP_new4g_proto26_adding_All10sec_data/Libraries/XMCLib/inc\xmc_gpio.h ****  * for the normal operation. Use other APIs only after DAVE_init is called successfully (returns DA
 185:D:/Projects/VCU Firmware Main/IRP/Git Repo/VCU14_29bit_overCAN_withIRP_new4g_proto26_adding_All10sec_data/Libraries/XMCLib/inc\xmc_gpio.h ****  *
 186:D:/Projects/VCU Firmware Main/IRP/Git Repo/VCU14_29bit_overCAN_withIRP_new4g_proto26_adding_All10sec_data/Libraries/XMCLib/inc\xmc_gpio.h ****  *
 187:D:/Projects/VCU Firmware Main/IRP/Git Repo/VCU14_29bit_overCAN_withIRP_new4g_proto26_adding_All10sec_data/Libraries/XMCLib/inc\xmc_gpio.h ****  */
 188:D:/Projects/VCU Firmware Main/IRP/Git Repo/VCU14_29bit_overCAN_withIRP_new4g_proto26_adding_All10sec_data/Libraries/XMCLib/inc\xmc_gpio.h **** 
 189:D:/Projects/VCU Firmware Main/IRP/Git Repo/VCU14_29bit_overCAN_withIRP_new4g_proto26_adding_All10sec_data/Libraries/XMCLib/inc\xmc_gpio.h **** 
 190:D:/Projects/VCU Firmware Main/IRP/Git Repo/VCU14_29bit_overCAN_withIRP_new4g_proto26_adding_All10sec_data/Libraries/XMCLib/inc\xmc_gpio.h **** void XMC_GPIO_Init(XMC_GPIO_PORT_t *const port, const uint8_t pin, const XMC_GPIO_CONFIG_t *const c
 191:D:/Projects/VCU Firmware Main/IRP/Git Repo/VCU14_29bit_overCAN_withIRP_new4g_proto26_adding_All10sec_data/Libraries/XMCLib/inc\xmc_gpio.h **** 
 192:D:/Projects/VCU Firmware Main/IRP/Git Repo/VCU14_29bit_overCAN_withIRP_new4g_proto26_adding_All10sec_data/Libraries/XMCLib/inc\xmc_gpio.h **** /**
 193:D:/Projects/VCU Firmware Main/IRP/Git Repo/VCU14_29bit_overCAN_withIRP_new4g_proto26_adding_All10sec_data/Libraries/XMCLib/inc\xmc_gpio.h ****  *
 194:D:/Projects/VCU Firmware Main/IRP/Git Repo/VCU14_29bit_overCAN_withIRP_new4g_proto26_adding_All10sec_data/Libraries/XMCLib/inc\xmc_gpio.h ****  * @param  port	Constant pointer pointing to GPIO port, to access hardware register Pn_IOCR.
 195:D:/Projects/VCU Firmware Main/IRP/Git Repo/VCU14_29bit_overCAN_withIRP_new4g_proto26_adding_All10sec_data/Libraries/XMCLib/inc\xmc_gpio.h ****  * @param  pin	Port pin number.
 196:D:/Projects/VCU Firmware Main/IRP/Git Repo/VCU14_29bit_overCAN_withIRP_new4g_proto26_adding_All10sec_data/Libraries/XMCLib/inc\xmc_gpio.h ****  * @param  mode input / output functionality selection. Refer @ref XMC_GPIO_MODE_t for valid values
 197:D:/Projects/VCU Firmware Main/IRP/Git Repo/VCU14_29bit_overCAN_withIRP_new4g_proto26_adding_All10sec_data/Libraries/XMCLib/inc\xmc_gpio.h ****  *
 198:D:/Projects/VCU Firmware Main/IRP/Git Repo/VCU14_29bit_overCAN_withIRP_new4g_proto26_adding_All10sec_data/Libraries/XMCLib/inc\xmc_gpio.h ****  * @return None
 199:D:/Projects/VCU Firmware Main/IRP/Git Repo/VCU14_29bit_overCAN_withIRP_new4g_proto26_adding_All10sec_data/Libraries/XMCLib/inc\xmc_gpio.h ****  *
 200:D:/Projects/VCU Firmware Main/IRP/Git Repo/VCU14_29bit_overCAN_withIRP_new4g_proto26_adding_All10sec_data/Libraries/XMCLib/inc\xmc_gpio.h ****  * \par<b>Description:</b><br>
 201:D:/Projects/VCU Firmware Main/IRP/Git Repo/VCU14_29bit_overCAN_withIRP_new4g_proto26_adding_All10sec_data/Libraries/XMCLib/inc\xmc_gpio.h ****  * Sets digital input and output driver functionality and characteristics of a GPIO port pin. It co
 202:D:/Projects/VCU Firmware Main/IRP/Git Repo/VCU14_29bit_overCAN_withIRP_new4g_proto26_adding_All10sec_data/Libraries/XMCLib/inc\xmc_gpio.h ****  * registers Pn_IOCR. \a mode is initially configured during initialization in XMC_GPIO_Init(). Cal
 203:D:/Projects/VCU Firmware Main/IRP/Git Repo/VCU14_29bit_overCAN_withIRP_new4g_proto26_adding_All10sec_data/Libraries/XMCLib/inc\xmc_gpio.h ****  * the port direction functionality as needed later in the program.
 204:D:/Projects/VCU Firmware Main/IRP/Git Repo/VCU14_29bit_overCAN_withIRP_new4g_proto26_adding_All10sec_data/Libraries/XMCLib/inc\xmc_gpio.h ****  *
 205:D:/Projects/VCU Firmware Main/IRP/Git Repo/VCU14_29bit_overCAN_withIRP_new4g_proto26_adding_All10sec_data/Libraries/XMCLib/inc\xmc_gpio.h ****  * \par<b>Related APIs:</b><BR>
 206:D:/Projects/VCU Firmware Main/IRP/Git Repo/VCU14_29bit_overCAN_withIRP_new4g_proto26_adding_All10sec_data/Libraries/XMCLib/inc\xmc_gpio.h ****  *  None
 207:D:/Projects/VCU Firmware Main/IRP/Git Repo/VCU14_29bit_overCAN_withIRP_new4g_proto26_adding_All10sec_data/Libraries/XMCLib/inc\xmc_gpio.h ****  *
 208:D:/Projects/VCU Firmware Main/IRP/Git Repo/VCU14_29bit_overCAN_withIRP_new4g_proto26_adding_All10sec_data/Libraries/XMCLib/inc\xmc_gpio.h ****  */
 209:D:/Projects/VCU Firmware Main/IRP/Git Repo/VCU14_29bit_overCAN_withIRP_new4g_proto26_adding_All10sec_data/Libraries/XMCLib/inc\xmc_gpio.h **** 
 210:D:/Projects/VCU Firmware Main/IRP/Git Repo/VCU14_29bit_overCAN_withIRP_new4g_proto26_adding_All10sec_data/Libraries/XMCLib/inc\xmc_gpio.h **** void XMC_GPIO_SetMode(XMC_GPIO_PORT_t *const port, const uint8_t pin, const XMC_GPIO_MODE_t mode);
 211:D:/Projects/VCU Firmware Main/IRP/Git Repo/VCU14_29bit_overCAN_withIRP_new4g_proto26_adding_All10sec_data/Libraries/XMCLib/inc\xmc_gpio.h **** 
 212:D:/Projects/VCU Firmware Main/IRP/Git Repo/VCU14_29bit_overCAN_withIRP_new4g_proto26_adding_All10sec_data/Libraries/XMCLib/inc\xmc_gpio.h **** 
 213:D:/Projects/VCU Firmware Main/IRP/Git Repo/VCU14_29bit_overCAN_withIRP_new4g_proto26_adding_All10sec_data/Libraries/XMCLib/inc\xmc_gpio.h **** /**
 214:D:/Projects/VCU Firmware Main/IRP/Git Repo/VCU14_29bit_overCAN_withIRP_new4g_proto26_adding_All10sec_data/Libraries/XMCLib/inc\xmc_gpio.h ****  *
 215:D:/Projects/VCU Firmware Main/IRP/Git Repo/VCU14_29bit_overCAN_withIRP_new4g_proto26_adding_All10sec_data/Libraries/XMCLib/inc\xmc_gpio.h ****  * @param  port	 Constant pointer pointing to GPIO port, to access hardware register Pn_OMR.
 216:D:/Projects/VCU Firmware Main/IRP/Git Repo/VCU14_29bit_overCAN_withIRP_new4g_proto26_adding_All10sec_data/Libraries/XMCLib/inc\xmc_gpio.h ****  * @param  pin	 Port pin number.
 217:D:/Projects/VCU Firmware Main/IRP/Git Repo/VCU14_29bit_overCAN_withIRP_new4g_proto26_adding_All10sec_data/Libraries/XMCLib/inc\xmc_gpio.h ****  * @param  level output level selection. Refer @ref XMC_GPIO_OUTPUT_LEVEL_t for valid values.
 218:D:/Projects/VCU Firmware Main/IRP/Git Repo/VCU14_29bit_overCAN_withIRP_new4g_proto26_adding_All10sec_data/Libraries/XMCLib/inc\xmc_gpio.h ****  *
 219:D:/Projects/VCU Firmware Main/IRP/Git Repo/VCU14_29bit_overCAN_withIRP_new4g_proto26_adding_All10sec_data/Libraries/XMCLib/inc\xmc_gpio.h ****  * @return None
 220:D:/Projects/VCU Firmware Main/IRP/Git Repo/VCU14_29bit_overCAN_withIRP_new4g_proto26_adding_All10sec_data/Libraries/XMCLib/inc\xmc_gpio.h ****  *
 221:D:/Projects/VCU Firmware Main/IRP/Git Repo/VCU14_29bit_overCAN_withIRP_new4g_proto26_adding_All10sec_data/Libraries/XMCLib/inc\xmc_gpio.h ****  * \par<b>Description:</b><br>
 222:D:/Projects/VCU Firmware Main/IRP/Git Repo/VCU14_29bit_overCAN_withIRP_new4g_proto26_adding_All10sec_data/Libraries/XMCLib/inc\xmc_gpio.h ****  * Set port pin output level to high or low.It configures hardware registers Pn_OMR.\a level is ini
 223:D:/Projects/VCU Firmware Main/IRP/Git Repo/VCU14_29bit_overCAN_withIRP_new4g_proto26_adding_All10sec_data/Libraries/XMCLib/inc\xmc_gpio.h ****  * configured during initialization in XMC_GPIO_Init(). Call this API to alter output level as need
 224:D:/Projects/VCU Firmware Main/IRP/Git Repo/VCU14_29bit_overCAN_withIRP_new4g_proto26_adding_All10sec_data/Libraries/XMCLib/inc\xmc_gpio.h ****  *
 225:D:/Projects/VCU Firmware Main/IRP/Git Repo/VCU14_29bit_overCAN_withIRP_new4g_proto26_adding_All10sec_data/Libraries/XMCLib/inc\xmc_gpio.h ****  * \par<b>Related APIs:</b><BR>
 226:D:/Projects/VCU Firmware Main/IRP/Git Repo/VCU14_29bit_overCAN_withIRP_new4g_proto26_adding_All10sec_data/Libraries/XMCLib/inc\xmc_gpio.h ****  *  XMC_GPIO_SetOutputHigh(), XMC_GPIO_SetOutputLow().
 227:D:/Projects/VCU Firmware Main/IRP/Git Repo/VCU14_29bit_overCAN_withIRP_new4g_proto26_adding_All10sec_data/Libraries/XMCLib/inc\xmc_gpio.h ****  *
 228:D:/Projects/VCU Firmware Main/IRP/Git Repo/VCU14_29bit_overCAN_withIRP_new4g_proto26_adding_All10sec_data/Libraries/XMCLib/inc\xmc_gpio.h ****  * \par<b>Note:</b><br>
 229:D:/Projects/VCU Firmware Main/IRP/Git Repo/VCU14_29bit_overCAN_withIRP_new4g_proto26_adding_All10sec_data/Libraries/XMCLib/inc\xmc_gpio.h ****  * Prior to this api, user has to configure port pin to output mode using XMC_GPIO_SetMode().
 230:D:/Projects/VCU Firmware Main/IRP/Git Repo/VCU14_29bit_overCAN_withIRP_new4g_proto26_adding_All10sec_data/Libraries/XMCLib/inc\xmc_gpio.h ****  *
 231:D:/Projects/VCU Firmware Main/IRP/Git Repo/VCU14_29bit_overCAN_withIRP_new4g_proto26_adding_All10sec_data/Libraries/XMCLib/inc\xmc_gpio.h ****  */
 232:D:/Projects/VCU Firmware Main/IRP/Git Repo/VCU14_29bit_overCAN_withIRP_new4g_proto26_adding_All10sec_data/Libraries/XMCLib/inc\xmc_gpio.h **** 
 233:D:/Projects/VCU Firmware Main/IRP/Git Repo/VCU14_29bit_overCAN_withIRP_new4g_proto26_adding_All10sec_data/Libraries/XMCLib/inc\xmc_gpio.h **** 
 234:D:/Projects/VCU Firmware Main/IRP/Git Repo/VCU14_29bit_overCAN_withIRP_new4g_proto26_adding_All10sec_data/Libraries/XMCLib/inc\xmc_gpio.h **** __STATIC_INLINE void XMC_GPIO_SetOutputLevel(XMC_GPIO_PORT_t *const port, const uint8_t pin, const 
 235:D:/Projects/VCU Firmware Main/IRP/Git Repo/VCU14_29bit_overCAN_withIRP_new4g_proto26_adding_All10sec_data/Libraries/XMCLib/inc\xmc_gpio.h **** {
 236:D:/Projects/VCU Firmware Main/IRP/Git Repo/VCU14_29bit_overCAN_withIRP_new4g_proto26_adding_All10sec_data/Libraries/XMCLib/inc\xmc_gpio.h ****   XMC_ASSERT("XMC_GPIO_SetOutputLevel: Invalid port", XMC_GPIO_CHECK_OUTPUT_PORT(port));
 237:D:/Projects/VCU Firmware Main/IRP/Git Repo/VCU14_29bit_overCAN_withIRP_new4g_proto26_adding_All10sec_data/Libraries/XMCLib/inc\xmc_gpio.h ****   XMC_ASSERT("XMC_GPIO_SetOutputLevel: Invalid output level", XMC_GPIO_CHECK_OUTPUT_LEVEL(level));
 238:D:/Projects/VCU Firmware Main/IRP/Git Repo/VCU14_29bit_overCAN_withIRP_new4g_proto26_adding_All10sec_data/Libraries/XMCLib/inc\xmc_gpio.h **** 
 239:D:/Projects/VCU Firmware Main/IRP/Git Repo/VCU14_29bit_overCAN_withIRP_new4g_proto26_adding_All10sec_data/Libraries/XMCLib/inc\xmc_gpio.h ****   port->OMR = (uint32_t)level << pin;
 240:D:/Projects/VCU Firmware Main/IRP/Git Repo/VCU14_29bit_overCAN_withIRP_new4g_proto26_adding_All10sec_data/Libraries/XMCLib/inc\xmc_gpio.h **** }
 241:D:/Projects/VCU Firmware Main/IRP/Git Repo/VCU14_29bit_overCAN_withIRP_new4g_proto26_adding_All10sec_data/Libraries/XMCLib/inc\xmc_gpio.h **** 
 242:D:/Projects/VCU Firmware Main/IRP/Git Repo/VCU14_29bit_overCAN_withIRP_new4g_proto26_adding_All10sec_data/Libraries/XMCLib/inc\xmc_gpio.h **** 
 243:D:/Projects/VCU Firmware Main/IRP/Git Repo/VCU14_29bit_overCAN_withIRP_new4g_proto26_adding_All10sec_data/Libraries/XMCLib/inc\xmc_gpio.h **** /**
 244:D:/Projects/VCU Firmware Main/IRP/Git Repo/VCU14_29bit_overCAN_withIRP_new4g_proto26_adding_All10sec_data/Libraries/XMCLib/inc\xmc_gpio.h ****  * @param  port constant pointer pointing to GPIO port, to access hardware register Pn_OMR.
 245:D:/Projects/VCU Firmware Main/IRP/Git Repo/VCU14_29bit_overCAN_withIRP_new4g_proto26_adding_All10sec_data/Libraries/XMCLib/inc\xmc_gpio.h ****  * @param  pin	Port pin number.
 246:D:/Projects/VCU Firmware Main/IRP/Git Repo/VCU14_29bit_overCAN_withIRP_new4g_proto26_adding_All10sec_data/Libraries/XMCLib/inc\xmc_gpio.h ****  *
 247:D:/Projects/VCU Firmware Main/IRP/Git Repo/VCU14_29bit_overCAN_withIRP_new4g_proto26_adding_All10sec_data/Libraries/XMCLib/inc\xmc_gpio.h ****  * @return None
 248:D:/Projects/VCU Firmware Main/IRP/Git Repo/VCU14_29bit_overCAN_withIRP_new4g_proto26_adding_All10sec_data/Libraries/XMCLib/inc\xmc_gpio.h ****  *
 249:D:/Projects/VCU Firmware Main/IRP/Git Repo/VCU14_29bit_overCAN_withIRP_new4g_proto26_adding_All10sec_data/Libraries/XMCLib/inc\xmc_gpio.h ****  * \par<b>Description:</b><br>
 250:D:/Projects/VCU Firmware Main/IRP/Git Repo/VCU14_29bit_overCAN_withIRP_new4g_proto26_adding_All10sec_data/Libraries/XMCLib/inc\xmc_gpio.h ****  *  Sets port pin output to high. It configures hardware registers Pn_OMR.
 251:D:/Projects/VCU Firmware Main/IRP/Git Repo/VCU14_29bit_overCAN_withIRP_new4g_proto26_adding_All10sec_data/Libraries/XMCLib/inc\xmc_gpio.h ****  *
 252:D:/Projects/VCU Firmware Main/IRP/Git Repo/VCU14_29bit_overCAN_withIRP_new4g_proto26_adding_All10sec_data/Libraries/XMCLib/inc\xmc_gpio.h ****  *  \par<b>Related APIs:</b><BR>
 253:D:/Projects/VCU Firmware Main/IRP/Git Repo/VCU14_29bit_overCAN_withIRP_new4g_proto26_adding_All10sec_data/Libraries/XMCLib/inc\xmc_gpio.h ****  *  XMC_GPIO_SetOutputLow()
 254:D:/Projects/VCU Firmware Main/IRP/Git Repo/VCU14_29bit_overCAN_withIRP_new4g_proto26_adding_All10sec_data/Libraries/XMCLib/inc\xmc_gpio.h ****  *
 255:D:/Projects/VCU Firmware Main/IRP/Git Repo/VCU14_29bit_overCAN_withIRP_new4g_proto26_adding_All10sec_data/Libraries/XMCLib/inc\xmc_gpio.h ****  * \par<b>Note:</b><br>
 256:D:/Projects/VCU Firmware Main/IRP/Git Repo/VCU14_29bit_overCAN_withIRP_new4g_proto26_adding_All10sec_data/Libraries/XMCLib/inc\xmc_gpio.h ****  * Prior to this api, user has to configure port pin to output mode using XMC_GPIO_SetMode().\n
 257:D:/Projects/VCU Firmware Main/IRP/Git Repo/VCU14_29bit_overCAN_withIRP_new4g_proto26_adding_All10sec_data/Libraries/XMCLib/inc\xmc_gpio.h ****  * Register Pn_OMR is virtual and does not contain any flip-flop. A read action delivers the value 
 258:D:/Projects/VCU Firmware Main/IRP/Git Repo/VCU14_29bit_overCAN_withIRP_new4g_proto26_adding_All10sec_data/Libraries/XMCLib/inc\xmc_gpio.h ****  *
 259:D:/Projects/VCU Firmware Main/IRP/Git Repo/VCU14_29bit_overCAN_withIRP_new4g_proto26_adding_All10sec_data/Libraries/XMCLib/inc\xmc_gpio.h ****  */
 260:D:/Projects/VCU Firmware Main/IRP/Git Repo/VCU14_29bit_overCAN_withIRP_new4g_proto26_adding_All10sec_data/Libraries/XMCLib/inc\xmc_gpio.h **** 
 261:D:/Projects/VCU Firmware Main/IRP/Git Repo/VCU14_29bit_overCAN_withIRP_new4g_proto26_adding_All10sec_data/Libraries/XMCLib/inc\xmc_gpio.h **** __STATIC_INLINE void XMC_GPIO_SetOutputHigh(XMC_GPIO_PORT_t *const port, const uint8_t pin)
 262:D:/Projects/VCU Firmware Main/IRP/Git Repo/VCU14_29bit_overCAN_withIRP_new4g_proto26_adding_All10sec_data/Libraries/XMCLib/inc\xmc_gpio.h **** {
  27              	 .loc 1 262 0
  28              	 .cfi_startproc
  29              	 
  30              	 
  31              	 
  32 0000 80B4     	 push {r7}
  33              	.LCFI0:
  34              	 .cfi_def_cfa_offset 4
  35              	 .cfi_offset 7,-4
  36 0002 83B0     	 sub sp,sp,#12
  37              	.LCFI1:
  38              	 .cfi_def_cfa_offset 16
  39 0004 00AF     	 add r7,sp,#0
  40              	.LCFI2:
  41              	 .cfi_def_cfa_register 7
  42 0006 7860     	 str r0,[r7,#4]
  43 0008 0B46     	 mov r3,r1
  44 000a FB70     	 strb r3,[r7,#3]
 263:D:/Projects/VCU Firmware Main/IRP/Git Repo/VCU14_29bit_overCAN_withIRP_new4g_proto26_adding_All10sec_data/Libraries/XMCLib/inc\xmc_gpio.h ****   XMC_ASSERT("XMC_GPIO_SetOutputHigh: Invalid port", XMC_GPIO_CHECK_OUTPUT_PORT(port));
 264:D:/Projects/VCU Firmware Main/IRP/Git Repo/VCU14_29bit_overCAN_withIRP_new4g_proto26_adding_All10sec_data/Libraries/XMCLib/inc\xmc_gpio.h **** 
 265:D:/Projects/VCU Firmware Main/IRP/Git Repo/VCU14_29bit_overCAN_withIRP_new4g_proto26_adding_All10sec_data/Libraries/XMCLib/inc\xmc_gpio.h ****   port->OMR = (uint32_t)0x1U << pin;
  45              	 .loc 1 265 0
  46 000c FB78     	 ldrb r3,[r7,#3]
  47 000e 0122     	 movs r2,#1
  48 0010 9A40     	 lsls r2,r2,r3
  49 0012 7B68     	 ldr r3,[r7,#4]
  50 0014 5A60     	 str r2,[r3,#4]
 266:D:/Projects/VCU Firmware Main/IRP/Git Repo/VCU14_29bit_overCAN_withIRP_new4g_proto26_adding_All10sec_data/Libraries/XMCLib/inc\xmc_gpio.h **** }
  51              	 .loc 1 266 0
  52 0016 0C37     	 adds r7,r7,#12
  53              	.LCFI3:
  54              	 .cfi_def_cfa_offset 4
  55 0018 BD46     	 mov sp,r7
  56              	.LCFI4:
  57              	 .cfi_def_cfa_register 13
  58              	 
  59 001a 5DF8047B 	 ldr r7,[sp],#4
  60              	.LCFI5:
  61              	 .cfi_restore 7
  62              	 .cfi_def_cfa_offset 0
  63 001e 7047     	 bx lr
  64              	 .cfi_endproc
  65              	.LFE135:
  67              	 .section .text.XMC_GPIO_SetOutputLow,"ax",%progbits
  68              	 .align 2
  69              	 .thumb
  70              	 .thumb_func
  72              	XMC_GPIO_SetOutputLow:
  73              	.LFB136:
 267:D:/Projects/VCU Firmware Main/IRP/Git Repo/VCU14_29bit_overCAN_withIRP_new4g_proto26_adding_All10sec_data/Libraries/XMCLib/inc\xmc_gpio.h **** 
 268:D:/Projects/VCU Firmware Main/IRP/Git Repo/VCU14_29bit_overCAN_withIRP_new4g_proto26_adding_All10sec_data/Libraries/XMCLib/inc\xmc_gpio.h **** /**
 269:D:/Projects/VCU Firmware Main/IRP/Git Repo/VCU14_29bit_overCAN_withIRP_new4g_proto26_adding_All10sec_data/Libraries/XMCLib/inc\xmc_gpio.h ****  *
 270:D:/Projects/VCU Firmware Main/IRP/Git Repo/VCU14_29bit_overCAN_withIRP_new4g_proto26_adding_All10sec_data/Libraries/XMCLib/inc\xmc_gpio.h ****  * @param  port	constant pointer pointing to GPIO port, to access hardware register Pn_OMR.
 271:D:/Projects/VCU Firmware Main/IRP/Git Repo/VCU14_29bit_overCAN_withIRP_new4g_proto26_adding_All10sec_data/Libraries/XMCLib/inc\xmc_gpio.h ****  * @param  pin	port pin number.
 272:D:/Projects/VCU Firmware Main/IRP/Git Repo/VCU14_29bit_overCAN_withIRP_new4g_proto26_adding_All10sec_data/Libraries/XMCLib/inc\xmc_gpio.h ****  *
 273:D:/Projects/VCU Firmware Main/IRP/Git Repo/VCU14_29bit_overCAN_withIRP_new4g_proto26_adding_All10sec_data/Libraries/XMCLib/inc\xmc_gpio.h ****  * @return  None
 274:D:/Projects/VCU Firmware Main/IRP/Git Repo/VCU14_29bit_overCAN_withIRP_new4g_proto26_adding_All10sec_data/Libraries/XMCLib/inc\xmc_gpio.h ****  *
 275:D:/Projects/VCU Firmware Main/IRP/Git Repo/VCU14_29bit_overCAN_withIRP_new4g_proto26_adding_All10sec_data/Libraries/XMCLib/inc\xmc_gpio.h ****  *\par<b>Description:</b><br>
 276:D:/Projects/VCU Firmware Main/IRP/Git Repo/VCU14_29bit_overCAN_withIRP_new4g_proto26_adding_All10sec_data/Libraries/XMCLib/inc\xmc_gpio.h ****  * Sets port pin output to low. It configures hardware registers Pn_OMR.\n
 277:D:/Projects/VCU Firmware Main/IRP/Git Repo/VCU14_29bit_overCAN_withIRP_new4g_proto26_adding_All10sec_data/Libraries/XMCLib/inc\xmc_gpio.h ****  *
 278:D:/Projects/VCU Firmware Main/IRP/Git Repo/VCU14_29bit_overCAN_withIRP_new4g_proto26_adding_All10sec_data/Libraries/XMCLib/inc\xmc_gpio.h ****  * \par<b>Related APIs:</b><BR>>
 279:D:/Projects/VCU Firmware Main/IRP/Git Repo/VCU14_29bit_overCAN_withIRP_new4g_proto26_adding_All10sec_data/Libraries/XMCLib/inc\xmc_gpio.h ****  * XMC_GPIO_SetOutputHigh()
 280:D:/Projects/VCU Firmware Main/IRP/Git Repo/VCU14_29bit_overCAN_withIRP_new4g_proto26_adding_All10sec_data/Libraries/XMCLib/inc\xmc_gpio.h ****  *
 281:D:/Projects/VCU Firmware Main/IRP/Git Repo/VCU14_29bit_overCAN_withIRP_new4g_proto26_adding_All10sec_data/Libraries/XMCLib/inc\xmc_gpio.h ****  *\par<b>Note:</b><br>
 282:D:/Projects/VCU Firmware Main/IRP/Git Repo/VCU14_29bit_overCAN_withIRP_new4g_proto26_adding_All10sec_data/Libraries/XMCLib/inc\xmc_gpio.h ****  * Prior to this api, user has to configure port pin to output mode using XMC_GPIO_SetMode().
 283:D:/Projects/VCU Firmware Main/IRP/Git Repo/VCU14_29bit_overCAN_withIRP_new4g_proto26_adding_All10sec_data/Libraries/XMCLib/inc\xmc_gpio.h ****  * Register Pn_OMR is virtual and does not contain any flip-flop. A read action delivers the value 
 284:D:/Projects/VCU Firmware Main/IRP/Git Repo/VCU14_29bit_overCAN_withIRP_new4g_proto26_adding_All10sec_data/Libraries/XMCLib/inc\xmc_gpio.h ****  *
 285:D:/Projects/VCU Firmware Main/IRP/Git Repo/VCU14_29bit_overCAN_withIRP_new4g_proto26_adding_All10sec_data/Libraries/XMCLib/inc\xmc_gpio.h ****  */
 286:D:/Projects/VCU Firmware Main/IRP/Git Repo/VCU14_29bit_overCAN_withIRP_new4g_proto26_adding_All10sec_data/Libraries/XMCLib/inc\xmc_gpio.h **** 
 287:D:/Projects/VCU Firmware Main/IRP/Git Repo/VCU14_29bit_overCAN_withIRP_new4g_proto26_adding_All10sec_data/Libraries/XMCLib/inc\xmc_gpio.h **** __STATIC_INLINE void XMC_GPIO_SetOutputLow(XMC_GPIO_PORT_t *const port, const uint8_t pin)
 288:D:/Projects/VCU Firmware Main/IRP/Git Repo/VCU14_29bit_overCAN_withIRP_new4g_proto26_adding_All10sec_data/Libraries/XMCLib/inc\xmc_gpio.h **** {
  74              	 .loc 1 288 0
  75              	 .cfi_startproc
  76              	 
  77              	 
  78              	 
  79 0000 80B4     	 push {r7}
  80              	.LCFI6:
  81              	 .cfi_def_cfa_offset 4
  82              	 .cfi_offset 7,-4
  83 0002 83B0     	 sub sp,sp,#12
  84              	.LCFI7:
  85              	 .cfi_def_cfa_offset 16
  86 0004 00AF     	 add r7,sp,#0
  87              	.LCFI8:
  88              	 .cfi_def_cfa_register 7
  89 0006 7860     	 str r0,[r7,#4]
  90 0008 0B46     	 mov r3,r1
  91 000a FB70     	 strb r3,[r7,#3]
 289:D:/Projects/VCU Firmware Main/IRP/Git Repo/VCU14_29bit_overCAN_withIRP_new4g_proto26_adding_All10sec_data/Libraries/XMCLib/inc\xmc_gpio.h ****   XMC_ASSERT("XMC_GPIO_SetOutputLow: Invalid port", XMC_GPIO_CHECK_OUTPUT_PORT(port));
 290:D:/Projects/VCU Firmware Main/IRP/Git Repo/VCU14_29bit_overCAN_withIRP_new4g_proto26_adding_All10sec_data/Libraries/XMCLib/inc\xmc_gpio.h **** 
 291:D:/Projects/VCU Firmware Main/IRP/Git Repo/VCU14_29bit_overCAN_withIRP_new4g_proto26_adding_All10sec_data/Libraries/XMCLib/inc\xmc_gpio.h ****   port->OMR = 0x10000U << pin;
  92              	 .loc 1 291 0
  93 000c FB78     	 ldrb r3,[r7,#3]
  94 000e 4FF48032 	 mov r2,#65536
  95 0012 9A40     	 lsls r2,r2,r3
  96 0014 7B68     	 ldr r3,[r7,#4]
  97 0016 5A60     	 str r2,[r3,#4]
 292:D:/Projects/VCU Firmware Main/IRP/Git Repo/VCU14_29bit_overCAN_withIRP_new4g_proto26_adding_All10sec_data/Libraries/XMCLib/inc\xmc_gpio.h **** }
  98              	 .loc 1 292 0
  99 0018 0C37     	 adds r7,r7,#12
 100              	.LCFI9:
 101              	 .cfi_def_cfa_offset 4
 102 001a BD46     	 mov sp,r7
 103              	.LCFI10:
 104              	 .cfi_def_cfa_register 13
 105              	 
 106 001c 5DF8047B 	 ldr r7,[sp],#4
 107              	.LCFI11:
 108              	 .cfi_restore 7
 109              	 .cfi_def_cfa_offset 0
 110 0020 7047     	 bx lr
 111              	 .cfi_endproc
 112              	.LFE136:
 114 0022 00BF     	 .section .text.DIGITAL_IO_SetOutputHigh,"ax",%progbits
 115              	 .align 2
 116              	 .thumb
 117              	 .thumb_func
 119              	DIGITAL_IO_SetOutputHigh:
 120              	.LFB143:
 121              	 .file 2 "D:/Projects/VCU Firmware Main/IRP/Git Repo/VCU14_29bit_overCAN_withIRP_new4g_proto26_adding_All10sec_data/Dave/Generated/DIGITAL_IO/digital_io.h"
   1:D:/Projects/VCU Firmware Main/IRP/Git Repo/VCU14_29bit_overCAN_withIRP_new4g_proto26_adding_All10sec_data/Dave/Generated/DIGITAL_IO\digital_io.h **** /*
   2:D:/Projects/VCU Firmware Main/IRP/Git Repo/VCU14_29bit_overCAN_withIRP_new4g_proto26_adding_All10sec_data/Dave/Generated/DIGITAL_IO\digital_io.h ****  *
   3:D:/Projects/VCU Firmware Main/IRP/Git Repo/VCU14_29bit_overCAN_withIRP_new4g_proto26_adding_All10sec_data/Dave/Generated/DIGITAL_IO\digital_io.h ****  * @file digital_io.h
   4:D:/Projects/VCU Firmware Main/IRP/Git Repo/VCU14_29bit_overCAN_withIRP_new4g_proto26_adding_All10sec_data/Dave/Generated/DIGITAL_IO\digital_io.h ****  * @date 2021-01-08
   5:D:/Projects/VCU Firmware Main/IRP/Git Repo/VCU14_29bit_overCAN_withIRP_new4g_proto26_adding_All10sec_data/Dave/Generated/DIGITAL_IO\digital_io.h ****  *
   6:D:/Projects/VCU Firmware Main/IRP/Git Repo/VCU14_29bit_overCAN_withIRP_new4g_proto26_adding_All10sec_data/Dave/Generated/DIGITAL_IO\digital_io.h ****  * NOTE:
   7:D:/Projects/VCU Firmware Main/IRP/Git Repo/VCU14_29bit_overCAN_withIRP_new4g_proto26_adding_All10sec_data/Dave/Generated/DIGITAL_IO\digital_io.h ****  * This file is generated by DAVE. Any manual modification done to this file will be lost when the 
   8:D:/Projects/VCU Firmware Main/IRP/Git Repo/VCU14_29bit_overCAN_withIRP_new4g_proto26_adding_All10sec_data/Dave/Generated/DIGITAL_IO\digital_io.h ****  *
   9:D:/Projects/VCU Firmware Main/IRP/Git Repo/VCU14_29bit_overCAN_withIRP_new4g_proto26_adding_All10sec_data/Dave/Generated/DIGITAL_IO\digital_io.h ****  * @cond
  10:D:/Projects/VCU Firmware Main/IRP/Git Repo/VCU14_29bit_overCAN_withIRP_new4g_proto26_adding_All10sec_data/Dave/Generated/DIGITAL_IO\digital_io.h ****  **************************************************************************************************
  11:D:/Projects/VCU Firmware Main/IRP/Git Repo/VCU14_29bit_overCAN_withIRP_new4g_proto26_adding_All10sec_data/Dave/Generated/DIGITAL_IO\digital_io.h ****  * DIGITAL_IO v4.0.18 - The DIGITAL_IO APP is used to configure a port pin as digital Input/Output.
  12:D:/Projects/VCU Firmware Main/IRP/Git Repo/VCU14_29bit_overCAN_withIRP_new4g_proto26_adding_All10sec_data/Dave/Generated/DIGITAL_IO\digital_io.h ****  *
  13:D:/Projects/VCU Firmware Main/IRP/Git Repo/VCU14_29bit_overCAN_withIRP_new4g_proto26_adding_All10sec_data/Dave/Generated/DIGITAL_IO\digital_io.h ****  * Copyright (c) 2015-2020, Infineon Technologies AG
  14:D:/Projects/VCU Firmware Main/IRP/Git Repo/VCU14_29bit_overCAN_withIRP_new4g_proto26_adding_All10sec_data/Dave/Generated/DIGITAL_IO\digital_io.h ****  * All rights reserved.
  15:D:/Projects/VCU Firmware Main/IRP/Git Repo/VCU14_29bit_overCAN_withIRP_new4g_proto26_adding_All10sec_data/Dave/Generated/DIGITAL_IO\digital_io.h ****  *
  16:D:/Projects/VCU Firmware Main/IRP/Git Repo/VCU14_29bit_overCAN_withIRP_new4g_proto26_adding_All10sec_data/Dave/Generated/DIGITAL_IO\digital_io.h ****  * Redistribution and use in source and binary forms, with or without modification,are permitted pr
  17:D:/Projects/VCU Firmware Main/IRP/Git Repo/VCU14_29bit_overCAN_withIRP_new4g_proto26_adding_All10sec_data/Dave/Generated/DIGITAL_IO\digital_io.h ****  * following conditions are met:
  18:D:/Projects/VCU Firmware Main/IRP/Git Repo/VCU14_29bit_overCAN_withIRP_new4g_proto26_adding_All10sec_data/Dave/Generated/DIGITAL_IO\digital_io.h ****  *
  19:D:/Projects/VCU Firmware Main/IRP/Git Repo/VCU14_29bit_overCAN_withIRP_new4g_proto26_adding_All10sec_data/Dave/Generated/DIGITAL_IO\digital_io.h ****  *   Redistributions of source code must retain the above copyright notice, this list of conditions
  20:D:/Projects/VCU Firmware Main/IRP/Git Repo/VCU14_29bit_overCAN_withIRP_new4g_proto26_adding_All10sec_data/Dave/Generated/DIGITAL_IO\digital_io.h ****  *   disclaimer.
  21:D:/Projects/VCU Firmware Main/IRP/Git Repo/VCU14_29bit_overCAN_withIRP_new4g_proto26_adding_All10sec_data/Dave/Generated/DIGITAL_IO\digital_io.h ****  *
  22:D:/Projects/VCU Firmware Main/IRP/Git Repo/VCU14_29bit_overCAN_withIRP_new4g_proto26_adding_All10sec_data/Dave/Generated/DIGITAL_IO\digital_io.h ****  *   Redistributions in binary form must reproduce the above copyright notice, this list of conditi
  23:D:/Projects/VCU Firmware Main/IRP/Git Repo/VCU14_29bit_overCAN_withIRP_new4g_proto26_adding_All10sec_data/Dave/Generated/DIGITAL_IO\digital_io.h ****  *   following disclaimer in the documentation and/or other materials provided with the distributio
  24:D:/Projects/VCU Firmware Main/IRP/Git Repo/VCU14_29bit_overCAN_withIRP_new4g_proto26_adding_All10sec_data/Dave/Generated/DIGITAL_IO\digital_io.h ****  *
  25:D:/Projects/VCU Firmware Main/IRP/Git Repo/VCU14_29bit_overCAN_withIRP_new4g_proto26_adding_All10sec_data/Dave/Generated/DIGITAL_IO\digital_io.h ****  *   Neither the name of the copyright holders nor the names of its contributors may be used to end
  26:D:/Projects/VCU Firmware Main/IRP/Git Repo/VCU14_29bit_overCAN_withIRP_new4g_proto26_adding_All10sec_data/Dave/Generated/DIGITAL_IO\digital_io.h ****  *   products derived from this software without specific prior written permission.
  27:D:/Projects/VCU Firmware Main/IRP/Git Repo/VCU14_29bit_overCAN_withIRP_new4g_proto26_adding_All10sec_data/Dave/Generated/DIGITAL_IO\digital_io.h ****  *
  28:D:/Projects/VCU Firmware Main/IRP/Git Repo/VCU14_29bit_overCAN_withIRP_new4g_proto26_adding_All10sec_data/Dave/Generated/DIGITAL_IO\digital_io.h ****  * THIS SOFTWARE IS PROVIDED BY THE COPYRIGHT HOLDERS AND CONTRIBUTORS "AS IS" AND ANY EXPRESS OR I
  29:D:/Projects/VCU Firmware Main/IRP/Git Repo/VCU14_29bit_overCAN_withIRP_new4g_proto26_adding_All10sec_data/Dave/Generated/DIGITAL_IO\digital_io.h ****  * INCLUDING, BUT NOT LIMITED TO, THE IMPLIED WARRANTIES OF MERCHANTABILITY AND FITNESS FOR A PARTI
  30:D:/Projects/VCU Firmware Main/IRP/Git Repo/VCU14_29bit_overCAN_withIRP_new4g_proto26_adding_All10sec_data/Dave/Generated/DIGITAL_IO\digital_io.h ****  * DISCLAIMED. IN NO EVENT SHALL THE COPYRIGHT HOLDER OR CONTRIBUTORS BE LIABLE  FOR ANY DIRECT, IN
  31:D:/Projects/VCU Firmware Main/IRP/Git Repo/VCU14_29bit_overCAN_withIRP_new4g_proto26_adding_All10sec_data/Dave/Generated/DIGITAL_IO\digital_io.h ****  * SPECIAL, EXEMPLARY, OR CONSEQUENTIAL DAMAGES (INCLUDING, BUT NOT LIMITED TO, PROCUREMENT OF SUBS
  32:D:/Projects/VCU Firmware Main/IRP/Git Repo/VCU14_29bit_overCAN_withIRP_new4g_proto26_adding_All10sec_data/Dave/Generated/DIGITAL_IO\digital_io.h ****  * SERVICES; LOSS OF USE, DATA, OR PROFITS; OR BUSINESS INTERRUPTION) HOWEVER CAUSED AND ON ANY THE
  33:D:/Projects/VCU Firmware Main/IRP/Git Repo/VCU14_29bit_overCAN_withIRP_new4g_proto26_adding_All10sec_data/Dave/Generated/DIGITAL_IO\digital_io.h ****  * WHETHER IN CONTRACT, STRICT LIABILITY,OR TORT (INCLUDING NEGLIGENCE OR OTHERWISE) ARISING IN ANY
  34:D:/Projects/VCU Firmware Main/IRP/Git Repo/VCU14_29bit_overCAN_withIRP_new4g_proto26_adding_All10sec_data/Dave/Generated/DIGITAL_IO\digital_io.h ****  * USE OF THIS SOFTWARE, EVEN IF ADVISED OF THE POSSIBILITY OF SUCH DAMAGE.
  35:D:/Projects/VCU Firmware Main/IRP/Git Repo/VCU14_29bit_overCAN_withIRP_new4g_proto26_adding_All10sec_data/Dave/Generated/DIGITAL_IO\digital_io.h ****  *
  36:D:/Projects/VCU Firmware Main/IRP/Git Repo/VCU14_29bit_overCAN_withIRP_new4g_proto26_adding_All10sec_data/Dave/Generated/DIGITAL_IO\digital_io.h ****  * To improve the quality of the software, users are encouraged to share modifications, enhancement
  37:D:/Projects/VCU Firmware Main/IRP/Git Repo/VCU14_29bit_overCAN_withIRP_new4g_proto26_adding_All10sec_data/Dave/Generated/DIGITAL_IO\digital_io.h ****  * with Infineon Technologies AG (dave@infineon.com).
  38:D:/Projects/VCU Firmware Main/IRP/Git Repo/VCU14_29bit_overCAN_withIRP_new4g_proto26_adding_All10sec_data/Dave/Generated/DIGITAL_IO\digital_io.h ****  **************************************************************************************************
  39:D:/Projects/VCU Firmware Main/IRP/Git Repo/VCU14_29bit_overCAN_withIRP_new4g_proto26_adding_All10sec_data/Dave/Generated/DIGITAL_IO\digital_io.h ****  *
  40:D:/Projects/VCU Firmware Main/IRP/Git Repo/VCU14_29bit_overCAN_withIRP_new4g_proto26_adding_All10sec_data/Dave/Generated/DIGITAL_IO\digital_io.h ****  * Change History
  41:D:/Projects/VCU Firmware Main/IRP/Git Repo/VCU14_29bit_overCAN_withIRP_new4g_proto26_adding_All10sec_data/Dave/Generated/DIGITAL_IO\digital_io.h ****  * --------------
  42:D:/Projects/VCU Firmware Main/IRP/Git Repo/VCU14_29bit_overCAN_withIRP_new4g_proto26_adding_All10sec_data/Dave/Generated/DIGITAL_IO\digital_io.h ****  *
  43:D:/Projects/VCU Firmware Main/IRP/Git Repo/VCU14_29bit_overCAN_withIRP_new4g_proto26_adding_All10sec_data/Dave/Generated/DIGITAL_IO\digital_io.h ****  * 2015-02-16
  44:D:/Projects/VCU Firmware Main/IRP/Git Repo/VCU14_29bit_overCAN_withIRP_new4g_proto26_adding_All10sec_data/Dave/Generated/DIGITAL_IO\digital_io.h ****  *     - Initial version
  45:D:/Projects/VCU Firmware Main/IRP/Git Repo/VCU14_29bit_overCAN_withIRP_new4g_proto26_adding_All10sec_data/Dave/Generated/DIGITAL_IO\digital_io.h ****  *
  46:D:/Projects/VCU Firmware Main/IRP/Git Repo/VCU14_29bit_overCAN_withIRP_new4g_proto26_adding_All10sec_data/Dave/Generated/DIGITAL_IO\digital_io.h ****  * 2015-04-22
  47:D:/Projects/VCU Firmware Main/IRP/Git Repo/VCU14_29bit_overCAN_withIRP_new4g_proto26_adding_All10sec_data/Dave/Generated/DIGITAL_IO\digital_io.h ****  *     - XMC_ASSERT is added in static inline functions.<br>
  48:D:/Projects/VCU Firmware Main/IRP/Git Repo/VCU14_29bit_overCAN_withIRP_new4g_proto26_adding_All10sec_data/Dave/Generated/DIGITAL_IO\digital_io.h ****  *
  49:D:/Projects/VCU Firmware Main/IRP/Git Repo/VCU14_29bit_overCAN_withIRP_new4g_proto26_adding_All10sec_data/Dave/Generated/DIGITAL_IO\digital_io.h ****  * 2015-06-20
  50:D:/Projects/VCU Firmware Main/IRP/Git Repo/VCU14_29bit_overCAN_withIRP_new4g_proto26_adding_All10sec_data/Dave/Generated/DIGITAL_IO\digital_io.h ****  *     - Version check added for XMCLib dependency.<br>
  51:D:/Projects/VCU Firmware Main/IRP/Git Repo/VCU14_29bit_overCAN_withIRP_new4g_proto26_adding_All10sec_data/Dave/Generated/DIGITAL_IO\digital_io.h ****  *
  52:D:/Projects/VCU Firmware Main/IRP/Git Repo/VCU14_29bit_overCAN_withIRP_new4g_proto26_adding_All10sec_data/Dave/Generated/DIGITAL_IO\digital_io.h ****  * 2015-12-22
  53:D:/Projects/VCU Firmware Main/IRP/Git Repo/VCU14_29bit_overCAN_withIRP_new4g_proto26_adding_All10sec_data/Dave/Generated/DIGITAL_IO\digital_io.h ****  *     - Added hardware controlled IO feature.
  54:D:/Projects/VCU Firmware Main/IRP/Git Repo/VCU14_29bit_overCAN_withIRP_new4g_proto26_adding_All10sec_data/Dave/Generated/DIGITAL_IO\digital_io.h ****  * 2016-07-08:
  55:D:/Projects/VCU Firmware Main/IRP/Git Repo/VCU14_29bit_overCAN_withIRP_new4g_proto26_adding_All10sec_data/Dave/Generated/DIGITAL_IO\digital_io.h ****  *     - Fixed incorrect case for an included header.<br>
  56:D:/Projects/VCU Firmware Main/IRP/Git Repo/VCU14_29bit_overCAN_withIRP_new4g_proto26_adding_All10sec_data/Dave/Generated/DIGITAL_IO\digital_io.h ****  * 2021-01-08:
  57:D:/Projects/VCU Firmware Main/IRP/Git Repo/VCU14_29bit_overCAN_withIRP_new4g_proto26_adding_All10sec_data/Dave/Generated/DIGITAL_IO\digital_io.h ****  *     - Modified check for minimum XMCLib version
  58:D:/Projects/VCU Firmware Main/IRP/Git Repo/VCU14_29bit_overCAN_withIRP_new4g_proto26_adding_All10sec_data/Dave/Generated/DIGITAL_IO\digital_io.h ****  *
  59:D:/Projects/VCU Firmware Main/IRP/Git Repo/VCU14_29bit_overCAN_withIRP_new4g_proto26_adding_All10sec_data/Dave/Generated/DIGITAL_IO\digital_io.h ****  * @endcond
  60:D:/Projects/VCU Firmware Main/IRP/Git Repo/VCU14_29bit_overCAN_withIRP_new4g_proto26_adding_All10sec_data/Dave/Generated/DIGITAL_IO\digital_io.h ****  *
  61:D:/Projects/VCU Firmware Main/IRP/Git Repo/VCU14_29bit_overCAN_withIRP_new4g_proto26_adding_All10sec_data/Dave/Generated/DIGITAL_IO\digital_io.h ****  */
  62:D:/Projects/VCU Firmware Main/IRP/Git Repo/VCU14_29bit_overCAN_withIRP_new4g_proto26_adding_All10sec_data/Dave/Generated/DIGITAL_IO\digital_io.h **** 
  63:D:/Projects/VCU Firmware Main/IRP/Git Repo/VCU14_29bit_overCAN_withIRP_new4g_proto26_adding_All10sec_data/Dave/Generated/DIGITAL_IO\digital_io.h **** /**************************************************************************************************
  64:D:/Projects/VCU Firmware Main/IRP/Git Repo/VCU14_29bit_overCAN_withIRP_new4g_proto26_adding_All10sec_data/Dave/Generated/DIGITAL_IO\digital_io.h ****  * HEADER FILES
  65:D:/Projects/VCU Firmware Main/IRP/Git Repo/VCU14_29bit_overCAN_withIRP_new4g_proto26_adding_All10sec_data/Dave/Generated/DIGITAL_IO\digital_io.h ****  **************************************************************************************************
  66:D:/Projects/VCU Firmware Main/IRP/Git Repo/VCU14_29bit_overCAN_withIRP_new4g_proto26_adding_All10sec_data/Dave/Generated/DIGITAL_IO\digital_io.h **** 
  67:D:/Projects/VCU Firmware Main/IRP/Git Repo/VCU14_29bit_overCAN_withIRP_new4g_proto26_adding_All10sec_data/Dave/Generated/DIGITAL_IO\digital_io.h **** #ifndef DIGITAL_IO_H
  68:D:/Projects/VCU Firmware Main/IRP/Git Repo/VCU14_29bit_overCAN_withIRP_new4g_proto26_adding_All10sec_data/Dave/Generated/DIGITAL_IO\digital_io.h **** #define DIGITAL_IO_H
  69:D:/Projects/VCU Firmware Main/IRP/Git Repo/VCU14_29bit_overCAN_withIRP_new4g_proto26_adding_All10sec_data/Dave/Generated/DIGITAL_IO\digital_io.h **** 
  70:D:/Projects/VCU Firmware Main/IRP/Git Repo/VCU14_29bit_overCAN_withIRP_new4g_proto26_adding_All10sec_data/Dave/Generated/DIGITAL_IO\digital_io.h **** #include "xmc_gpio.h"
  71:D:/Projects/VCU Firmware Main/IRP/Git Repo/VCU14_29bit_overCAN_withIRP_new4g_proto26_adding_All10sec_data/Dave/Generated/DIGITAL_IO\digital_io.h **** #include "DAVE_Common.h"
  72:D:/Projects/VCU Firmware Main/IRP/Git Repo/VCU14_29bit_overCAN_withIRP_new4g_proto26_adding_All10sec_data/Dave/Generated/DIGITAL_IO\digital_io.h **** #include "digital_io_conf.h"
  73:D:/Projects/VCU Firmware Main/IRP/Git Repo/VCU14_29bit_overCAN_withIRP_new4g_proto26_adding_All10sec_data/Dave/Generated/DIGITAL_IO\digital_io.h **** 
  74:D:/Projects/VCU Firmware Main/IRP/Git Repo/VCU14_29bit_overCAN_withIRP_new4g_proto26_adding_All10sec_data/Dave/Generated/DIGITAL_IO\digital_io.h **** /**************************************************************************************************
  75:D:/Projects/VCU Firmware Main/IRP/Git Repo/VCU14_29bit_overCAN_withIRP_new4g_proto26_adding_All10sec_data/Dave/Generated/DIGITAL_IO\digital_io.h ****  * MACROS
  76:D:/Projects/VCU Firmware Main/IRP/Git Repo/VCU14_29bit_overCAN_withIRP_new4g_proto26_adding_All10sec_data/Dave/Generated/DIGITAL_IO\digital_io.h ****  **************************************************************************************************
  77:D:/Projects/VCU Firmware Main/IRP/Git Repo/VCU14_29bit_overCAN_withIRP_new4g_proto26_adding_All10sec_data/Dave/Generated/DIGITAL_IO\digital_io.h **** #define DIGITAL_IO_XMC_LIB_MAJOR_VERSION 2
  78:D:/Projects/VCU Firmware Main/IRP/Git Repo/VCU14_29bit_overCAN_withIRP_new4g_proto26_adding_All10sec_data/Dave/Generated/DIGITAL_IO\digital_io.h **** #define DIGITAL_IO_XMC_LIB_MINOR_VERSION 0
  79:D:/Projects/VCU Firmware Main/IRP/Git Repo/VCU14_29bit_overCAN_withIRP_new4g_proto26_adding_All10sec_data/Dave/Generated/DIGITAL_IO\digital_io.h **** #define DIGITAL_IO_XMC_LIB_PATCH_VERSION 0
  80:D:/Projects/VCU Firmware Main/IRP/Git Repo/VCU14_29bit_overCAN_withIRP_new4g_proto26_adding_All10sec_data/Dave/Generated/DIGITAL_IO\digital_io.h **** 
  81:D:/Projects/VCU Firmware Main/IRP/Git Repo/VCU14_29bit_overCAN_withIRP_new4g_proto26_adding_All10sec_data/Dave/Generated/DIGITAL_IO\digital_io.h **** #if !((XMC_LIB_MAJOR_VERSION > DIGITAL_IO_XMC_LIB_MAJOR_VERSION) ||\
  82:D:/Projects/VCU Firmware Main/IRP/Git Repo/VCU14_29bit_overCAN_withIRP_new4g_proto26_adding_All10sec_data/Dave/Generated/DIGITAL_IO\digital_io.h ****       ((XMC_LIB_MAJOR_VERSION == DIGITAL_IO_XMC_LIB_MAJOR_VERSION) && (XMC_LIB_MINOR_VERSION > DIGI
  83:D:/Projects/VCU Firmware Main/IRP/Git Repo/VCU14_29bit_overCAN_withIRP_new4g_proto26_adding_All10sec_data/Dave/Generated/DIGITAL_IO\digital_io.h ****       ((XMC_LIB_MAJOR_VERSION == DIGITAL_IO_XMC_LIB_MAJOR_VERSION) && (XMC_LIB_MINOR_VERSION == DIG
  84:D:/Projects/VCU Firmware Main/IRP/Git Repo/VCU14_29bit_overCAN_withIRP_new4g_proto26_adding_All10sec_data/Dave/Generated/DIGITAL_IO\digital_io.h **** #error "DIGITAL_IO requires XMC Peripheral Library v2.0.0 or higher"
  85:D:/Projects/VCU Firmware Main/IRP/Git Repo/VCU14_29bit_overCAN_withIRP_new4g_proto26_adding_All10sec_data/Dave/Generated/DIGITAL_IO\digital_io.h **** #endif
  86:D:/Projects/VCU Firmware Main/IRP/Git Repo/VCU14_29bit_overCAN_withIRP_new4g_proto26_adding_All10sec_data/Dave/Generated/DIGITAL_IO\digital_io.h **** 
  87:D:/Projects/VCU Firmware Main/IRP/Git Repo/VCU14_29bit_overCAN_withIRP_new4g_proto26_adding_All10sec_data/Dave/Generated/DIGITAL_IO\digital_io.h ****  /*************************************************************************************************
  88:D:/Projects/VCU Firmware Main/IRP/Git Repo/VCU14_29bit_overCAN_withIRP_new4g_proto26_adding_All10sec_data/Dave/Generated/DIGITAL_IO\digital_io.h ****  * ENUMS
  89:D:/Projects/VCU Firmware Main/IRP/Git Repo/VCU14_29bit_overCAN_withIRP_new4g_proto26_adding_All10sec_data/Dave/Generated/DIGITAL_IO\digital_io.h ****  **************************************************************************************************
  90:D:/Projects/VCU Firmware Main/IRP/Git Repo/VCU14_29bit_overCAN_withIRP_new4g_proto26_adding_All10sec_data/Dave/Generated/DIGITAL_IO\digital_io.h **** 
  91:D:/Projects/VCU Firmware Main/IRP/Git Repo/VCU14_29bit_overCAN_withIRP_new4g_proto26_adding_All10sec_data/Dave/Generated/DIGITAL_IO\digital_io.h **** /**
  92:D:/Projects/VCU Firmware Main/IRP/Git Repo/VCU14_29bit_overCAN_withIRP_new4g_proto26_adding_All10sec_data/Dave/Generated/DIGITAL_IO\digital_io.h **** * @ingroup DIGITAL_IO_enumerations
  93:D:/Projects/VCU Firmware Main/IRP/Git Repo/VCU14_29bit_overCAN_withIRP_new4g_proto26_adding_All10sec_data/Dave/Generated/DIGITAL_IO\digital_io.h **** * @{
  94:D:/Projects/VCU Firmware Main/IRP/Git Repo/VCU14_29bit_overCAN_withIRP_new4g_proto26_adding_All10sec_data/Dave/Generated/DIGITAL_IO\digital_io.h **** */
  95:D:/Projects/VCU Firmware Main/IRP/Git Repo/VCU14_29bit_overCAN_withIRP_new4g_proto26_adding_All10sec_data/Dave/Generated/DIGITAL_IO\digital_io.h **** 
  96:D:/Projects/VCU Firmware Main/IRP/Git Repo/VCU14_29bit_overCAN_withIRP_new4g_proto26_adding_All10sec_data/Dave/Generated/DIGITAL_IO\digital_io.h **** /**
  97:D:/Projects/VCU Firmware Main/IRP/Git Repo/VCU14_29bit_overCAN_withIRP_new4g_proto26_adding_All10sec_data/Dave/Generated/DIGITAL_IO\digital_io.h **** * @brief Initialization status of DIGITAL_IO APP.
  98:D:/Projects/VCU Firmware Main/IRP/Git Repo/VCU14_29bit_overCAN_withIRP_new4g_proto26_adding_All10sec_data/Dave/Generated/DIGITAL_IO\digital_io.h **** */
  99:D:/Projects/VCU Firmware Main/IRP/Git Repo/VCU14_29bit_overCAN_withIRP_new4g_proto26_adding_All10sec_data/Dave/Generated/DIGITAL_IO\digital_io.h **** typedef enum DIGITAL_IO_STATUS
 100:D:/Projects/VCU Firmware Main/IRP/Git Repo/VCU14_29bit_overCAN_withIRP_new4g_proto26_adding_All10sec_data/Dave/Generated/DIGITAL_IO\digital_io.h **** {
 101:D:/Projects/VCU Firmware Main/IRP/Git Repo/VCU14_29bit_overCAN_withIRP_new4g_proto26_adding_All10sec_data/Dave/Generated/DIGITAL_IO\digital_io.h ****   DIGITAL_IO_STATUS_OK = 0U,/**< 0=Status OK */
 102:D:/Projects/VCU Firmware Main/IRP/Git Repo/VCU14_29bit_overCAN_withIRP_new4g_proto26_adding_All10sec_data/Dave/Generated/DIGITAL_IO\digital_io.h ****   DIGITAL_IO_STATUS_FAILURE = 1U/**< 1=Status Failed */
 103:D:/Projects/VCU Firmware Main/IRP/Git Repo/VCU14_29bit_overCAN_withIRP_new4g_proto26_adding_All10sec_data/Dave/Generated/DIGITAL_IO\digital_io.h **** } DIGITAL_IO_STATUS_t;
 104:D:/Projects/VCU Firmware Main/IRP/Git Repo/VCU14_29bit_overCAN_withIRP_new4g_proto26_adding_All10sec_data/Dave/Generated/DIGITAL_IO\digital_io.h **** 
 105:D:/Projects/VCU Firmware Main/IRP/Git Repo/VCU14_29bit_overCAN_withIRP_new4g_proto26_adding_All10sec_data/Dave/Generated/DIGITAL_IO\digital_io.h **** /**
 106:D:/Projects/VCU Firmware Main/IRP/Git Repo/VCU14_29bit_overCAN_withIRP_new4g_proto26_adding_All10sec_data/Dave/Generated/DIGITAL_IO\digital_io.h **** * @}
 107:D:/Projects/VCU Firmware Main/IRP/Git Repo/VCU14_29bit_overCAN_withIRP_new4g_proto26_adding_All10sec_data/Dave/Generated/DIGITAL_IO\digital_io.h **** */
 108:D:/Projects/VCU Firmware Main/IRP/Git Repo/VCU14_29bit_overCAN_withIRP_new4g_proto26_adding_All10sec_data/Dave/Generated/DIGITAL_IO\digital_io.h **** 
 109:D:/Projects/VCU Firmware Main/IRP/Git Repo/VCU14_29bit_overCAN_withIRP_new4g_proto26_adding_All10sec_data/Dave/Generated/DIGITAL_IO\digital_io.h **** /**************************************************************************************************
 110:D:/Projects/VCU Firmware Main/IRP/Git Repo/VCU14_29bit_overCAN_withIRP_new4g_proto26_adding_All10sec_data/Dave/Generated/DIGITAL_IO\digital_io.h ****  * DATA STRUCTURES
 111:D:/Projects/VCU Firmware Main/IRP/Git Repo/VCU14_29bit_overCAN_withIRP_new4g_proto26_adding_All10sec_data/Dave/Generated/DIGITAL_IO\digital_io.h ****  **************************************************************************************************
 112:D:/Projects/VCU Firmware Main/IRP/Git Repo/VCU14_29bit_overCAN_withIRP_new4g_proto26_adding_All10sec_data/Dave/Generated/DIGITAL_IO\digital_io.h **** /**
 113:D:/Projects/VCU Firmware Main/IRP/Git Repo/VCU14_29bit_overCAN_withIRP_new4g_proto26_adding_All10sec_data/Dave/Generated/DIGITAL_IO\digital_io.h **** * @ingroup DIGITAL_IO_datastructures
 114:D:/Projects/VCU Firmware Main/IRP/Git Repo/VCU14_29bit_overCAN_withIRP_new4g_proto26_adding_All10sec_data/Dave/Generated/DIGITAL_IO\digital_io.h **** * @{
 115:D:/Projects/VCU Firmware Main/IRP/Git Repo/VCU14_29bit_overCAN_withIRP_new4g_proto26_adding_All10sec_data/Dave/Generated/DIGITAL_IO\digital_io.h **** */
 116:D:/Projects/VCU Firmware Main/IRP/Git Repo/VCU14_29bit_overCAN_withIRP_new4g_proto26_adding_All10sec_data/Dave/Generated/DIGITAL_IO\digital_io.h **** 
 117:D:/Projects/VCU Firmware Main/IRP/Git Repo/VCU14_29bit_overCAN_withIRP_new4g_proto26_adding_All10sec_data/Dave/Generated/DIGITAL_IO\digital_io.h **** /**
 118:D:/Projects/VCU Firmware Main/IRP/Git Repo/VCU14_29bit_overCAN_withIRP_new4g_proto26_adding_All10sec_data/Dave/Generated/DIGITAL_IO\digital_io.h **** * @brief Initialization data structure of DIGITAL_IO APP
 119:D:/Projects/VCU Firmware Main/IRP/Git Repo/VCU14_29bit_overCAN_withIRP_new4g_proto26_adding_All10sec_data/Dave/Generated/DIGITAL_IO\digital_io.h **** */
 120:D:/Projects/VCU Firmware Main/IRP/Git Repo/VCU14_29bit_overCAN_withIRP_new4g_proto26_adding_All10sec_data/Dave/Generated/DIGITAL_IO\digital_io.h **** typedef struct DIGITAL_IO
 121:D:/Projects/VCU Firmware Main/IRP/Git Repo/VCU14_29bit_overCAN_withIRP_new4g_proto26_adding_All10sec_data/Dave/Generated/DIGITAL_IO\digital_io.h **** {
 122:D:/Projects/VCU Firmware Main/IRP/Git Repo/VCU14_29bit_overCAN_withIRP_new4g_proto26_adding_All10sec_data/Dave/Generated/DIGITAL_IO\digital_io.h ****   XMC_GPIO_PORT_t *const gpio_port;             /**< port number */
 123:D:/Projects/VCU Firmware Main/IRP/Git Repo/VCU14_29bit_overCAN_withIRP_new4g_proto26_adding_All10sec_data/Dave/Generated/DIGITAL_IO\digital_io.h ****   const XMC_GPIO_CONFIG_t gpio_config;          /**< mode, initial output level and pad driver stre
 124:D:/Projects/VCU Firmware Main/IRP/Git Repo/VCU14_29bit_overCAN_withIRP_new4g_proto26_adding_All10sec_data/Dave/Generated/DIGITAL_IO\digital_io.h ****   const uint8_t gpio_pin;                       /**< pin number */
 125:D:/Projects/VCU Firmware Main/IRP/Git Repo/VCU14_29bit_overCAN_withIRP_new4g_proto26_adding_All10sec_data/Dave/Generated/DIGITAL_IO\digital_io.h ****   const XMC_GPIO_HWCTRL_t hwctrl;               /**< Hardware port control */
 126:D:/Projects/VCU Firmware Main/IRP/Git Repo/VCU14_29bit_overCAN_withIRP_new4g_proto26_adding_All10sec_data/Dave/Generated/DIGITAL_IO\digital_io.h **** } DIGITAL_IO_t;
 127:D:/Projects/VCU Firmware Main/IRP/Git Repo/VCU14_29bit_overCAN_withIRP_new4g_proto26_adding_All10sec_data/Dave/Generated/DIGITAL_IO\digital_io.h **** 
 128:D:/Projects/VCU Firmware Main/IRP/Git Repo/VCU14_29bit_overCAN_withIRP_new4g_proto26_adding_All10sec_data/Dave/Generated/DIGITAL_IO\digital_io.h **** 
 129:D:/Projects/VCU Firmware Main/IRP/Git Repo/VCU14_29bit_overCAN_withIRP_new4g_proto26_adding_All10sec_data/Dave/Generated/DIGITAL_IO\digital_io.h **** /**
 130:D:/Projects/VCU Firmware Main/IRP/Git Repo/VCU14_29bit_overCAN_withIRP_new4g_proto26_adding_All10sec_data/Dave/Generated/DIGITAL_IO\digital_io.h **** * @}
 131:D:/Projects/VCU Firmware Main/IRP/Git Repo/VCU14_29bit_overCAN_withIRP_new4g_proto26_adding_All10sec_data/Dave/Generated/DIGITAL_IO\digital_io.h **** */
 132:D:/Projects/VCU Firmware Main/IRP/Git Repo/VCU14_29bit_overCAN_withIRP_new4g_proto26_adding_All10sec_data/Dave/Generated/DIGITAL_IO\digital_io.h **** 
 133:D:/Projects/VCU Firmware Main/IRP/Git Repo/VCU14_29bit_overCAN_withIRP_new4g_proto26_adding_All10sec_data/Dave/Generated/DIGITAL_IO\digital_io.h **** 
 134:D:/Projects/VCU Firmware Main/IRP/Git Repo/VCU14_29bit_overCAN_withIRP_new4g_proto26_adding_All10sec_data/Dave/Generated/DIGITAL_IO\digital_io.h **** /**************************************************************************************************
 135:D:/Projects/VCU Firmware Main/IRP/Git Repo/VCU14_29bit_overCAN_withIRP_new4g_proto26_adding_All10sec_data/Dave/Generated/DIGITAL_IO\digital_io.h ****  * API Prototypes
 136:D:/Projects/VCU Firmware Main/IRP/Git Repo/VCU14_29bit_overCAN_withIRP_new4g_proto26_adding_All10sec_data/Dave/Generated/DIGITAL_IO\digital_io.h ****  **************************************************************************************************
 137:D:/Projects/VCU Firmware Main/IRP/Git Repo/VCU14_29bit_overCAN_withIRP_new4g_proto26_adding_All10sec_data/Dave/Generated/DIGITAL_IO\digital_io.h **** 
 138:D:/Projects/VCU Firmware Main/IRP/Git Repo/VCU14_29bit_overCAN_withIRP_new4g_proto26_adding_All10sec_data/Dave/Generated/DIGITAL_IO\digital_io.h **** 
 139:D:/Projects/VCU Firmware Main/IRP/Git Repo/VCU14_29bit_overCAN_withIRP_new4g_proto26_adding_All10sec_data/Dave/Generated/DIGITAL_IO\digital_io.h **** #ifdef __cplusplus
 140:D:/Projects/VCU Firmware Main/IRP/Git Repo/VCU14_29bit_overCAN_withIRP_new4g_proto26_adding_All10sec_data/Dave/Generated/DIGITAL_IO\digital_io.h **** extern "C" {
 141:D:/Projects/VCU Firmware Main/IRP/Git Repo/VCU14_29bit_overCAN_withIRP_new4g_proto26_adding_All10sec_data/Dave/Generated/DIGITAL_IO\digital_io.h **** #endif
 142:D:/Projects/VCU Firmware Main/IRP/Git Repo/VCU14_29bit_overCAN_withIRP_new4g_proto26_adding_All10sec_data/Dave/Generated/DIGITAL_IO\digital_io.h **** 
 143:D:/Projects/VCU Firmware Main/IRP/Git Repo/VCU14_29bit_overCAN_withIRP_new4g_proto26_adding_All10sec_data/Dave/Generated/DIGITAL_IO\digital_io.h **** /**
 144:D:/Projects/VCU Firmware Main/IRP/Git Repo/VCU14_29bit_overCAN_withIRP_new4g_proto26_adding_All10sec_data/Dave/Generated/DIGITAL_IO\digital_io.h **** * @ingroup DIGITAL_IO_apidoc
 145:D:/Projects/VCU Firmware Main/IRP/Git Repo/VCU14_29bit_overCAN_withIRP_new4g_proto26_adding_All10sec_data/Dave/Generated/DIGITAL_IO\digital_io.h **** * @{
 146:D:/Projects/VCU Firmware Main/IRP/Git Repo/VCU14_29bit_overCAN_withIRP_new4g_proto26_adding_All10sec_data/Dave/Generated/DIGITAL_IO\digital_io.h **** */
 147:D:/Projects/VCU Firmware Main/IRP/Git Repo/VCU14_29bit_overCAN_withIRP_new4g_proto26_adding_All10sec_data/Dave/Generated/DIGITAL_IO\digital_io.h **** 
 148:D:/Projects/VCU Firmware Main/IRP/Git Repo/VCU14_29bit_overCAN_withIRP_new4g_proto26_adding_All10sec_data/Dave/Generated/DIGITAL_IO\digital_io.h **** 
 149:D:/Projects/VCU Firmware Main/IRP/Git Repo/VCU14_29bit_overCAN_withIRP_new4g_proto26_adding_All10sec_data/Dave/Generated/DIGITAL_IO\digital_io.h **** 
 150:D:/Projects/VCU Firmware Main/IRP/Git Repo/VCU14_29bit_overCAN_withIRP_new4g_proto26_adding_All10sec_data/Dave/Generated/DIGITAL_IO\digital_io.h **** /**
 151:D:/Projects/VCU Firmware Main/IRP/Git Repo/VCU14_29bit_overCAN_withIRP_new4g_proto26_adding_All10sec_data/Dave/Generated/DIGITAL_IO\digital_io.h **** * @brief Get DIGITAL_IO APP version
 152:D:/Projects/VCU Firmware Main/IRP/Git Repo/VCU14_29bit_overCAN_withIRP_new4g_proto26_adding_All10sec_data/Dave/Generated/DIGITAL_IO\digital_io.h **** * @return DAVE_APP_VERSION_t APP version information (major, minor and patch number)
 153:D:/Projects/VCU Firmware Main/IRP/Git Repo/VCU14_29bit_overCAN_withIRP_new4g_proto26_adding_All10sec_data/Dave/Generated/DIGITAL_IO\digital_io.h **** *
 154:D:/Projects/VCU Firmware Main/IRP/Git Repo/VCU14_29bit_overCAN_withIRP_new4g_proto26_adding_All10sec_data/Dave/Generated/DIGITAL_IO\digital_io.h **** * \par<b>Description: </b><br>
 155:D:/Projects/VCU Firmware Main/IRP/Git Repo/VCU14_29bit_overCAN_withIRP_new4g_proto26_adding_All10sec_data/Dave/Generated/DIGITAL_IO\digital_io.h **** * The function can be used to check application software compatibility with a
 156:D:/Projects/VCU Firmware Main/IRP/Git Repo/VCU14_29bit_overCAN_withIRP_new4g_proto26_adding_All10sec_data/Dave/Generated/DIGITAL_IO\digital_io.h **** * specific version of the APP.
 157:D:/Projects/VCU Firmware Main/IRP/Git Repo/VCU14_29bit_overCAN_withIRP_new4g_proto26_adding_All10sec_data/Dave/Generated/DIGITAL_IO\digital_io.h **** *
 158:D:/Projects/VCU Firmware Main/IRP/Git Repo/VCU14_29bit_overCAN_withIRP_new4g_proto26_adding_All10sec_data/Dave/Generated/DIGITAL_IO\digital_io.h **** * Example Usage:
 159:D:/Projects/VCU Firmware Main/IRP/Git Repo/VCU14_29bit_overCAN_withIRP_new4g_proto26_adding_All10sec_data/Dave/Generated/DIGITAL_IO\digital_io.h **** *
 160:D:/Projects/VCU Firmware Main/IRP/Git Repo/VCU14_29bit_overCAN_withIRP_new4g_proto26_adding_All10sec_data/Dave/Generated/DIGITAL_IO\digital_io.h **** * @code
 161:D:/Projects/VCU Firmware Main/IRP/Git Repo/VCU14_29bit_overCAN_withIRP_new4g_proto26_adding_All10sec_data/Dave/Generated/DIGITAL_IO\digital_io.h **** * #include "DAVE.h"
 162:D:/Projects/VCU Firmware Main/IRP/Git Repo/VCU14_29bit_overCAN_withIRP_new4g_proto26_adding_All10sec_data/Dave/Generated/DIGITAL_IO\digital_io.h **** *
 163:D:/Projects/VCU Firmware Main/IRP/Git Repo/VCU14_29bit_overCAN_withIRP_new4g_proto26_adding_All10sec_data/Dave/Generated/DIGITAL_IO\digital_io.h **** * int main(void)
 164:D:/Projects/VCU Firmware Main/IRP/Git Repo/VCU14_29bit_overCAN_withIRP_new4g_proto26_adding_All10sec_data/Dave/Generated/DIGITAL_IO\digital_io.h **** * {
 165:D:/Projects/VCU Firmware Main/IRP/Git Repo/VCU14_29bit_overCAN_withIRP_new4g_proto26_adding_All10sec_data/Dave/Generated/DIGITAL_IO\digital_io.h **** *   DAVE_STATUS_t init_status;
 166:D:/Projects/VCU Firmware Main/IRP/Git Repo/VCU14_29bit_overCAN_withIRP_new4g_proto26_adding_All10sec_data/Dave/Generated/DIGITAL_IO\digital_io.h **** *   DAVE_APP_VERSION_t version;
 167:D:/Projects/VCU Firmware Main/IRP/Git Repo/VCU14_29bit_overCAN_withIRP_new4g_proto26_adding_All10sec_data/Dave/Generated/DIGITAL_IO\digital_io.h **** *
 168:D:/Projects/VCU Firmware Main/IRP/Git Repo/VCU14_29bit_overCAN_withIRP_new4g_proto26_adding_All10sec_data/Dave/Generated/DIGITAL_IO\digital_io.h **** *   // Initialize DIGITAL_IO APP:
 169:D:/Projects/VCU Firmware Main/IRP/Git Repo/VCU14_29bit_overCAN_withIRP_new4g_proto26_adding_All10sec_data/Dave/Generated/DIGITAL_IO\digital_io.h **** *   // DIGITAL_IO_Init() is called from within DAVE_Init().
 170:D:/Projects/VCU Firmware Main/IRP/Git Repo/VCU14_29bit_overCAN_withIRP_new4g_proto26_adding_All10sec_data/Dave/Generated/DIGITAL_IO\digital_io.h **** *   init_status = DAVE_Init();
 171:D:/Projects/VCU Firmware Main/IRP/Git Repo/VCU14_29bit_overCAN_withIRP_new4g_proto26_adding_All10sec_data/Dave/Generated/DIGITAL_IO\digital_io.h **** *   if(init_status == DAVE_STATUS_SUCCESS)
 172:D:/Projects/VCU Firmware Main/IRP/Git Repo/VCU14_29bit_overCAN_withIRP_new4g_proto26_adding_All10sec_data/Dave/Generated/DIGITAL_IO\digital_io.h **** *   {
 173:D:/Projects/VCU Firmware Main/IRP/Git Repo/VCU14_29bit_overCAN_withIRP_new4g_proto26_adding_All10sec_data/Dave/Generated/DIGITAL_IO\digital_io.h **** *     version = DIGITAL_IO_GetAppVersion();
 174:D:/Projects/VCU Firmware Main/IRP/Git Repo/VCU14_29bit_overCAN_withIRP_new4g_proto26_adding_All10sec_data/Dave/Generated/DIGITAL_IO\digital_io.h **** *     if (version.major != 4U) {
 175:D:/Projects/VCU Firmware Main/IRP/Git Repo/VCU14_29bit_overCAN_withIRP_new4g_proto26_adding_All10sec_data/Dave/Generated/DIGITAL_IO\digital_io.h **** *     // Probably, not the right version.
 176:D:/Projects/VCU Firmware Main/IRP/Git Repo/VCU14_29bit_overCAN_withIRP_new4g_proto26_adding_All10sec_data/Dave/Generated/DIGITAL_IO\digital_io.h **** *     }
 177:D:/Projects/VCU Firmware Main/IRP/Git Repo/VCU14_29bit_overCAN_withIRP_new4g_proto26_adding_All10sec_data/Dave/Generated/DIGITAL_IO\digital_io.h **** *   }
 178:D:/Projects/VCU Firmware Main/IRP/Git Repo/VCU14_29bit_overCAN_withIRP_new4g_proto26_adding_All10sec_data/Dave/Generated/DIGITAL_IO\digital_io.h **** *
 179:D:/Projects/VCU Firmware Main/IRP/Git Repo/VCU14_29bit_overCAN_withIRP_new4g_proto26_adding_All10sec_data/Dave/Generated/DIGITAL_IO\digital_io.h **** *     // More code here
 180:D:/Projects/VCU Firmware Main/IRP/Git Repo/VCU14_29bit_overCAN_withIRP_new4g_proto26_adding_All10sec_data/Dave/Generated/DIGITAL_IO\digital_io.h **** *     while(1) {
 181:D:/Projects/VCU Firmware Main/IRP/Git Repo/VCU14_29bit_overCAN_withIRP_new4g_proto26_adding_All10sec_data/Dave/Generated/DIGITAL_IO\digital_io.h **** *
 182:D:/Projects/VCU Firmware Main/IRP/Git Repo/VCU14_29bit_overCAN_withIRP_new4g_proto26_adding_All10sec_data/Dave/Generated/DIGITAL_IO\digital_io.h **** *     }
 183:D:/Projects/VCU Firmware Main/IRP/Git Repo/VCU14_29bit_overCAN_withIRP_new4g_proto26_adding_All10sec_data/Dave/Generated/DIGITAL_IO\digital_io.h **** *     return (1);
 184:D:/Projects/VCU Firmware Main/IRP/Git Repo/VCU14_29bit_overCAN_withIRP_new4g_proto26_adding_All10sec_data/Dave/Generated/DIGITAL_IO\digital_io.h **** *  }
 185:D:/Projects/VCU Firmware Main/IRP/Git Repo/VCU14_29bit_overCAN_withIRP_new4g_proto26_adding_All10sec_data/Dave/Generated/DIGITAL_IO\digital_io.h **** * @endcode<BR>
 186:D:/Projects/VCU Firmware Main/IRP/Git Repo/VCU14_29bit_overCAN_withIRP_new4g_proto26_adding_All10sec_data/Dave/Generated/DIGITAL_IO\digital_io.h **** */
 187:D:/Projects/VCU Firmware Main/IRP/Git Repo/VCU14_29bit_overCAN_withIRP_new4g_proto26_adding_All10sec_data/Dave/Generated/DIGITAL_IO\digital_io.h **** 
 188:D:/Projects/VCU Firmware Main/IRP/Git Repo/VCU14_29bit_overCAN_withIRP_new4g_proto26_adding_All10sec_data/Dave/Generated/DIGITAL_IO\digital_io.h **** DAVE_APP_VERSION_t DIGITAL_IO_GetAppVersion(void);
 189:D:/Projects/VCU Firmware Main/IRP/Git Repo/VCU14_29bit_overCAN_withIRP_new4g_proto26_adding_All10sec_data/Dave/Generated/DIGITAL_IO\digital_io.h **** 
 190:D:/Projects/VCU Firmware Main/IRP/Git Repo/VCU14_29bit_overCAN_withIRP_new4g_proto26_adding_All10sec_data/Dave/Generated/DIGITAL_IO\digital_io.h **** /**
 191:D:/Projects/VCU Firmware Main/IRP/Git Repo/VCU14_29bit_overCAN_withIRP_new4g_proto26_adding_All10sec_data/Dave/Generated/DIGITAL_IO\digital_io.h **** *
 192:D:/Projects/VCU Firmware Main/IRP/Git Repo/VCU14_29bit_overCAN_withIRP_new4g_proto26_adding_All10sec_data/Dave/Generated/DIGITAL_IO\digital_io.h **** * @brief Function to initialize the port pin as per UI settings.
 193:D:/Projects/VCU Firmware Main/IRP/Git Repo/VCU14_29bit_overCAN_withIRP_new4g_proto26_adding_All10sec_data/Dave/Generated/DIGITAL_IO\digital_io.h **** * @param handler Pointer pointing to APP data structure. Refer @ref DIGITAL_IO_t for details.
 194:D:/Projects/VCU Firmware Main/IRP/Git Repo/VCU14_29bit_overCAN_withIRP_new4g_proto26_adding_All10sec_data/Dave/Generated/DIGITAL_IO\digital_io.h **** * @return DIGITAL_IO_STATUS_t DIGITAL_IO APP status. Refer @ref DIGITAL_IO_STATUS_t structure for d
 195:D:/Projects/VCU Firmware Main/IRP/Git Repo/VCU14_29bit_overCAN_withIRP_new4g_proto26_adding_All10sec_data/Dave/Generated/DIGITAL_IO\digital_io.h **** *
 196:D:/Projects/VCU Firmware Main/IRP/Git Repo/VCU14_29bit_overCAN_withIRP_new4g_proto26_adding_All10sec_data/Dave/Generated/DIGITAL_IO\digital_io.h **** * \par<b>Description:</b><br>
 197:D:/Projects/VCU Firmware Main/IRP/Git Repo/VCU14_29bit_overCAN_withIRP_new4g_proto26_adding_All10sec_data/Dave/Generated/DIGITAL_IO\digital_io.h **** * This function initializes GPIO port registers IOCR,PDISC,OMR,PDR/PHCR to configure pin direction,
 198:D:/Projects/VCU Firmware Main/IRP/Git Repo/VCU14_29bit_overCAN_withIRP_new4g_proto26_adding_All10sec_data/Dave/Generated/DIGITAL_IO\digital_io.h **** * and pad driver strength/hysteresis.
 199:D:/Projects/VCU Firmware Main/IRP/Git Repo/VCU14_29bit_overCAN_withIRP_new4g_proto26_adding_All10sec_data/Dave/Generated/DIGITAL_IO\digital_io.h **** *
 200:D:/Projects/VCU Firmware Main/IRP/Git Repo/VCU14_29bit_overCAN_withIRP_new4g_proto26_adding_All10sec_data/Dave/Generated/DIGITAL_IO\digital_io.h **** * \par<b>Related APIs:</b><BR>
 201:D:/Projects/VCU Firmware Main/IRP/Git Repo/VCU14_29bit_overCAN_withIRP_new4g_proto26_adding_All10sec_data/Dave/Generated/DIGITAL_IO\digital_io.h **** * None
 202:D:/Projects/VCU Firmware Main/IRP/Git Repo/VCU14_29bit_overCAN_withIRP_new4g_proto26_adding_All10sec_data/Dave/Generated/DIGITAL_IO\digital_io.h **** *
 203:D:/Projects/VCU Firmware Main/IRP/Git Repo/VCU14_29bit_overCAN_withIRP_new4g_proto26_adding_All10sec_data/Dave/Generated/DIGITAL_IO\digital_io.h **** * Example Usage:
 204:D:/Projects/VCU Firmware Main/IRP/Git Repo/VCU14_29bit_overCAN_withIRP_new4g_proto26_adding_All10sec_data/Dave/Generated/DIGITAL_IO\digital_io.h **** * @code
 205:D:/Projects/VCU Firmware Main/IRP/Git Repo/VCU14_29bit_overCAN_withIRP_new4g_proto26_adding_All10sec_data/Dave/Generated/DIGITAL_IO\digital_io.h **** * #include "DAVE.h" //Declarations from DAVE Code Generation (includes SFR declaration)
 206:D:/Projects/VCU Firmware Main/IRP/Git Repo/VCU14_29bit_overCAN_withIRP_new4g_proto26_adding_All10sec_data/Dave/Generated/DIGITAL_IO\digital_io.h **** *
 207:D:/Projects/VCU Firmware Main/IRP/Git Repo/VCU14_29bit_overCAN_withIRP_new4g_proto26_adding_All10sec_data/Dave/Generated/DIGITAL_IO\digital_io.h **** * int main(void)
 208:D:/Projects/VCU Firmware Main/IRP/Git Repo/VCU14_29bit_overCAN_withIRP_new4g_proto26_adding_All10sec_data/Dave/Generated/DIGITAL_IO\digital_io.h **** * {
 209:D:/Projects/VCU Firmware Main/IRP/Git Repo/VCU14_29bit_overCAN_withIRP_new4g_proto26_adding_All10sec_data/Dave/Generated/DIGITAL_IO\digital_io.h **** *   DAVE_STATUS_t status;
 210:D:/Projects/VCU Firmware Main/IRP/Git Repo/VCU14_29bit_overCAN_withIRP_new4g_proto26_adding_All10sec_data/Dave/Generated/DIGITAL_IO\digital_io.h **** *   status = DAVE_Init();  //(DAVE_STATUS_t)DIGITAL_IO_Init(&DIGITAL_IO_0) is called within DAVE_In
 211:D:/Projects/VCU Firmware Main/IRP/Git Repo/VCU14_29bit_overCAN_withIRP_new4g_proto26_adding_All10sec_data/Dave/Generated/DIGITAL_IO\digital_io.h **** *   if(status == DAVE_STATUS_SUCCESS)
 212:D:/Projects/VCU Firmware Main/IRP/Git Repo/VCU14_29bit_overCAN_withIRP_new4g_proto26_adding_All10sec_data/Dave/Generated/DIGITAL_IO\digital_io.h **** *   {
 213:D:/Projects/VCU Firmware Main/IRP/Git Repo/VCU14_29bit_overCAN_withIRP_new4g_proto26_adding_All10sec_data/Dave/Generated/DIGITAL_IO\digital_io.h **** *     XMC_DEBUG("DAVE Apps initialization success\n");
 214:D:/Projects/VCU Firmware Main/IRP/Git Repo/VCU14_29bit_overCAN_withIRP_new4g_proto26_adding_All10sec_data/Dave/Generated/DIGITAL_IO\digital_io.h **** *   }
 215:D:/Projects/VCU Firmware Main/IRP/Git Repo/VCU14_29bit_overCAN_withIRP_new4g_proto26_adding_All10sec_data/Dave/Generated/DIGITAL_IO\digital_io.h **** *   else
 216:D:/Projects/VCU Firmware Main/IRP/Git Repo/VCU14_29bit_overCAN_withIRP_new4g_proto26_adding_All10sec_data/Dave/Generated/DIGITAL_IO\digital_io.h **** *   {
 217:D:/Projects/VCU Firmware Main/IRP/Git Repo/VCU14_29bit_overCAN_withIRP_new4g_proto26_adding_All10sec_data/Dave/Generated/DIGITAL_IO\digital_io.h **** *     XMC_DEBUG(("DAVE Apps initialization failed with status %d\n", status));
 218:D:/Projects/VCU Firmware Main/IRP/Git Repo/VCU14_29bit_overCAN_withIRP_new4g_proto26_adding_All10sec_data/Dave/Generated/DIGITAL_IO\digital_io.h **** *     while(1U)
 219:D:/Projects/VCU Firmware Main/IRP/Git Repo/VCU14_29bit_overCAN_withIRP_new4g_proto26_adding_All10sec_data/Dave/Generated/DIGITAL_IO\digital_io.h **** *     {
 220:D:/Projects/VCU Firmware Main/IRP/Git Repo/VCU14_29bit_overCAN_withIRP_new4g_proto26_adding_All10sec_data/Dave/Generated/DIGITAL_IO\digital_io.h **** *     }
 221:D:/Projects/VCU Firmware Main/IRP/Git Repo/VCU14_29bit_overCAN_withIRP_new4g_proto26_adding_All10sec_data/Dave/Generated/DIGITAL_IO\digital_io.h **** *   }
 222:D:/Projects/VCU Firmware Main/IRP/Git Repo/VCU14_29bit_overCAN_withIRP_new4g_proto26_adding_All10sec_data/Dave/Generated/DIGITAL_IO\digital_io.h **** *   //Placeholder for user application code. The while loop below can be replaced with user applica
 223:D:/Projects/VCU Firmware Main/IRP/Git Repo/VCU14_29bit_overCAN_withIRP_new4g_proto26_adding_All10sec_data/Dave/Generated/DIGITAL_IO\digital_io.h **** *   while(1U)
 224:D:/Projects/VCU Firmware Main/IRP/Git Repo/VCU14_29bit_overCAN_withIRP_new4g_proto26_adding_All10sec_data/Dave/Generated/DIGITAL_IO\digital_io.h **** *   {
 225:D:/Projects/VCU Firmware Main/IRP/Git Repo/VCU14_29bit_overCAN_withIRP_new4g_proto26_adding_All10sec_data/Dave/Generated/DIGITAL_IO\digital_io.h **** *   }
 226:D:/Projects/VCU Firmware Main/IRP/Git Repo/VCU14_29bit_overCAN_withIRP_new4g_proto26_adding_All10sec_data/Dave/Generated/DIGITAL_IO\digital_io.h **** *   return 1U;
 227:D:/Projects/VCU Firmware Main/IRP/Git Repo/VCU14_29bit_overCAN_withIRP_new4g_proto26_adding_All10sec_data/Dave/Generated/DIGITAL_IO\digital_io.h **** *  }
 228:D:/Projects/VCU Firmware Main/IRP/Git Repo/VCU14_29bit_overCAN_withIRP_new4g_proto26_adding_All10sec_data/Dave/Generated/DIGITAL_IO\digital_io.h **** *  @endcode
 229:D:/Projects/VCU Firmware Main/IRP/Git Repo/VCU14_29bit_overCAN_withIRP_new4g_proto26_adding_All10sec_data/Dave/Generated/DIGITAL_IO\digital_io.h **** */
 230:D:/Projects/VCU Firmware Main/IRP/Git Repo/VCU14_29bit_overCAN_withIRP_new4g_proto26_adding_All10sec_data/Dave/Generated/DIGITAL_IO\digital_io.h **** 
 231:D:/Projects/VCU Firmware Main/IRP/Git Repo/VCU14_29bit_overCAN_withIRP_new4g_proto26_adding_All10sec_data/Dave/Generated/DIGITAL_IO\digital_io.h **** DIGITAL_IO_STATUS_t DIGITAL_IO_Init(const DIGITAL_IO_t *const handler);
 232:D:/Projects/VCU Firmware Main/IRP/Git Repo/VCU14_29bit_overCAN_withIRP_new4g_proto26_adding_All10sec_data/Dave/Generated/DIGITAL_IO\digital_io.h **** 
 233:D:/Projects/VCU Firmware Main/IRP/Git Repo/VCU14_29bit_overCAN_withIRP_new4g_proto26_adding_All10sec_data/Dave/Generated/DIGITAL_IO\digital_io.h **** /**
 234:D:/Projects/VCU Firmware Main/IRP/Git Repo/VCU14_29bit_overCAN_withIRP_new4g_proto26_adding_All10sec_data/Dave/Generated/DIGITAL_IO\digital_io.h **** *
 235:D:/Projects/VCU Firmware Main/IRP/Git Repo/VCU14_29bit_overCAN_withIRP_new4g_proto26_adding_All10sec_data/Dave/Generated/DIGITAL_IO\digital_io.h **** * @brief Function to set port pin high.
 236:D:/Projects/VCU Firmware Main/IRP/Git Repo/VCU14_29bit_overCAN_withIRP_new4g_proto26_adding_All10sec_data/Dave/Generated/DIGITAL_IO\digital_io.h **** * @param handler Pointer pointing to APP data structure. Refer @ref DIGITAL_IO_t for details.
 237:D:/Projects/VCU Firmware Main/IRP/Git Repo/VCU14_29bit_overCAN_withIRP_new4g_proto26_adding_All10sec_data/Dave/Generated/DIGITAL_IO\digital_io.h **** * @return None
 238:D:/Projects/VCU Firmware Main/IRP/Git Repo/VCU14_29bit_overCAN_withIRP_new4g_proto26_adding_All10sec_data/Dave/Generated/DIGITAL_IO\digital_io.h **** *
 239:D:/Projects/VCU Firmware Main/IRP/Git Repo/VCU14_29bit_overCAN_withIRP_new4g_proto26_adding_All10sec_data/Dave/Generated/DIGITAL_IO\digital_io.h **** * \par<b>Description:</b><br>
 240:D:/Projects/VCU Firmware Main/IRP/Git Repo/VCU14_29bit_overCAN_withIRP_new4g_proto26_adding_All10sec_data/Dave/Generated/DIGITAL_IO\digital_io.h **** * This function configures port output modification register Pn_OMR, to make port pin to high level
 241:D:/Projects/VCU Firmware Main/IRP/Git Repo/VCU14_29bit_overCAN_withIRP_new4g_proto26_adding_All10sec_data/Dave/Generated/DIGITAL_IO\digital_io.h **** *
 242:D:/Projects/VCU Firmware Main/IRP/Git Repo/VCU14_29bit_overCAN_withIRP_new4g_proto26_adding_All10sec_data/Dave/Generated/DIGITAL_IO\digital_io.h **** * \par<b>Related APIs:</b><BR>
 243:D:/Projects/VCU Firmware Main/IRP/Git Repo/VCU14_29bit_overCAN_withIRP_new4g_proto26_adding_All10sec_data/Dave/Generated/DIGITAL_IO\digital_io.h **** *  DIGITAL_IO_SetOutputLow()
 244:D:/Projects/VCU Firmware Main/IRP/Git Repo/VCU14_29bit_overCAN_withIRP_new4g_proto26_adding_All10sec_data/Dave/Generated/DIGITAL_IO\digital_io.h **** *
 245:D:/Projects/VCU Firmware Main/IRP/Git Repo/VCU14_29bit_overCAN_withIRP_new4g_proto26_adding_All10sec_data/Dave/Generated/DIGITAL_IO\digital_io.h **** * Example Usage:
 246:D:/Projects/VCU Firmware Main/IRP/Git Repo/VCU14_29bit_overCAN_withIRP_new4g_proto26_adding_All10sec_data/Dave/Generated/DIGITAL_IO\digital_io.h **** * @code
 247:D:/Projects/VCU Firmware Main/IRP/Git Repo/VCU14_29bit_overCAN_withIRP_new4g_proto26_adding_All10sec_data/Dave/Generated/DIGITAL_IO\digital_io.h **** * #include "DAVE.h" //Declarations from DAVE Code Generation (includes SFR declaration)
 248:D:/Projects/VCU Firmware Main/IRP/Git Repo/VCU14_29bit_overCAN_withIRP_new4g_proto26_adding_All10sec_data/Dave/Generated/DIGITAL_IO\digital_io.h **** *
 249:D:/Projects/VCU Firmware Main/IRP/Git Repo/VCU14_29bit_overCAN_withIRP_new4g_proto26_adding_All10sec_data/Dave/Generated/DIGITAL_IO\digital_io.h **** * int main(void)
 250:D:/Projects/VCU Firmware Main/IRP/Git Repo/VCU14_29bit_overCAN_withIRP_new4g_proto26_adding_All10sec_data/Dave/Generated/DIGITAL_IO\digital_io.h **** * {
 251:D:/Projects/VCU Firmware Main/IRP/Git Repo/VCU14_29bit_overCAN_withIRP_new4g_proto26_adding_All10sec_data/Dave/Generated/DIGITAL_IO\digital_io.h **** *   DAVE_STATUS_t status;
 252:D:/Projects/VCU Firmware Main/IRP/Git Repo/VCU14_29bit_overCAN_withIRP_new4g_proto26_adding_All10sec_data/Dave/Generated/DIGITAL_IO\digital_io.h **** *   status = DAVE_Init();  //(DAVE_STATUS_t)DIGITAL_IO_Init(&DIGITAL_IO_0) is called within DAVE_In
 253:D:/Projects/VCU Firmware Main/IRP/Git Repo/VCU14_29bit_overCAN_withIRP_new4g_proto26_adding_All10sec_data/Dave/Generated/DIGITAL_IO\digital_io.h **** *   if(status == DAVE_STATUS_SUCCESS)
 254:D:/Projects/VCU Firmware Main/IRP/Git Repo/VCU14_29bit_overCAN_withIRP_new4g_proto26_adding_All10sec_data/Dave/Generated/DIGITAL_IO\digital_io.h **** *   {
 255:D:/Projects/VCU Firmware Main/IRP/Git Repo/VCU14_29bit_overCAN_withIRP_new4g_proto26_adding_All10sec_data/Dave/Generated/DIGITAL_IO\digital_io.h **** *     XMC_DEBUG("DAVE Apps initialization success\n");
 256:D:/Projects/VCU Firmware Main/IRP/Git Repo/VCU14_29bit_overCAN_withIRP_new4g_proto26_adding_All10sec_data/Dave/Generated/DIGITAL_IO\digital_io.h **** *   }
 257:D:/Projects/VCU Firmware Main/IRP/Git Repo/VCU14_29bit_overCAN_withIRP_new4g_proto26_adding_All10sec_data/Dave/Generated/DIGITAL_IO\digital_io.h **** *   else
 258:D:/Projects/VCU Firmware Main/IRP/Git Repo/VCU14_29bit_overCAN_withIRP_new4g_proto26_adding_All10sec_data/Dave/Generated/DIGITAL_IO\digital_io.h **** *   {
 259:D:/Projects/VCU Firmware Main/IRP/Git Repo/VCU14_29bit_overCAN_withIRP_new4g_proto26_adding_All10sec_data/Dave/Generated/DIGITAL_IO\digital_io.h **** *     XMC_DEBUG(("DAVE Apps initialization failed with status %d\n", status));
 260:D:/Projects/VCU Firmware Main/IRP/Git Repo/VCU14_29bit_overCAN_withIRP_new4g_proto26_adding_All10sec_data/Dave/Generated/DIGITAL_IO\digital_io.h **** *     while(1U)
 261:D:/Projects/VCU Firmware Main/IRP/Git Repo/VCU14_29bit_overCAN_withIRP_new4g_proto26_adding_All10sec_data/Dave/Generated/DIGITAL_IO\digital_io.h **** *     {
 262:D:/Projects/VCU Firmware Main/IRP/Git Repo/VCU14_29bit_overCAN_withIRP_new4g_proto26_adding_All10sec_data/Dave/Generated/DIGITAL_IO\digital_io.h **** *     }
 263:D:/Projects/VCU Firmware Main/IRP/Git Repo/VCU14_29bit_overCAN_withIRP_new4g_proto26_adding_All10sec_data/Dave/Generated/DIGITAL_IO\digital_io.h **** *   }
 264:D:/Projects/VCU Firmware Main/IRP/Git Repo/VCU14_29bit_overCAN_withIRP_new4g_proto26_adding_All10sec_data/Dave/Generated/DIGITAL_IO\digital_io.h **** *   //Placeholder for user application code. The while loop below can be replaced with user applica
 265:D:/Projects/VCU Firmware Main/IRP/Git Repo/VCU14_29bit_overCAN_withIRP_new4g_proto26_adding_All10sec_data/Dave/Generated/DIGITAL_IO\digital_io.h **** *   DIGITAL_IO_SetOutputHigh(&DIGITAL_IO_0);
 266:D:/Projects/VCU Firmware Main/IRP/Git Repo/VCU14_29bit_overCAN_withIRP_new4g_proto26_adding_All10sec_data/Dave/Generated/DIGITAL_IO\digital_io.h **** *   while(1U)
 267:D:/Projects/VCU Firmware Main/IRP/Git Repo/VCU14_29bit_overCAN_withIRP_new4g_proto26_adding_All10sec_data/Dave/Generated/DIGITAL_IO\digital_io.h **** *   {
 268:D:/Projects/VCU Firmware Main/IRP/Git Repo/VCU14_29bit_overCAN_withIRP_new4g_proto26_adding_All10sec_data/Dave/Generated/DIGITAL_IO\digital_io.h **** *     // Add application code here
 269:D:/Projects/VCU Firmware Main/IRP/Git Repo/VCU14_29bit_overCAN_withIRP_new4g_proto26_adding_All10sec_data/Dave/Generated/DIGITAL_IO\digital_io.h **** *   }
 270:D:/Projects/VCU Firmware Main/IRP/Git Repo/VCU14_29bit_overCAN_withIRP_new4g_proto26_adding_All10sec_data/Dave/Generated/DIGITAL_IO\digital_io.h **** *
 271:D:/Projects/VCU Firmware Main/IRP/Git Repo/VCU14_29bit_overCAN_withIRP_new4g_proto26_adding_All10sec_data/Dave/Generated/DIGITAL_IO\digital_io.h **** *   return (1);
 272:D:/Projects/VCU Firmware Main/IRP/Git Repo/VCU14_29bit_overCAN_withIRP_new4g_proto26_adding_All10sec_data/Dave/Generated/DIGITAL_IO\digital_io.h **** * }
 273:D:/Projects/VCU Firmware Main/IRP/Git Repo/VCU14_29bit_overCAN_withIRP_new4g_proto26_adding_All10sec_data/Dave/Generated/DIGITAL_IO\digital_io.h **** *  @endcode
 274:D:/Projects/VCU Firmware Main/IRP/Git Repo/VCU14_29bit_overCAN_withIRP_new4g_proto26_adding_All10sec_data/Dave/Generated/DIGITAL_IO\digital_io.h **** */
 275:D:/Projects/VCU Firmware Main/IRP/Git Repo/VCU14_29bit_overCAN_withIRP_new4g_proto26_adding_All10sec_data/Dave/Generated/DIGITAL_IO\digital_io.h **** 
 276:D:/Projects/VCU Firmware Main/IRP/Git Repo/VCU14_29bit_overCAN_withIRP_new4g_proto26_adding_All10sec_data/Dave/Generated/DIGITAL_IO\digital_io.h **** __STATIC_INLINE void DIGITAL_IO_SetOutputHigh(const DIGITAL_IO_t *const handler)
 277:D:/Projects/VCU Firmware Main/IRP/Git Repo/VCU14_29bit_overCAN_withIRP_new4g_proto26_adding_All10sec_data/Dave/Generated/DIGITAL_IO\digital_io.h **** {
 122              	 .loc 2 277 0
 123              	 .cfi_startproc
 124              	 
 125              	 
 126 0000 80B5     	 push {r7,lr}
 127              	.LCFI12:
 128              	 .cfi_def_cfa_offset 8
 129              	 .cfi_offset 7,-8
 130              	 .cfi_offset 14,-4
 131 0002 82B0     	 sub sp,sp,#8
 132              	.LCFI13:
 133              	 .cfi_def_cfa_offset 16
 134 0004 00AF     	 add r7,sp,#0
 135              	.LCFI14:
 136              	 .cfi_def_cfa_register 7
 137 0006 7860     	 str r0,[r7,#4]
 278:D:/Projects/VCU Firmware Main/IRP/Git Repo/VCU14_29bit_overCAN_withIRP_new4g_proto26_adding_All10sec_data/Dave/Generated/DIGITAL_IO\digital_io.h ****   XMC_ASSERT("DIGITAL_IO_SetOutputHigh: handler null pointer", handler != NULL);
 279:D:/Projects/VCU Firmware Main/IRP/Git Repo/VCU14_29bit_overCAN_withIRP_new4g_proto26_adding_All10sec_data/Dave/Generated/DIGITAL_IO\digital_io.h ****   XMC_GPIO_SetOutputHigh(handler->gpio_port, handler->gpio_pin);
 138              	 .loc 2 279 0
 139 0008 7B68     	 ldr r3,[r7,#4]
 140 000a 1A68     	 ldr r2,[r3]
 141 000c 7B68     	 ldr r3,[r7,#4]
 142 000e 1B7C     	 ldrb r3,[r3,#16]
 143 0010 1046     	 mov r0,r2
 144 0012 1946     	 mov r1,r3
 145 0014 FFF7FEFF 	 bl XMC_GPIO_SetOutputHigh
 280:D:/Projects/VCU Firmware Main/IRP/Git Repo/VCU14_29bit_overCAN_withIRP_new4g_proto26_adding_All10sec_data/Dave/Generated/DIGITAL_IO\digital_io.h **** }
 146              	 .loc 2 280 0
 147 0018 0837     	 adds r7,r7,#8
 148              	.LCFI15:
 149              	 .cfi_def_cfa_offset 8
 150 001a BD46     	 mov sp,r7
 151              	.LCFI16:
 152              	 .cfi_def_cfa_register 13
 153              	 
 154 001c 80BD     	 pop {r7,pc}
 155              	 .cfi_endproc
 156              	.LFE143:
 158 001e 00BF     	 .section .text.DIGITAL_IO_SetOutputLow,"ax",%progbits
 159              	 .align 2
 160              	 .thumb
 161              	 .thumb_func
 163              	DIGITAL_IO_SetOutputLow:
 164              	.LFB144:
 281:D:/Projects/VCU Firmware Main/IRP/Git Repo/VCU14_29bit_overCAN_withIRP_new4g_proto26_adding_All10sec_data/Dave/Generated/DIGITAL_IO\digital_io.h **** 
 282:D:/Projects/VCU Firmware Main/IRP/Git Repo/VCU14_29bit_overCAN_withIRP_new4g_proto26_adding_All10sec_data/Dave/Generated/DIGITAL_IO\digital_io.h **** /**
 283:D:/Projects/VCU Firmware Main/IRP/Git Repo/VCU14_29bit_overCAN_withIRP_new4g_proto26_adding_All10sec_data/Dave/Generated/DIGITAL_IO\digital_io.h **** * @brief Function to reset port pin.
 284:D:/Projects/VCU Firmware Main/IRP/Git Repo/VCU14_29bit_overCAN_withIRP_new4g_proto26_adding_All10sec_data/Dave/Generated/DIGITAL_IO\digital_io.h **** * @param handler Pointer pointing to APP data structure. Refer @ref DIGITAL_IO_t for details.
 285:D:/Projects/VCU Firmware Main/IRP/Git Repo/VCU14_29bit_overCAN_withIRP_new4g_proto26_adding_All10sec_data/Dave/Generated/DIGITAL_IO\digital_io.h **** * @return None
 286:D:/Projects/VCU Firmware Main/IRP/Git Repo/VCU14_29bit_overCAN_withIRP_new4g_proto26_adding_All10sec_data/Dave/Generated/DIGITAL_IO\digital_io.h **** *
 287:D:/Projects/VCU Firmware Main/IRP/Git Repo/VCU14_29bit_overCAN_withIRP_new4g_proto26_adding_All10sec_data/Dave/Generated/DIGITAL_IO\digital_io.h **** * \par<b>Description:</b><br>
 288:D:/Projects/VCU Firmware Main/IRP/Git Repo/VCU14_29bit_overCAN_withIRP_new4g_proto26_adding_All10sec_data/Dave/Generated/DIGITAL_IO\digital_io.h **** * This function configures port output modification register Pn_OMR, to make port pin to low level.
 289:D:/Projects/VCU Firmware Main/IRP/Git Repo/VCU14_29bit_overCAN_withIRP_new4g_proto26_adding_All10sec_data/Dave/Generated/DIGITAL_IO\digital_io.h **** *
 290:D:/Projects/VCU Firmware Main/IRP/Git Repo/VCU14_29bit_overCAN_withIRP_new4g_proto26_adding_All10sec_data/Dave/Generated/DIGITAL_IO\digital_io.h **** * \par<b>Related APIs:</b><BR>
 291:D:/Projects/VCU Firmware Main/IRP/Git Repo/VCU14_29bit_overCAN_withIRP_new4g_proto26_adding_All10sec_data/Dave/Generated/DIGITAL_IO\digital_io.h **** * DIGITAL_IO_SetOutputHigh()
 292:D:/Projects/VCU Firmware Main/IRP/Git Repo/VCU14_29bit_overCAN_withIRP_new4g_proto26_adding_All10sec_data/Dave/Generated/DIGITAL_IO\digital_io.h **** *
 293:D:/Projects/VCU Firmware Main/IRP/Git Repo/VCU14_29bit_overCAN_withIRP_new4g_proto26_adding_All10sec_data/Dave/Generated/DIGITAL_IO\digital_io.h **** * Example Usage:
 294:D:/Projects/VCU Firmware Main/IRP/Git Repo/VCU14_29bit_overCAN_withIRP_new4g_proto26_adding_All10sec_data/Dave/Generated/DIGITAL_IO\digital_io.h **** * @code
 295:D:/Projects/VCU Firmware Main/IRP/Git Repo/VCU14_29bit_overCAN_withIRP_new4g_proto26_adding_All10sec_data/Dave/Generated/DIGITAL_IO\digital_io.h **** *  #include "DAVE.h" //Declarations from DAVE Code Generation (includes SFR declaration)
 296:D:/Projects/VCU Firmware Main/IRP/Git Repo/VCU14_29bit_overCAN_withIRP_new4g_proto26_adding_All10sec_data/Dave/Generated/DIGITAL_IO\digital_io.h **** *
 297:D:/Projects/VCU Firmware Main/IRP/Git Repo/VCU14_29bit_overCAN_withIRP_new4g_proto26_adding_All10sec_data/Dave/Generated/DIGITAL_IO\digital_io.h **** *  int main(void)
 298:D:/Projects/VCU Firmware Main/IRP/Git Repo/VCU14_29bit_overCAN_withIRP_new4g_proto26_adding_All10sec_data/Dave/Generated/DIGITAL_IO\digital_io.h **** *  {
 299:D:/Projects/VCU Firmware Main/IRP/Git Repo/VCU14_29bit_overCAN_withIRP_new4g_proto26_adding_All10sec_data/Dave/Generated/DIGITAL_IO\digital_io.h **** *    DAVE_STATUS_t status;
 300:D:/Projects/VCU Firmware Main/IRP/Git Repo/VCU14_29bit_overCAN_withIRP_new4g_proto26_adding_All10sec_data/Dave/Generated/DIGITAL_IO\digital_io.h **** *    status = DAVE_Init();  //(DAVE_STATUS_t)DIGITAL_IO_Init(&DIGITAL_IO_0) is called within DAVE_I
 301:D:/Projects/VCU Firmware Main/IRP/Git Repo/VCU14_29bit_overCAN_withIRP_new4g_proto26_adding_All10sec_data/Dave/Generated/DIGITAL_IO\digital_io.h **** *    if(status == DAVE_STATUS_SUCCESS)
 302:D:/Projects/VCU Firmware Main/IRP/Git Repo/VCU14_29bit_overCAN_withIRP_new4g_proto26_adding_All10sec_data/Dave/Generated/DIGITAL_IO\digital_io.h **** *    {
 303:D:/Projects/VCU Firmware Main/IRP/Git Repo/VCU14_29bit_overCAN_withIRP_new4g_proto26_adding_All10sec_data/Dave/Generated/DIGITAL_IO\digital_io.h **** *      XMC_DEBUG("DAVE Apps initialization success\n");
 304:D:/Projects/VCU Firmware Main/IRP/Git Repo/VCU14_29bit_overCAN_withIRP_new4g_proto26_adding_All10sec_data/Dave/Generated/DIGITAL_IO\digital_io.h **** *    }
 305:D:/Projects/VCU Firmware Main/IRP/Git Repo/VCU14_29bit_overCAN_withIRP_new4g_proto26_adding_All10sec_data/Dave/Generated/DIGITAL_IO\digital_io.h **** *    else
 306:D:/Projects/VCU Firmware Main/IRP/Git Repo/VCU14_29bit_overCAN_withIRP_new4g_proto26_adding_All10sec_data/Dave/Generated/DIGITAL_IO\digital_io.h **** *    {
 307:D:/Projects/VCU Firmware Main/IRP/Git Repo/VCU14_29bit_overCAN_withIRP_new4g_proto26_adding_All10sec_data/Dave/Generated/DIGITAL_IO\digital_io.h **** *      XMC_DEBUG(("DAVE Apps initialization failed with status %d\n", status));
 308:D:/Projects/VCU Firmware Main/IRP/Git Repo/VCU14_29bit_overCAN_withIRP_new4g_proto26_adding_All10sec_data/Dave/Generated/DIGITAL_IO\digital_io.h **** *      while(1U)
 309:D:/Projects/VCU Firmware Main/IRP/Git Repo/VCU14_29bit_overCAN_withIRP_new4g_proto26_adding_All10sec_data/Dave/Generated/DIGITAL_IO\digital_io.h **** *      {
 310:D:/Projects/VCU Firmware Main/IRP/Git Repo/VCU14_29bit_overCAN_withIRP_new4g_proto26_adding_All10sec_data/Dave/Generated/DIGITAL_IO\digital_io.h **** *      }
 311:D:/Projects/VCU Firmware Main/IRP/Git Repo/VCU14_29bit_overCAN_withIRP_new4g_proto26_adding_All10sec_data/Dave/Generated/DIGITAL_IO\digital_io.h **** *    }
 312:D:/Projects/VCU Firmware Main/IRP/Git Repo/VCU14_29bit_overCAN_withIRP_new4g_proto26_adding_All10sec_data/Dave/Generated/DIGITAL_IO\digital_io.h **** *    //Placeholder for user application code. The while loop below can be replaced with user applic
 313:D:/Projects/VCU Firmware Main/IRP/Git Repo/VCU14_29bit_overCAN_withIRP_new4g_proto26_adding_All10sec_data/Dave/Generated/DIGITAL_IO\digital_io.h **** *    DIGITAL_IO_SetOutputLow(&DIGITAL_IO_0);
 314:D:/Projects/VCU Firmware Main/IRP/Git Repo/VCU14_29bit_overCAN_withIRP_new4g_proto26_adding_All10sec_data/Dave/Generated/DIGITAL_IO\digital_io.h **** *    while(1U)
 315:D:/Projects/VCU Firmware Main/IRP/Git Repo/VCU14_29bit_overCAN_withIRP_new4g_proto26_adding_All10sec_data/Dave/Generated/DIGITAL_IO\digital_io.h **** *    {
 316:D:/Projects/VCU Firmware Main/IRP/Git Repo/VCU14_29bit_overCAN_withIRP_new4g_proto26_adding_All10sec_data/Dave/Generated/DIGITAL_IO\digital_io.h **** *      // Add application code here
 317:D:/Projects/VCU Firmware Main/IRP/Git Repo/VCU14_29bit_overCAN_withIRP_new4g_proto26_adding_All10sec_data/Dave/Generated/DIGITAL_IO\digital_io.h **** *    }
 318:D:/Projects/VCU Firmware Main/IRP/Git Repo/VCU14_29bit_overCAN_withIRP_new4g_proto26_adding_All10sec_data/Dave/Generated/DIGITAL_IO\digital_io.h **** *
 319:D:/Projects/VCU Firmware Main/IRP/Git Repo/VCU14_29bit_overCAN_withIRP_new4g_proto26_adding_All10sec_data/Dave/Generated/DIGITAL_IO\digital_io.h **** *   return (1);
 320:D:/Projects/VCU Firmware Main/IRP/Git Repo/VCU14_29bit_overCAN_withIRP_new4g_proto26_adding_All10sec_data/Dave/Generated/DIGITAL_IO\digital_io.h **** * }
 321:D:/Projects/VCU Firmware Main/IRP/Git Repo/VCU14_29bit_overCAN_withIRP_new4g_proto26_adding_All10sec_data/Dave/Generated/DIGITAL_IO\digital_io.h **** *  @endcode
 322:D:/Projects/VCU Firmware Main/IRP/Git Repo/VCU14_29bit_overCAN_withIRP_new4g_proto26_adding_All10sec_data/Dave/Generated/DIGITAL_IO\digital_io.h **** */
 323:D:/Projects/VCU Firmware Main/IRP/Git Repo/VCU14_29bit_overCAN_withIRP_new4g_proto26_adding_All10sec_data/Dave/Generated/DIGITAL_IO\digital_io.h **** 
 324:D:/Projects/VCU Firmware Main/IRP/Git Repo/VCU14_29bit_overCAN_withIRP_new4g_proto26_adding_All10sec_data/Dave/Generated/DIGITAL_IO\digital_io.h **** __STATIC_INLINE void DIGITAL_IO_SetOutputLow(const DIGITAL_IO_t *const handler)
 325:D:/Projects/VCU Firmware Main/IRP/Git Repo/VCU14_29bit_overCAN_withIRP_new4g_proto26_adding_All10sec_data/Dave/Generated/DIGITAL_IO\digital_io.h **** {
 165              	 .loc 2 325 0
 166              	 .cfi_startproc
 167              	 
 168              	 
 169 0000 80B5     	 push {r7,lr}
 170              	.LCFI17:
 171              	 .cfi_def_cfa_offset 8
 172              	 .cfi_offset 7,-8
 173              	 .cfi_offset 14,-4
 174 0002 82B0     	 sub sp,sp,#8
 175              	.LCFI18:
 176              	 .cfi_def_cfa_offset 16
 177 0004 00AF     	 add r7,sp,#0
 178              	.LCFI19:
 179              	 .cfi_def_cfa_register 7
 180 0006 7860     	 str r0,[r7,#4]
 326:D:/Projects/VCU Firmware Main/IRP/Git Repo/VCU14_29bit_overCAN_withIRP_new4g_proto26_adding_All10sec_data/Dave/Generated/DIGITAL_IO\digital_io.h ****   XMC_ASSERT("DIGITAL_IO_SetOutputLow: handler null pointer", handler != NULL);
 327:D:/Projects/VCU Firmware Main/IRP/Git Repo/VCU14_29bit_overCAN_withIRP_new4g_proto26_adding_All10sec_data/Dave/Generated/DIGITAL_IO\digital_io.h ****   XMC_GPIO_SetOutputLow(handler->gpio_port,handler->gpio_pin);
 181              	 .loc 2 327 0
 182 0008 7B68     	 ldr r3,[r7,#4]
 183 000a 1A68     	 ldr r2,[r3]
 184 000c 7B68     	 ldr r3,[r7,#4]
 185 000e 1B7C     	 ldrb r3,[r3,#16]
 186 0010 1046     	 mov r0,r2
 187 0012 1946     	 mov r1,r3
 188 0014 FFF7FEFF 	 bl XMC_GPIO_SetOutputLow
 328:D:/Projects/VCU Firmware Main/IRP/Git Repo/VCU14_29bit_overCAN_withIRP_new4g_proto26_adding_All10sec_data/Dave/Generated/DIGITAL_IO\digital_io.h **** }
 189              	 .loc 2 328 0
 190 0018 0837     	 adds r7,r7,#8
 191              	.LCFI20:
 192              	 .cfi_def_cfa_offset 8
 193 001a BD46     	 mov sp,r7
 194              	.LCFI21:
 195              	 .cfi_def_cfa_register 13
 196              	 
 197 001c 80BD     	 pop {r7,pc}
 198              	 .cfi_endproc
 199              	.LFE144:
 201              	 .comm cluster_door_in,4,4
 202              	 .comm Vcu_OutPuts,3,4
 203              	 .comm Combi_Switch_IN,8,4
 204              	 .comm Seat_Switch_IN,3,4
 205              	 .comm Door_Switch_IN,7,4
 206              	 .comm Relay_Control_Switch_OUT,47,4
 207              	 .comm Hvac_IN,24,4
 208              	 .comm Switch_Ios_IN,20,4
 209              	 .comm Motor_controller_OUT,5,4
 210              	 .comm Lights_OUT,8,4
 211              	 .comm Sensors_OUT,8,4
 212              	 .comm Aux_Inputs,6,4
 213              	 .comm Instrument_Cluster_OUT,18,4
 214              	 .comm Seat_Belt_OUT,3,4
 215              	 .comm Gear_OUT,4,4
 216              	 .comm Instrumetcluster_DriveMode_OUT,4,4
 217              	 .comm Door_Switch_OUT,7,4
 218              	 .comm instrument_cluster_doorsvar,7,4
 219              	 .comm cluster_door_out,4,4
 220              	 .comm current_time,8,4
 221              	 .comm timeval,8,4
 222              	 .comm GPS_data_val,16,4
 223              	 .comm epoch,4,4
 224              	 .comm ambient_temp,1,1
 225              	 .comm AUX_EFUSE_2_OUT_D,3,4
 226              	 .comm HV_BATT_FAN_PWR_OUT,3,4
 227              	 .comm ORVM_OPEN_OUT_D,3,4
 228              	 .comm ORVM_FOLD_OUT_D,3,4
 229              	 .comm ORVM_PWR_OUT_D,3,4
 230              	 .comm AC_BLOWER_SPEED1_OUT_D,3,4
 231              	 .comm AC_BLOWER_SPEED2_OUT_D,3,4
 232              	 .comm AC_BLOWER_SPEED3_OUT_D,3,4
 233              	 .comm AC_SOL_PWR_OUT_D,3,4
 234              	 .comm AUX_EFUSE_3_OUT_D,3,4
 235              	 .comm AUX_EFUSE_4_OUT_D,3,4
 236              	 .comm AUX_EFUSE_5_OUT_D,3,4
 237              	 .comm AUX_MOSFET_OUT3_D,3,4
 238              	 .comm SUNROOF_PWR_OUT_D,3,4
 239              	 .comm HV_CHARGER_EN_OUT_D,3,4
 240              	 .comm AC_COMPRESSOR_OUT_D,3,4
 241              	 .comm ELEC_HANDBRAKE_PWR_OUT_D,3,4
 242              	 .comm SuperLoop_Time,8,8
 243              	 .comm SuperLoop_Time_usec,8,8
 244              	 .comm SuperLoop_Time_msec,8,8
 245              	 .comm SuperLoop_Time_sec,8,8
 246              	 .comm End_Time,4,4
 247              	 .comm Start_Time,4,4
 248              	 .comm CState,1,1
 249              	 .comm PreState,1,1
 250              	 .comm BMS_SOC,1,1
 251              	 .comm CAN_MSG_DB_HVAC,60,4
 252              	 .comm eps_status,4,4
 253              	 .comm instrument_clustor_doors,1,1
 254              	 .comm CAN_BMS_29bit,132,4
 255              	 .comm CAN_IRP_29bit,132,4
 256              	 .comm charge_complete,1,1
 257              	 .comm charging_started,1,1
 258              	 .comm Bms_SOC,2,2
 259              	 .comm Bms_SOH,2,2
 260              	 .comm Mapped_BMS_SOC,1,1
 261              	 .comm Bms_minTemp,2,2
 262              	 .comm Bms_maxTemp,2,2
 263              	 .comm PackCurrent,4,4
 264              	 .comm PackVoltage,4,4
 265              	 .comm RegenerativeCurrentLimit,2,2
 266              	 .comm ChargeCurrentLimit,2,2
 267              	 .comm DischargeCurrentLimit,2,2
 268              	 .comm HvBatteryPower,4,4
 269              	 .comm bmsFault1,4,4
 270              	 .comm bmsFault2,4,4
 271              	 .comm GtakeFaults,4,4
 272              	 .comm allFault_indicator,3,4
 273              	 .comm cluster_Fault_Indicator,4,4
 274              	 .comm Mcu_Temp,4,4
 275              	 .comm Motor_Temp,4,4
 276              	 .comm VehicleSpeedglb,2,2
 277              	 .comm OBDII_CAN,60,4
 278              	 .comm OBD_data,2,2
 279              	 .comm Irp_Mcu_drive_states_29bit,4,4
 280              	 .comm Irp_Mcu_BMS_states_29bit,4,4
 281              	 .comm Irp_Mcu_Torques_29bit,4,4
 282              	 .comm Irp_Mcu_BMS_Currents_29bit,4,4
 283              	 .comm Irp_MCU_Status_29bit,4,4
 284              	 .comm Irp_MCU_Faults_29bit,4,4
 285              	 .comm DC_Current_irp,2,2
 286              	 .comm MotorPower_Irp,2,2
 287              	 .comm Torque_Estimation,2,2
 288              	 .comm DC_Voltage_irp,2,2
 289              	 .comm Mcu_Temp_Irp,2,2
 290              	 .comm Motor_Temp_Irp,2,2
 291              	 .comm RPM,2,2
 292              	 .comm Regenration_flag,1,1
 293              	 .comm hv_count,2,2
 294              	 .comm BMS_Avg_temp,4,4
 295              	 .comm AC_ON_4g,1,1
 296              	 .comm speed_4g,2,2
 297              	 .comm ADS_MODE,1,1
 298              	 .comm DROPPED_IN_12V,4,4
 299              	 .comm ADCModeAUTO2Frame,2,4
 300              	 .comm ADS1_receive_data,16,4
 301              	 .comm ADS1_recive_channel,16,4
 302              	 .comm ADS1_avg_receive_data,64,4
 303              	 .comm ADS2_receive_data,800,4
 304              	 .comm ADS2_avg_receive_data,64,4
 305              	 .comm ADS3_receive_data,800,4
 306              	 .comm ADS3_avg_receive_data,64,4
 307              	 .comm flag,1,1
 308              	 .comm adc2_current,64,4
 309              	 .comm adc3_current,64,4
 310              	 .comm temp,120,4
 311 001e 00BF     	 .section .text.State_1,"ax",%progbits
 312              	 .align 2
 313              	 .global State_1
 314              	 .thumb
 315              	 .thumb_func
 317              	State_1:
 318              	.LFB605:
 319              	 .file 3 "../VCU_OUT/State_1.c"
   1:../VCU_OUT/State_1.c **** /*
   2:../VCU_OUT/State_1.c ****  * State_1.c
   3:../VCU_OUT/State_1.c ****  *
   4:../VCU_OUT/State_1.c ****  *  Created on: 28-Jun-2023
   5:../VCU_OUT/State_1.c ****  *      Author: Suchit Sawant
   6:../VCU_OUT/State_1.c ****  */
   7:../VCU_OUT/State_1.c **** #include "Vcu_Out.h"
   8:../VCU_OUT/State_1.c **** #include "Vcu_Config.h"
   9:../VCU_OUT/State_1.c **** #include "DAVE.h"
  10:../VCU_OUT/State_1.c **** #include "Vcu_Init.h"
  11:../VCU_OUT/State_1.c **** #include "can_matrix.h"
  12:../VCU_OUT/State_1.c **** #include "ADS7961_LIB_2.h"
  13:../VCU_OUT/State_1.c **** 
  14:../VCU_OUT/State_1.c **** /*instrument_clustor_indicators_t *instrument_clustor_indicators = &CAN_MSG_DB[CAN_18FFB632];*/
  15:../VCU_OUT/State_1.c **** 
  16:../VCU_OUT/State_1.c **** 
  17:../VCU_OUT/State_1.c **** void State_1(void)
  18:../VCU_OUT/State_1.c **** {
 320              	 .loc 3 18 0
 321              	 .cfi_startproc
 322              	 
 323              	 
 324 0000 80B5     	 push {r7,lr}
 325              	.LCFI22:
 326              	 .cfi_def_cfa_offset 8
 327              	 .cfi_offset 7,-8
 328              	 .cfi_offset 14,-4
 329 0002 00AF     	 add r7,sp,#0
 330              	.LCFI23:
 331              	 .cfi_def_cfa_register 7
  19:../VCU_OUT/State_1.c **** 	if(Vcu_OutPuts.IGNITION_1_OUT)
 332              	 .loc 3 19 0
 333 0004 0F4B     	 ldr r3,.L8
 334 0006 1B78     	 ldrb r3,[r3]
 335 0008 002B     	 cmp r3,#0
 336 000a 08D0     	 beq .L6
 337              	.LBB2:
  20:../VCU_OUT/State_1.c **** 	{
  21:../VCU_OUT/State_1.c **** 		/* ignition 1 on state */
  22:../VCU_OUT/State_1.c **** 		ignition1_d_on();
 338              	 .loc 3 22 0
 339 000c FFF7FEFF 	 bl ignition1_d_on
  23:../VCU_OUT/State_1.c **** 		faciaaswitches();
 340              	 .loc 3 23 0
 341 0010 FFF7FEFF 	 bl faciaaswitches
  24:../VCU_OUT/State_1.c **** 		Can_Outputs_State1();
 342              	 .loc 3 24 0
 343 0014 FFF7FEFF 	 bl Can_Outputs_State1
  25:../VCU_OUT/State_1.c **** 		cluster_indicators_Out();
 344              	 .loc 3 25 0
 345 0018 FFF7FEFF 	 bl cluster_indicators_Out
 346              	.LBE2:
 347 001c 0CE0     	 b .L7
 348              	.L6:
  26:../VCU_OUT/State_1.c **** 	}
  27:../VCU_OUT/State_1.c **** 	else if(!(Vcu_OutPuts.IGNITION_1_OUT))
 349              	 .loc 3 27 0
 350 001e 094B     	 ldr r3,.L8
 351 0020 1B78     	 ldrb r3,[r3]
 352 0022 83F00103 	 eor r3,r3,#1
 353 0026 DBB2     	 uxtb r3,r3
 354 0028 002B     	 cmp r3,#0
 355 002a 05D0     	 beq .L7
 356              	.LBB3:
  28:../VCU_OUT/State_1.c **** 	{
  29:../VCU_OUT/State_1.c **** 		//check battery voltage and turn on/off DC to DC converter
  30:../VCU_OUT/State_1.c **** 		dc_dc_state_update(); //test this later
 357              	 .loc 3 30 0
 358 002c FFF7FEFF 	 bl dc_dc_state_update
  31:../VCU_OUT/State_1.c **** 		/* ignition 1 off state */
  32:../VCU_OUT/State_1.c **** 		ignition1_d_off();
 359              	 .loc 3 32 0
 360 0030 FFF7FEFF 	 bl ignition1_d_off
  33:../VCU_OUT/State_1.c **** 		all_direct_controlled_relay_off();
 361              	 .loc 3 33 0
 362 0034 FFF7FEFF 	 bl all_direct_controlled_relay_off
 363              	.L7:
 364              	.LBE3:
  34:../VCU_OUT/State_1.c **** 	}
  35:../VCU_OUT/State_1.c **** 
  36:../VCU_OUT/State_1.c **** 	VcuOut_IoExp_U24();
 365              	 .loc 3 36 0
 366 0038 FFF7FEFF 	 bl VcuOut_IoExp_U24
  37:../VCU_OUT/State_1.c **** 	VcuOut_IoExp_U25();
 367              	 .loc 3 37 0
 368 003c FFF7FEFF 	 bl VcuOut_IoExp_U25
  38:../VCU_OUT/State_1.c **** 
  39:../VCU_OUT/State_1.c **** }
 369              	 .loc 3 39 0
 370 0040 80BD     	 pop {r7,pc}
 371              	.L9:
 372 0042 00BF     	 .align 2
 373              	.L8:
 374 0044 00000000 	 .word Vcu_OutPuts
 375              	 .cfi_endproc
 376              	.LFE605:
 378              	 .section .rodata
 379              	 .align 2
 380              	.LC0:
 381 0000 696E2069 	 .ascii "in ig1_d_on\000"
 381      67315F64 
 381      5F6F6E00 
 382              	 .align 2
 383              	.LC1:
 384 000c 65786974 	 .ascii "exit ig1_d_on\000"
 384      20696731 
 384      5F645F6F 
 384      6E00
 385              	 .section .text.ignition1_d_on,"ax",%progbits
 386              	 .align 2
 387              	 .global ignition1_d_on
 388              	 .thumb
 389              	 .thumb_func
 391              	ignition1_d_on:
 392              	.LFB606:
  40:../VCU_OUT/State_1.c **** void ignition1_d_on()
  41:../VCU_OUT/State_1.c ****  {
 393              	 .loc 3 41 0
 394              	 .cfi_startproc
 395              	 
 396              	 
 397 0000 80B5     	 push {r7,lr}
 398              	.LCFI24:
 399              	 .cfi_def_cfa_offset 8
 400              	 .cfi_offset 7,-8
 401              	 .cfi_offset 14,-4
 402 0002 00AF     	 add r7,sp,#0
 403              	.LCFI25:
 404              	 .cfi_def_cfa_register 7
  42:../VCU_OUT/State_1.c **** 	uart_debugg("in ig1_d_on");
 405              	 .loc 3 42 0
 406 0004 0F48     	 ldr r0,.L11
 407 0006 FFF7FEFF 	 bl uart_debugg
  43:../VCU_OUT/State_1.c **** 	/*CAN_MSG_DB[CAN_18FF0921].CAN_Data[5] = 0x1c;
  44:../VCU_OUT/State_1.c **** 	CAN_MSG_DB[CAN_18FF0921].CAN_Data[6] = 0x0c;
  45:../VCU_OUT/State_1.c **** 
  46:../VCU_OUT/State_1.c **** 	CAN_MSG_DB[CAN_0CF00400].CAN_Data[3] = 0x48;
  47:../VCU_OUT/State_1.c **** 	CAN_MSG_DB[CAN_0CF00400].CAN_Data[4] = 0x71;*/
  48:../VCU_OUT/State_1.c **** 
  49:../VCU_OUT/State_1.c ****  	DIGITAL_IO_SetOutputHigh(&CIGARETTE_LIGHTER_PWR_OUT_D);//
 408              	 .loc 3 49 0
 409 000a 0F48     	 ldr r0,.L11+4
 410 000c FFF7FEFF 	 bl DIGITAL_IO_SetOutputHigh
  50:../VCU_OUT/State_1.c ****  	DIGITAL_IO_SetOutputHigh(&INFOTAINMENT_PWR_OUT_D); // check infotainment port & pin
 411              	 .loc 3 50 0
 412 0010 0E48     	 ldr r0,.L11+8
 413 0012 FFF7FEFF 	 bl DIGITAL_IO_SetOutputHigh
  51:../VCU_OUT/State_1.c ****  	DIGITAL_IO_SetOutputHigh(&INSTRUMENT_CON_PWR_OUT_D);
 414              	 .loc 3 51 0
 415 0016 0E48     	 ldr r0,.L11+12
 416 0018 FFF7FEFF 	 bl DIGITAL_IO_SetOutputHigh
  52:../VCU_OUT/State_1.c ****  	DIGITAL_IO_SetOutputHigh(&WIPER_PWR_OUT_D);
 417              	 .loc 3 52 0
 418 001c 0D48     	 ldr r0,.L11+16
 419 001e FFF7FEFF 	 bl DIGITAL_IO_SetOutputHigh
  53:../VCU_OUT/State_1.c **** 
  54:../VCU_OUT/State_1.c ****  	DIGITAL_IO_SetOutputHigh(&CABIN_LIGHT_OUT_D);
 420              	 .loc 3 54 0
 421 0022 0D48     	 ldr r0,.L11+20
 422 0024 FFF7FEFF 	 bl DIGITAL_IO_SetOutputHigh
  55:../VCU_OUT/State_1.c **** 
  56:../VCU_OUT/State_1.c ****  	//IOExp_SetPIN_LOW(&I2C_MASTER_1, 0x40, 0, 0);
  57:../VCU_OUT/State_1.c ****  	digital_io_setoutputhigh(&AC_BLOWER_SPEED1_OUT_D); /// turn on HVAC(CPIS)
 423              	 .loc 3 57 0
 424 0028 0C48     	 ldr r0,.L11+24
 425 002a FFF7FEFF 	 bl digital_io_setoutputhigh
  58:../VCU_OUT/State_1.c ****  	digital_io_setoutputhigh(&AC_BLOWER_SPEED2_OUT_D); /// turn on COMPRESSOR PWR.
 426              	 .loc 3 58 0
 427 002e 0C48     	 ldr r0,.L11+28
 428 0030 FFF7FEFF 	 bl digital_io_setoutputhigh
  59:../VCU_OUT/State_1.c **** 
  60:../VCU_OUT/State_1.c ****  	DIGITAL_IO_SetOutputHigh(&PWR_WINDOW_OUT_D);
 429              	 .loc 3 60 0
 430 0034 0B48     	 ldr r0,.L11+32
 431 0036 FFF7FEFF 	 bl DIGITAL_IO_SetOutputHigh
  61:../VCU_OUT/State_1.c **** 
  62:../VCU_OUT/State_1.c ****  	//digital_io_setoutputhigh(&SUNROOF_PWR_OUT_D);//irp_12v supply
  63:../VCU_OUT/State_1.c ****  	/*  active low */
  64:../VCU_OUT/State_1.c ****  	//digital_io_setoutputlow(&AUX_EFUSE_4_OUT_D);
  65:../VCU_OUT/State_1.c **** 
  66:../VCU_OUT/State_1.c ****  	uart_debugg("exit ig1_d_on");
 432              	 .loc 3 66 0
 433 003a 0B48     	 ldr r0,.L11+36
 434 003c FFF7FEFF 	 bl uart_debugg
  67:../VCU_OUT/State_1.c ****  }
 435              	 .loc 3 67 0
 436 0040 80BD     	 pop {r7,pc}
 437              	.L12:
 438 0042 00BF     	 .align 2
 439              	.L11:
 440 0044 00000000 	 .word .LC0
 441 0048 00000000 	 .word CIGARETTE_LIGHTER_PWR_OUT_D
 442 004c 00000000 	 .word INFOTAINMENT_PWR_OUT_D
 443 0050 00000000 	 .word INSTRUMENT_CON_PWR_OUT_D
 444 0054 00000000 	 .word WIPER_PWR_OUT_D
 445 0058 00000000 	 .word CABIN_LIGHT_OUT_D
 446 005c 00000000 	 .word AC_BLOWER_SPEED1_OUT_D
 447 0060 00000000 	 .word AC_BLOWER_SPEED2_OUT_D
 448 0064 00000000 	 .word PWR_WINDOW_OUT_D
 449 0068 0C000000 	 .word .LC1
 450              	 .cfi_endproc
 451              	.LFE606:
 453              	 .section .rodata
 454 001a 0000     	 .align 2
 455              	.LC2:
 456 001c 696E2069 	 .ascii "in ig1_d_off\000"
 456      67315F64 
 456      5F6F6666 
 456      00
 457              	 .section .text.ignition1_d_off,"ax",%progbits
 458              	 .align 2
 459              	 .global ignition1_d_off
 460              	 .thumb
 461              	 .thumb_func
 463              	ignition1_d_off:
 464              	.LFB607:
  68:../VCU_OUT/State_1.c **** 
  69:../VCU_OUT/State_1.c ****  void ignition1_d_off()
  70:../VCU_OUT/State_1.c ****  {
 465              	 .loc 3 70 0
 466              	 .cfi_startproc
 467              	 
 468              	 
 469 0000 80B5     	 push {r7,lr}
 470              	.LCFI26:
 471              	 .cfi_def_cfa_offset 8
 472              	 .cfi_offset 7,-8
 473              	 .cfi_offset 14,-4
 474 0002 00AF     	 add r7,sp,#0
 475              	.LCFI27:
 476              	 .cfi_def_cfa_register 7
  71:../VCU_OUT/State_1.c **** 
  72:../VCU_OUT/State_1.c **** 	 /*CAN_MSG_DB[CAN_18FF0921].CAN_Data[5] = 0x00;
  73:../VCU_OUT/State_1.c **** 	  CAN_MSG_DB[CAN_18FF0921].CAN_Data[6] = 0x00;*/
  74:../VCU_OUT/State_1.c **** //for(volatile int i = 0; i<0xffff*80; i++);
  75:../VCU_OUT/State_1.c **** 	  /*CAN_MSG_DB[CAN_0CF00400].CAN_Data[3] = 0x38;
  76:../VCU_OUT/State_1.c **** 	  CAN_MSG_DB[CAN_0CF00400].CAN_Data[4] = 0x18;*/
  77:../VCU_OUT/State_1.c **** 	 uart_debugg("in ig1_d_off");
 477              	 .loc 3 77 0
 478 0004 1048     	 ldr r0,.L14
 479 0006 FFF7FEFF 	 bl uart_debugg
  78:../VCU_OUT/State_1.c ****  	DIGITAL_IO_SetOutputLow(&CIGARETTE_LIGHTER_PWR_OUT_D);//
 480              	 .loc 3 78 0
 481 000a 1048     	 ldr r0,.L14+4
 482 000c FFF7FEFF 	 bl DIGITAL_IO_SetOutputLow
  79:../VCU_OUT/State_1.c ****  	DIGITAL_IO_SetOutputLow(&INFOTAINMENT_PWR_OUT_D);
 483              	 .loc 3 79 0
 484 0010 0F48     	 ldr r0,.L14+8
 485 0012 FFF7FEFF 	 bl DIGITAL_IO_SetOutputLow
  80:../VCU_OUT/State_1.c ****  	DIGITAL_IO_SetOutputLow(&INSTRUMENT_CON_PWR_OUT_D);
 486              	 .loc 3 80 0
 487 0016 0F48     	 ldr r0,.L14+12
 488 0018 FFF7FEFF 	 bl DIGITAL_IO_SetOutputLow
  81:../VCU_OUT/State_1.c ****  	DIGITAL_IO_SetOutputLow(&WIPER_PWR_OUT_D);
 489              	 .loc 3 81 0
 490 001c 0E48     	 ldr r0,.L14+16
 491 001e FFF7FEFF 	 bl DIGITAL_IO_SetOutputLow
  82:../VCU_OUT/State_1.c **** 
  83:../VCU_OUT/State_1.c ****  	//DIGITAL_IO_SetOutputLow(&CABIN_LIGHT_OUT_D);
  84:../VCU_OUT/State_1.c **** 
  85:../VCU_OUT/State_1.c ****  	DIGITAL_IO_SetOutputLow(&PWR_WINDOW_OUT_D);
 492              	 .loc 3 85 0
 493 0022 0E48     	 ldr r0,.L14+20
 494 0024 FFF7FEFF 	 bl DIGITAL_IO_SetOutputLow
  86:../VCU_OUT/State_1.c **** 
  87:../VCU_OUT/State_1.c ****  	digital_io_setoutputlow(&AC_BLOWER_SPEED1_OUT_D); /// turn off HVAC(CPIS)
 495              	 .loc 3 87 0
 496 0028 0D48     	 ldr r0,.L14+24
 497 002a FFF7FEFF 	 bl digital_io_setoutputlow
  88:../VCU_OUT/State_1.c ****  	digital_io_setoutputlow(&AC_BLOWER_SPEED2_OUT_D); /// turn off COMPRESSOR PWR.
 498              	 .loc 3 88 0
 499 002e 0D48     	 ldr r0,.L14+28
 500 0030 FFF7FEFF 	 bl digital_io_setoutputlow
  89:../VCU_OUT/State_1.c ****  	DIGITAL_IO_SetOutputLow(&AC_RADIATOR_OUT_D);
 501              	 .loc 3 89 0
 502 0034 0C48     	 ldr r0,.L14+32
 503 0036 FFF7FEFF 	 bl DIGITAL_IO_SetOutputLow
  90:../VCU_OUT/State_1.c **** 
  91:../VCU_OUT/State_1.c ****  	/* active low */
  92:../VCU_OUT/State_1.c ****  	digital_io_setoutputlow(&AUX_EFUSE_4_OUT_D);
 504              	 .loc 3 92 0
 505 003a 0C48     	 ldr r0,.L14+36
 506 003c FFF7FEFF 	 bl digital_io_setoutputlow
  93:../VCU_OUT/State_1.c **** 
  94:../VCU_OUT/State_1.c ****  	//digital_io_setoutputlow(&SUNROOF_PWR_OUT_D);//irp_12v supply
  95:../VCU_OUT/State_1.c **** 
  96:../VCU_OUT/State_1.c ****  	uart_debugg("in ig1_d_off");
 507              	 .loc 3 96 0
 508 0040 0148     	 ldr r0,.L14
 509 0042 FFF7FEFF 	 bl uart_debugg
  97:../VCU_OUT/State_1.c **** 
  98:../VCU_OUT/State_1.c ****  }
 510              	 .loc 3 98 0
 511 0046 80BD     	 pop {r7,pc}
 512              	.L15:
 513              	 .align 2
 514              	.L14:
 515 0048 1C000000 	 .word .LC2
 516 004c 00000000 	 .word CIGARETTE_LIGHTER_PWR_OUT_D
 517 0050 00000000 	 .word INFOTAINMENT_PWR_OUT_D
 518 0054 00000000 	 .word INSTRUMENT_CON_PWR_OUT_D
 519 0058 00000000 	 .word WIPER_PWR_OUT_D
 520 005c 00000000 	 .word PWR_WINDOW_OUT_D
 521 0060 00000000 	 .word AC_BLOWER_SPEED1_OUT_D
 522 0064 00000000 	 .word AC_BLOWER_SPEED2_OUT_D
 523 0068 00000000 	 .word AC_RADIATOR_OUT_D
 524 006c 00000000 	 .word AUX_EFUSE_4_OUT_D
 525              	 .cfi_endproc
 526              	.LFE607:
 528              	 .section .text.all_direct_controlled_relay_off,"ax",%progbits
 529              	 .align 2
 530              	 .global all_direct_controlled_relay_off
 531              	 .thumb
 532              	 .thumb_func
 534              	all_direct_controlled_relay_off:
 535              	.LFB608:
  99:../VCU_OUT/State_1.c **** 
 100:../VCU_OUT/State_1.c ****  void all_direct_controlled_relay_off(void)
 101:../VCU_OUT/State_1.c ****  {
 536              	 .loc 3 101 0
 537              	 .cfi_startproc
 538              	 
 539              	 
 540 0000 80B5     	 push {r7,lr}
 541              	.LCFI28:
 542              	 .cfi_def_cfa_offset 8
 543              	 .cfi_offset 7,-8
 544              	 .cfi_offset 14,-4
 545 0002 00AF     	 add r7,sp,#0
 546              	.LCFI29:
 547              	 .cfi_def_cfa_register 7
 102:../VCU_OUT/State_1.c **** 	 DIGITAL_IO_SetOutputLow(&MC_CONTACTOR_RELAY_OUT_D);
 548              	 .loc 3 102 0
 549 0004 0148     	 ldr r0,.L17
 550 0006 FFF7FEFF 	 bl DIGITAL_IO_SetOutputLow
 103:../VCU_OUT/State_1.c ****  }
 551              	 .loc 3 103 0
 552 000a 80BD     	 pop {r7,pc}
 553              	.L18:
 554              	 .align 2
 555              	.L17:
 556 000c 00000000 	 .word MC_CONTACTOR_RELAY_OUT_D
 557              	 .cfi_endproc
 558              	.LFE608:
 560              	 .section .text.Can_Outputs_State1,"ax",%progbits
 561              	 .align 2
 562              	 .global Can_Outputs_State1
 563              	 .thumb
 564              	 .thumb_func
 566              	Can_Outputs_State1:
 567              	.LFB609:
 104:../VCU_OUT/State_1.c **** 
 105:../VCU_OUT/State_1.c ****   void Can_Outputs_State1(void)
 106:../VCU_OUT/State_1.c ****  {
 568              	 .loc 3 106 0
 569              	 .cfi_startproc
 570              	 
 571              	 
 572 0000 80B5     	 push {r7,lr}
 573              	.LCFI30:
 574              	 .cfi_def_cfa_offset 8
 575              	 .cfi_offset 7,-8
 576              	 .cfi_offset 14,-4
 577 0002 00AF     	 add r7,sp,#0
 578              	.LCFI31:
 579              	 .cfi_def_cfa_register 7
 107:../VCU_OUT/State_1.c ****  	CAN_OUTPUT_COMPRESSOR();
 580              	 .loc 3 107 0
 581 0004 FFF7FEFF 	 bl CAN_OUTPUT_COMPRESSOR
 108:../VCU_OUT/State_1.c ****  	CAN_OUTPUT_CLUSTER();
 582              	 .loc 3 108 0
 583 0008 FFF7FEFF 	 bl CAN_OUTPUT_CLUSTER
 109:../VCU_OUT/State_1.c ****  	//CAN_OUTPUT_EPS();
 110:../VCU_OUT/State_1.c ****  }
 584              	 .loc 3 110 0
 585 000c 80BD     	 pop {r7,pc}
 586              	 .cfi_endproc
 587              	.LFE609:
 589 000e 00BF     	 .section .text.cluster_indicators_Out,"ax",%progbits
 590              	 .align 2
 591              	 .global cluster_indicators_Out
 592              	 .thumb
 593              	 .thumb_func
 595              	cluster_indicators_Out:
 596              	.LFB610:
 111:../VCU_OUT/State_1.c **** 
 112:../VCU_OUT/State_1.c ****  void cluster_indicators_Out(void)
 113:../VCU_OUT/State_1.c ****  {
 597              	 .loc 3 113 0
 598              	 .cfi_startproc
 599              	 
 600              	 
 601              	 
 602 0000 80B4     	 push {r7}
 603              	.LCFI32:
 604              	 .cfi_def_cfa_offset 4
 605              	 .cfi_offset 7,-4
 606 0002 00AF     	 add r7,sp,#0
 607              	.LCFI33:
 608              	 .cfi_def_cfa_register 7
 114:../VCU_OUT/State_1.c **** 	instrument_clustor_indicators-> left_indicator = Instrument_Cluster_OUT.set_left_indicator;
 609              	 .loc 3 114 0
 610 0004 344B     	 ldr r3,.L21
 611 0006 1A68     	 ldr r2,[r3]
 612 0008 344B     	 ldr r3,.L21+4
 613 000a 9979     	 ldrb r1,[r3,#6]
 614 000c D378     	 ldrb r3,[r2,#3]
 615 000e 61F30003 	 bfi r3,r1,#0,#1
 616 0012 D370     	 strb r3,[r2,#3]
 115:../VCU_OUT/State_1.c ****   	instrument_clustor_indicators-> right_indicator = Instrument_Cluster_OUT.set_right_indicator;
 617              	 .loc 3 115 0
 618 0014 304B     	 ldr r3,.L21
 619 0016 1A68     	 ldr r2,[r3]
 620 0018 304B     	 ldr r3,.L21+4
 621 001a D979     	 ldrb r1,[r3,#7]
 622 001c D378     	 ldrb r3,[r2,#3]
 623 001e 61F34103 	 bfi r3,r1,#1,#1
 624 0022 D370     	 strb r3,[r2,#3]
 116:../VCU_OUT/State_1.c ****   	instrument_clustor_indicators-> low_beam = Instrument_Cluster_OUT.set_low_beam;
 625              	 .loc 3 116 0
 626 0024 2C4B     	 ldr r3,.L21
 627 0026 1A68     	 ldr r2,[r3]
 628 0028 2C4B     	 ldr r3,.L21+4
 629 002a 197A     	 ldrb r1,[r3,#8]
 630 002c D378     	 ldrb r3,[r2,#3]
 631 002e 61F38203 	 bfi r3,r1,#2,#1
 632 0032 D370     	 strb r3,[r2,#3]
 117:../VCU_OUT/State_1.c ****   	instrument_clustor_indicators-> high_beam = Instrument_Cluster_OUT.set_high_beam;
 633              	 .loc 3 117 0
 634 0034 284B     	 ldr r3,.L21
 635 0036 1A68     	 ldr r2,[r3]
 636 0038 284B     	 ldr r3,.L21+4
 637 003a 597A     	 ldrb r1,[r3,#9]
 638 003c D378     	 ldrb r3,[r2,#3]
 639 003e 61F3C303 	 bfi r3,r1,#3,#1
 640 0042 D370     	 strb r3,[r2,#3]
 118:../VCU_OUT/State_1.c ****   	instrument_clustor_indicators-> brake_fluid_flow = Instrument_Cluster_OUT.set_brake_oil;
 641              	 .loc 3 118 0
 642 0044 244B     	 ldr r3,.L21
 643 0046 1A68     	 ldr r2,[r3]
 644 0048 244B     	 ldr r3,.L21+4
 645 004a 997A     	 ldrb r1,[r3,#10]
 646 004c D378     	 ldrb r3,[r2,#3]
 647 004e 61F30413 	 bfi r3,r1,#4,#1
 648 0052 D370     	 strb r3,[r2,#3]
 119:../VCU_OUT/State_1.c ****   	instrument_clustor_indicators-> eps_failure = Instrument_Cluster_OUT.eps_status;///////
 649              	 .loc 3 119 0
 650 0054 204B     	 ldr r3,.L21
 651 0056 1A68     	 ldr r2,[r3]
 652 0058 204B     	 ldr r3,.L21+4
 653 005a 197B     	 ldrb r1,[r3,#12]
 654 005c D378     	 ldrb r3,[r2,#3]
 655 005e 61F34513 	 bfi r3,r1,#5,#1
 656 0062 D370     	 strb r3,[r2,#3]
 120:../VCU_OUT/State_1.c ****   	instrument_clustor_indicators-> aux_battery_low = Instrument_Cluster_OUT.aux_vtg_critical;
 657              	 .loc 3 120 0
 658 0064 1C4B     	 ldr r3,.L21
 659 0066 1A68     	 ldr r2,[r3]
 660 0068 1C4B     	 ldr r3,.L21+4
 661 006a D97A     	 ldrb r1,[r3,#11]
 662 006c D378     	 ldrb r3,[r2,#3]
 663 006e 61F38613 	 bfi r3,r1,#6,#1
 664 0072 D370     	 strb r3,[r2,#3]
 121:../VCU_OUT/State_1.c ****   	instrument_clustor_indicators-> battery_high_temp = Instrument_Cluster_OUT.battery_temp_exceeded
 665              	 .loc 3 121 0
 666 0074 184B     	 ldr r3,.L21
 667 0076 1A68     	 ldr r2,[r3]
 668 0078 184B     	 ldr r3,.L21+4
 669 007a 597B     	 ldrb r1,[r3,#13]
 670 007c D378     	 ldrb r3,[r2,#3]
 671 007e 61F3C713 	 bfi r3,r1,#7,#1
 672 0082 D370     	 strb r3,[r2,#3]
 122:../VCU_OUT/State_1.c ****   	instrument_clustor_indicators-> charging_on = Instrument_Cluster_OUT.charging_connected;
 673              	 .loc 3 122 0
 674 0084 144B     	 ldr r3,.L21
 675 0086 1A68     	 ldr r2,[r3]
 676 0088 144B     	 ldr r3,.L21+4
 677 008a 997B     	 ldrb r1,[r3,#14]
 678 008c 5379     	 ldrb r3,[r2,#5]
 679 008e 61F30003 	 bfi r3,r1,#0,#1
 680 0092 5371     	 strb r3,[r2,#5]
 123:../VCU_OUT/State_1.c ****   	instrument_clustor_indicators-> generic_alarm;/////////
 124:../VCU_OUT/State_1.c ****   	instrument_clustor_indicators-> regen = Instrument_Cluster_OUT.regen_enabled;///////////
 681              	 .loc 3 124 0
 682 0094 104B     	 ldr r3,.L21
 683 0096 1A68     	 ldr r2,[r3]
 684 0098 104B     	 ldr r3,.L21+4
 685 009a D97B     	 ldrb r1,[r3,#15]
 686 009c 5379     	 ldrb r3,[r2,#5]
 687 009e 61F38203 	 bfi r3,r1,#2,#1
 688 00a2 5371     	 strb r3,[r2,#5]
 125:../VCU_OUT/State_1.c ****   	instrument_clustor_indicators-> parking_brake_light = !Switch_Ios_IN.handbrake_sw_IN;
 689              	 .loc 3 125 0
 690 00a4 0C4B     	 ldr r3,.L21
 691 00a6 1A68     	 ldr r2,[r3]
 692 00a8 0D4B     	 ldr r3,.L21+8
 693 00aa 1B7A     	 ldrb r3,[r3,#8]
 694 00ac 83F00103 	 eor r3,r3,#1
 695 00b0 DBB2     	 uxtb r3,r3
 696 00b2 03F00103 	 and r3,r3,#1
 697 00b6 D9B2     	 uxtb r1,r3
 698 00b8 5379     	 ldrb r3,[r2,#5]
 699 00ba 61F3C303 	 bfi r3,r1,#3,#1
 700 00be 5371     	 strb r3,[r2,#5]
 126:../VCU_OUT/State_1.c ****   	instrument_clustor_indicators-> seat_belt = Seat_Belt_OUT.seat_occupied;
 701              	 .loc 3 126 0
 702 00c0 054B     	 ldr r3,.L21
 703 00c2 1A68     	 ldr r2,[r3]
 704 00c4 074B     	 ldr r3,.L21+12
 705 00c6 9978     	 ldrb r1,[r3,#2]
 706 00c8 5379     	 ldrb r3,[r2,#5]
 707 00ca 61F30413 	 bfi r3,r1,#4,#1
 708 00ce 5371     	 strb r3,[r2,#5]
 127:../VCU_OUT/State_1.c ****   }
 709              	 .loc 3 127 0
 710 00d0 BD46     	 mov sp,r7
 711              	.LCFI34:
 712              	 .cfi_def_cfa_register 13
 713              	 
 714 00d2 5DF8047B 	 ldr r7,[sp],#4
 715              	.LCFI35:
 716              	 .cfi_restore 7
 717              	 .cfi_def_cfa_offset 0
 718 00d6 7047     	 bx lr
 719              	.L22:
 720              	 .align 2
 721              	.L21:
 722 00d8 00000000 	 .word instrument_clustor_indicators
 723 00dc 00000000 	 .word Instrument_Cluster_OUT
 724 00e0 00000000 	 .word Switch_Ios_IN
 725 00e4 00000000 	 .word Seat_Belt_OUT
 726              	 .cfi_endproc
 727              	.LFE610:
 729              	 .section .rodata
 730 0029 000000   	 .align 2
 731              	.LC3:
 732 002c 696E2055 	 .ascii "in U24\000"
 732      323400
 733 0033 00       	 .align 2
 734              	.LC4:
 735 0034 65786974 	 .ascii "exit U24\000"
 735      20553234 
 735      00
 736 003d 000000   	 .section .text.VcuOut_IoExp_U24,"ax",%progbits
 737              	 .align 2
 738              	 .global VcuOut_IoExp_U24
 739              	 .thumb
 740              	 .thumb_func
 742              	VcuOut_IoExp_U24:
 743              	.LFB611:
 128:../VCU_OUT/State_1.c **** 
 129:../VCU_OUT/State_1.c ****  void VcuOut_IoExp_U24(void)
 130:../VCU_OUT/State_1.c ****  {
 744              	 .loc 3 130 0
 745              	 .cfi_startproc
 746              	 
 747              	 
 748 0000 80B5     	 push {r7,lr}
 749              	.LCFI36:
 750              	 .cfi_def_cfa_offset 8
 751              	 .cfi_offset 7,-8
 752              	 .cfi_offset 14,-4
 753 0002 00AF     	 add r7,sp,#0
 754              	.LCFI37:
 755              	 .cfi_def_cfa_register 7
 131:../VCU_OUT/State_1.c **** 	 uart_debugg("in U24");
 756              	 .loc 3 131 0
 757 0004 1E48     	 ldr r0,.L34
 758 0006 FFF7FEFF 	 bl uart_debugg
 132:../VCU_OUT/State_1.c **** 	 if(Relay_Control_Switch_OUT.low_beam_OUT)
 759              	 .loc 3 132 0
 760 000a 1E4B     	 ldr r3,.L34+4
 761 000c 1B78     	 ldrb r3,[r3]
 762 000e 002B     	 cmp r3,#0
 763 0010 03D0     	 beq .L24
 133:../VCU_OUT/State_1.c **** 	 {
 134:../VCU_OUT/State_1.c **** 		 DIGITAL_IO_SetOutputHigh(&LOW_BEAM_OUT_D);
 764              	 .loc 3 134 0
 765 0012 1D48     	 ldr r0,.L34+8
 766 0014 FFF7FEFF 	 bl DIGITAL_IO_SetOutputHigh
 767 0018 02E0     	 b .L25
 768              	.L24:
 135:../VCU_OUT/State_1.c **** 		// Gtake_Mcu_drive_states_additional_29bit->Hill_hold_assist = 1;
 136:../VCU_OUT/State_1.c **** 	 }
 137:../VCU_OUT/State_1.c **** 	 else
 138:../VCU_OUT/State_1.c **** 	 {
 139:../VCU_OUT/State_1.c **** 		 DIGITAL_IO_SetOutputLow(&LOW_BEAM_OUT_D);
 769              	 .loc 3 139 0
 770 001a 1B48     	 ldr r0,.L34+8
 771 001c FFF7FEFF 	 bl DIGITAL_IO_SetOutputLow
 772              	.L25:
 140:../VCU_OUT/State_1.c **** 		// Gtake_Mcu_drive_states_additional_29bit->Hill_hold_assist = 0;
 141:../VCU_OUT/State_1.c **** 	 }
 142:../VCU_OUT/State_1.c **** 
 143:../VCU_OUT/State_1.c **** 	 if(Relay_Control_Switch_OUT.high_beam_OUT)
 773              	 .loc 3 143 0
 774 0020 184B     	 ldr r3,.L34+4
 775 0022 5B78     	 ldrb r3,[r3,#1]
 776 0024 002B     	 cmp r3,#0
 777 0026 03D0     	 beq .L26
 144:../VCU_OUT/State_1.c **** 	 {
 145:../VCU_OUT/State_1.c **** 		 DIGITAL_IO_SetOutputHigh(&HIGH_BEAM_OUT_D);
 778              	 .loc 3 145 0
 779 0028 1848     	 ldr r0,.L34+12
 780 002a FFF7FEFF 	 bl DIGITAL_IO_SetOutputHigh
 781 002e 02E0     	 b .L27
 782              	.L26:
 146:../VCU_OUT/State_1.c **** 	 }
 147:../VCU_OUT/State_1.c **** 	 else
 148:../VCU_OUT/State_1.c **** 	 {
 149:../VCU_OUT/State_1.c **** 		 DIGITAL_IO_SetOutputLow(&HIGH_BEAM_OUT_D);
 783              	 .loc 3 149 0
 784 0030 1648     	 ldr r0,.L34+12
 785 0032 FFF7FEFF 	 bl DIGITAL_IO_SetOutputLow
 786              	.L27:
 150:../VCU_OUT/State_1.c **** 	 }
 151:../VCU_OUT/State_1.c **** 
 152:../VCU_OUT/State_1.c **** 	 if(Relay_Control_Switch_OUT.pos_light_OUT) /// pos light
 787              	 .loc 3 152 0
 788 0036 134B     	 ldr r3,.L34+4
 789 0038 9B78     	 ldrb r3,[r3,#2]
 790 003a 002B     	 cmp r3,#0
 791 003c 03D0     	 beq .L28
 153:../VCU_OUT/State_1.c **** 	 {
 154:../VCU_OUT/State_1.c **** 		 DIGITAL_IO_SetOutputHigh(&POS_OUT_D);
 792              	 .loc 3 154 0
 793 003e 1448     	 ldr r0,.L34+16
 794 0040 FFF7FEFF 	 bl DIGITAL_IO_SetOutputHigh
 795 0044 02E0     	 b .L29
 796              	.L28:
 155:../VCU_OUT/State_1.c **** 		 //digital_io_setoutputhigh(&AUX_EFUSE_4_OUT_D);
 156:../VCU_OUT/State_1.c **** 	 }
 157:../VCU_OUT/State_1.c **** 	 else
 158:../VCU_OUT/State_1.c **** 	 {
 159:../VCU_OUT/State_1.c **** 		 DIGITAL_IO_SetOutputLow(&POS_OUT_D);
 797              	 .loc 3 159 0
 798 0046 1248     	 ldr r0,.L34+16
 799 0048 FFF7FEFF 	 bl DIGITAL_IO_SetOutputLow
 800              	.L29:
 160:../VCU_OUT/State_1.c **** 		// digital_io_setoutputlow(&AUX_EFUSE_4_OUT_D);
 161:../VCU_OUT/State_1.c **** 	 }
 162:../VCU_OUT/State_1.c **** 
 163:../VCU_OUT/State_1.c **** 	 if(Relay_Control_Switch_OUT.left_indicator_OUT)
 801              	 .loc 3 163 0
 802 004c 0D4B     	 ldr r3,.L34+4
 803 004e DB78     	 ldrb r3,[r3,#3]
 804 0050 002B     	 cmp r3,#0
 805 0052 03D0     	 beq .L30
 164:../VCU_OUT/State_1.c **** 	 {
 165:../VCU_OUT/State_1.c **** 		 DIGITAL_IO_SetOutputHigh(&LEFT_INDICATOR_OUT_D);
 806              	 .loc 3 165 0
 807 0054 0F48     	 ldr r0,.L34+20
 808 0056 FFF7FEFF 	 bl DIGITAL_IO_SetOutputHigh
 809 005a 02E0     	 b .L31
 810              	.L30:
 166:../VCU_OUT/State_1.c **** 	 }
 167:../VCU_OUT/State_1.c **** 	 else
 168:../VCU_OUT/State_1.c **** 	 {
 169:../VCU_OUT/State_1.c **** 		 DIGITAL_IO_SetOutputLow(&LEFT_INDICATOR_OUT_D);
 811              	 .loc 3 169 0
 812 005c 0D48     	 ldr r0,.L34+20
 813 005e FFF7FEFF 	 bl DIGITAL_IO_SetOutputLow
 814              	.L31:
 170:../VCU_OUT/State_1.c **** 	 }
 171:../VCU_OUT/State_1.c **** 
 172:../VCU_OUT/State_1.c **** 	 if(Relay_Control_Switch_OUT.right_indicator_OUT)
 815              	 .loc 3 172 0
 816 0062 084B     	 ldr r3,.L34+4
 817 0064 1B79     	 ldrb r3,[r3,#4]
 818 0066 002B     	 cmp r3,#0
 819 0068 03D0     	 beq .L32
 173:../VCU_OUT/State_1.c **** 	 {
 174:../VCU_OUT/State_1.c **** 		 DIGITAL_IO_SetOutputHigh(&RIGHT_INDICATOR_OUT_D);
 820              	 .loc 3 174 0
 821 006a 0B48     	 ldr r0,.L34+24
 822 006c FFF7FEFF 	 bl DIGITAL_IO_SetOutputHigh
 823 0070 02E0     	 b .L33
 824              	.L32:
 175:../VCU_OUT/State_1.c **** 	 }
 176:../VCU_OUT/State_1.c **** 	 else
 177:../VCU_OUT/State_1.c **** 	 {
 178:../VCU_OUT/State_1.c **** 		 DIGITAL_IO_SetOutputLow(&RIGHT_INDICATOR_OUT_D);
 825              	 .loc 3 178 0
 826 0072 0948     	 ldr r0,.L34+24
 827 0074 FFF7FEFF 	 bl DIGITAL_IO_SetOutputLow
 828              	.L33:
 179:../VCU_OUT/State_1.c **** 	 }
 180:../VCU_OUT/State_1.c **** 
 181:../VCU_OUT/State_1.c **** 	 uart_debugg("exit U24");
 829              	 .loc 3 181 0
 830 0078 0848     	 ldr r0,.L34+28
 831 007a FFF7FEFF 	 bl uart_debugg
 182:../VCU_OUT/State_1.c ****  }
 832              	 .loc 3 182 0
 833 007e 80BD     	 pop {r7,pc}
 834              	.L35:
 835              	 .align 2
 836              	.L34:
 837 0080 2C000000 	 .word .LC3
 838 0084 00000000 	 .word Relay_Control_Switch_OUT
 839 0088 00000000 	 .word LOW_BEAM_OUT_D
 840 008c 00000000 	 .word HIGH_BEAM_OUT_D
 841 0090 00000000 	 .word POS_OUT_D
 842 0094 00000000 	 .word LEFT_INDICATOR_OUT_D
 843 0098 00000000 	 .word RIGHT_INDICATOR_OUT_D
 844 009c 34000000 	 .word .LC4
 845              	 .cfi_endproc
 846              	.LFE611:
 848              	 .section .text.VcuOut_IoExp_U25,"ax",%progbits
 849              	 .align 2
 850              	 .global VcuOut_IoExp_U25
 851              	 .thumb
 852              	 .thumb_func
 854              	VcuOut_IoExp_U25:
 855              	.LFB612:
 183:../VCU_OUT/State_1.c **** 
 184:../VCU_OUT/State_1.c ****  void VcuOut_IoExp_U25(void)
 185:../VCU_OUT/State_1.c ****   {
 856              	 .loc 3 185 0
 857              	 .cfi_startproc
 858              	 
 859              	 
 860              	 
 861 0000 80B4     	 push {r7}
 862              	.LCFI38:
 863              	 .cfi_def_cfa_offset 4
 864              	 .cfi_offset 7,-4
 865 0002 00AF     	 add r7,sp,#0
 866              	.LCFI39:
 867              	 .cfi_def_cfa_register 7
 186:../VCU_OUT/State_1.c **** 
 187:../VCU_OUT/State_1.c ****  	 if(Relay_Control_Switch_OUT.ac_blower1_OUT)
 188:../VCU_OUT/State_1.c ****  	 {
 189:../VCU_OUT/State_1.c ****  		// DIGITAL_IO_SetOutputHigh(&LOW_BEAM_OUT_D);
 190:../VCU_OUT/State_1.c ****  	 }
 191:../VCU_OUT/State_1.c ****  	 else
 192:../VCU_OUT/State_1.c ****  	 {
 193:../VCU_OUT/State_1.c ****  		 //DIGITAL_IO_SetOutputLow(&LOW_BEAM_OUT_D);
 194:../VCU_OUT/State_1.c ****  	 }
 195:../VCU_OUT/State_1.c **** 
 196:../VCU_OUT/State_1.c ****  	 if(Relay_Control_Switch_OUT.ac_blower2_OUT)
 197:../VCU_OUT/State_1.c ****  	 {
 198:../VCU_OUT/State_1.c ****  		// DIGITAL_IO_SetOutputHigh(&HIGH_BEAM_OUT_D);
 199:../VCU_OUT/State_1.c ****  	 }
 200:../VCU_OUT/State_1.c ****  	 else
 201:../VCU_OUT/State_1.c ****  	 {
 202:../VCU_OUT/State_1.c ****  		// DIGITAL_IO_SetOutputLow(&HIGH_BEAM_OUT_D);
 203:../VCU_OUT/State_1.c ****  	 }
 204:../VCU_OUT/State_1.c **** 
 205:../VCU_OUT/State_1.c ****  }
 868              	 .loc 3 205 0
 869 0004 BD46     	 mov sp,r7
 870              	.LCFI40:
 871              	 .cfi_def_cfa_register 13
 872              	 
 873 0006 5DF8047B 	 ldr r7,[sp],#4
 874              	.LCFI41:
 875              	 .cfi_restore 7
 876              	 .cfi_def_cfa_offset 0
 877 000a 7047     	 bx lr
 878              	 .cfi_endproc
 879              	.LFE612:
 881              	 .section .text.VcuOut_IoExp_U38,"ax",%progbits
 882              	 .align 2
 883              	 .global VcuOut_IoExp_U38
 884              	 .thumb
 885              	 .thumb_func
 887              	VcuOut_IoExp_U38:
 888              	.LFB613:
 206:../VCU_OUT/State_1.c **** 
 207:../VCU_OUT/State_1.c ****  void VcuOut_IoExp_U38(void)
 208:../VCU_OUT/State_1.c ****  {
 889              	 .loc 3 208 0
 890              	 .cfi_startproc
 891              	 
 892              	 
 893              	 
 894 0000 80B4     	 push {r7}
 895              	.LCFI42:
 896              	 .cfi_def_cfa_offset 4
 897              	 .cfi_offset 7,-4
 898 0002 00AF     	 add r7,sp,#0
 899              	.LCFI43:
 900              	 .cfi_def_cfa_register 7
 209:../VCU_OUT/State_1.c **** 
 210:../VCU_OUT/State_1.c ****  }
 901              	 .loc 3 210 0
 902 0004 BD46     	 mov sp,r7
 903              	.LCFI44:
 904              	 .cfi_def_cfa_register 13
 905              	 
 906 0006 5DF8047B 	 ldr r7,[sp],#4
 907              	.LCFI45:
 908              	 .cfi_restore 7
 909              	 .cfi_def_cfa_offset 0
 910 000a 7047     	 bx lr
 911              	 .cfi_endproc
 912              	.LFE613:
 914              	 .section .text.VcuOut_IoExp_U48,"ax",%progbits
 915              	 .align 2
 916              	 .global VcuOut_IoExp_U48
 917              	 .thumb
 918              	 .thumb_func
 920              	VcuOut_IoExp_U48:
 921              	.LFB614:
 211:../VCU_OUT/State_1.c **** 
 212:../VCU_OUT/State_1.c ****  void VcuOut_IoExp_U48(void)
 213:../VCU_OUT/State_1.c ****  {
 922              	 .loc 3 213 0
 923              	 .cfi_startproc
 924              	 
 925              	 
 926              	 
 927 0000 80B4     	 push {r7}
 928              	.LCFI46:
 929              	 .cfi_def_cfa_offset 4
 930              	 .cfi_offset 7,-4
 931 0002 00AF     	 add r7,sp,#0
 932              	.LCFI47:
 933              	 .cfi_def_cfa_register 7
 214:../VCU_OUT/State_1.c **** 
 215:../VCU_OUT/State_1.c ****  }
 934              	 .loc 3 215 0
 935 0004 BD46     	 mov sp,r7
 936              	.LCFI48:
 937              	 .cfi_def_cfa_register 13
 938              	 
 939 0006 5DF8047B 	 ldr r7,[sp],#4
 940              	.LCFI49:
 941              	 .cfi_restore 7
 942              	 .cfi_def_cfa_offset 0
 943 000a 7047     	 bx lr
 944              	 .cfi_endproc
 945              	.LFE614:
 947              	 .section .text.faciaaswitches,"ax",%progbits
 948              	 .align 2
 949              	 .global faciaaswitches
 950              	 .thumb
 951              	 .thumb_func
 953              	faciaaswitches:
 954              	.LFB615:
 216:../VCU_OUT/State_1.c **** 
 217:../VCU_OUT/State_1.c ****  void faciaaswitches(void)
 218:../VCU_OUT/State_1.c ****  {
 955              	 .loc 3 218 0
 956              	 .cfi_startproc
 957              	 
 958              	 
 959 0000 80B5     	 push {r7,lr}
 960              	.LCFI50:
 961              	 .cfi_def_cfa_offset 8
 962              	 .cfi_offset 7,-8
 963              	 .cfi_offset 14,-4
 964 0002 00AF     	 add r7,sp,#0
 965              	.LCFI51:
 966              	 .cfi_def_cfa_register 7
 219:../VCU_OUT/State_1.c **** 	 if(Relay_Control_Switch_OUT.pos_light_OUT) /// pos light
 967              	 .loc 3 219 0
 968 0004 054B     	 ldr r3,.L42
 969 0006 9B78     	 ldrb r3,[r3,#2]
 970 0008 002B     	 cmp r3,#0
 971 000a 03D0     	 beq .L40
 220:../VCU_OUT/State_1.c **** 	{
 221:../VCU_OUT/State_1.c **** 		digital_io_setoutputhigh(&AUX_EFUSE_4_OUT_D);
 972              	 .loc 3 221 0
 973 000c 0448     	 ldr r0,.L42+4
 974 000e FFF7FEFF 	 bl digital_io_setoutputhigh
 975 0012 02E0     	 b .L39
 976              	.L40:
 222:../VCU_OUT/State_1.c **** 	}
 223:../VCU_OUT/State_1.c **** 	else
 224:../VCU_OUT/State_1.c **** 	{
 225:../VCU_OUT/State_1.c **** 		digital_io_setoutputlow(&AUX_EFUSE_4_OUT_D);
 977              	 .loc 3 225 0
 978 0014 0248     	 ldr r0,.L42+4
 979 0016 FFF7FEFF 	 bl digital_io_setoutputlow
 980              	.L39:
 226:../VCU_OUT/State_1.c **** 	}
 227:../VCU_OUT/State_1.c **** 
 228:../VCU_OUT/State_1.c ****  }
 981              	 .loc 3 228 0
 982 001a 80BD     	 pop {r7,pc}
 983              	.L43:
 984              	 .align 2
 985              	.L42:
 986 001c 00000000 	 .word Relay_Control_Switch_OUT
 987 0020 00000000 	 .word AUX_EFUSE_4_OUT_D
 988              	 .cfi_endproc
 989              	.LFE615:
 991              	 .section .text.dc_dc_state_update,"ax",%progbits
 992              	 .align 2
 993              	 .global dc_dc_state_update
 994              	 .thumb
 995              	 .thumb_func
 997              	dc_dc_state_update:
 998              	.LFB616:
 229:../VCU_OUT/State_1.c **** 
 230:../VCU_OUT/State_1.c ****  //check 12V battery voltage, if less than 12.5V then start DC to DC converter and 48V battery and 
 231:../VCU_OUT/State_1.c **** //only in ignition off mode as in ignition on mode DC to DC and 48V battery is always ON.
 232:../VCU_OUT/State_1.c **** //we can also add a flag to check if DC to DC converter is already on or not
 233:../VCU_OUT/State_1.c **** void dc_dc_state_update(void)
 234:../VCU_OUT/State_1.c **** {
 999              	 .loc 3 234 0
 1000              	 .cfi_startproc
 1001              	 
 1002              	 
 1003 0000 80B5     	 push {r7,lr}
 1004              	.LCFI52:
 1005              	 .cfi_def_cfa_offset 8
 1006              	 .cfi_offset 7,-8
 1007              	 .cfi_offset 14,-4
 1008 0002 00AF     	 add r7,sp,#0
 1009              	.LCFI53:
 1010              	 .cfi_def_cfa_register 7
 235:../VCU_OUT/State_1.c **** 	static bool dc_dc_started = false;
 236:../VCU_OUT/State_1.c **** 
 237:../VCU_OUT/State_1.c **** 	DROPPED_IN_12_volt(); //update voltage value
 1011              	 .loc 3 237 0
 1012 0004 FFF7FEFF 	 bl DROPPED_IN_12_volt
 238:../VCU_OUT/State_1.c **** 	if (DROPPED_IN_12V < 12.50f)
 1013              	 .loc 3 238 0
 1014 0008 1A4B     	 ldr r3,.L54
 1015 000a D3ED007A 	 flds s15,[r3]
 1016 000e B2EE097A 	 fconsts s14,#41
 1017 0012 F4EEC77A 	 fcmpes s15,s14
 1018 0016 F1EE10FA 	 fmstat
 1019 001a 09D5     	 bpl .L52
 239:../VCU_OUT/State_1.c **** //	if (DROPPED_IN_12V > 12.0f && DROPPED_IN_12V < 12.50f) //added for testing
 240:../VCU_OUT/State_1.c **** 	{
 241:../VCU_OUT/State_1.c **** 		//AUX_EFUSE_3_OUT_D output is connected to 48V battery input
 242:../VCU_OUT/State_1.c **** 		digital_io_setoutputhigh(&AUX_EFUSE_3_OUT_D); //48V battery
 1020              	 .loc 3 242 0
 1021 001c 1648     	 ldr r0,.L54+4
 1022 001e FFF7FEFF 	 bl digital_io_setoutputhigh
 243:../VCU_OUT/State_1.c **** 		//DIGITAL_IO_SetOutputLow(&DC_DC_EN_OUT_D); //FOR TRIPHASE DC TO DC converter
 244:../VCU_OUT/State_1.c **** 		DIGITAL_IO_SetOutputHigh(&DC_DC_EN_OUT_D); //for Madhura DC TO DC converter
 1023              	 .loc 3 244 0
 1024 0022 1648     	 ldr r0,.L54+8
 1025 0024 FFF7FEFF 	 bl DIGITAL_IO_SetOutputHigh
 245:../VCU_OUT/State_1.c **** 		dc_dc_started = true;
 1026              	 .loc 3 245 0
 1027 0028 154B     	 ldr r3,.L54+12
 1028 002a 0122     	 movs r2,#1
 1029 002c 1A70     	 strb r2,[r3]
 1030 002e 20E0     	 b .L44
 1031              	.L52:
 246:../VCU_OUT/State_1.c **** 	}
 247:../VCU_OUT/State_1.c **** 	else if (DROPPED_IN_12V > 13.50f)
 1032              	 .loc 3 247 0
 1033 0030 104B     	 ldr r3,.L54
 1034 0032 D3ED007A 	 flds s15,[r3]
 1035 0036 B2EE0B7A 	 fconsts s14,#43
 1036 003a F4EEC77A 	 fcmpes s15,s14
 1037 003e F1EE10FA 	 fmstat
 1038 0042 09DD     	 ble .L53
 248:../VCU_OUT/State_1.c **** 	{
 249:../VCU_OUT/State_1.c **** 		//AUX_EFUSE_3_OUT_D output is connected to 48V battery input
 250:../VCU_OUT/State_1.c **** 		digital_io_setoutputlow(&AUX_EFUSE_3_OUT_D); //48V battery
 1039              	 .loc 3 250 0
 1040 0044 0C48     	 ldr r0,.L54+4
 1041 0046 FFF7FEFF 	 bl digital_io_setoutputlow
 251:../VCU_OUT/State_1.c **** 		//DIGITAL_IO_SetOutputHigh(&DC_DC_EN_OUT_D); //FOR TRIPHASE DC TO DC converter
 252:../VCU_OUT/State_1.c **** 		DIGITAL_IO_SetOutputLow(&DC_DC_EN_OUT_D); //for Madhura DC TO DC converter
 1042              	 .loc 3 252 0
 1043 004a 0C48     	 ldr r0,.L54+8
 1044 004c FFF7FEFF 	 bl DIGITAL_IO_SetOutputLow
 253:../VCU_OUT/State_1.c **** 		dc_dc_started = false;
 1045              	 .loc 3 253 0
 1046 0050 0B4B     	 ldr r3,.L54+12
 1047 0052 0022     	 movs r2,#0
 1048 0054 1A70     	 strb r2,[r3]
 1049 0056 0CE0     	 b .L44
 1050              	.L53:
 254:../VCU_OUT/State_1.c **** 	}
 255:../VCU_OUT/State_1.c **** 	//when DC to DC is not started
 256:../VCU_OUT/State_1.c **** 	else if (dc_dc_started == false)
 1051              	 .loc 3 256 0
 1052 0058 094B     	 ldr r3,.L54+12
 1053 005a 1B78     	 ldrb r3,[r3]
 1054 005c 83F00103 	 eor r3,r3,#1
 1055 0060 DBB2     	 uxtb r3,r3
 1056 0062 002B     	 cmp r3,#0
 1057 0064 05D0     	 beq .L44
 257:../VCU_OUT/State_1.c **** 	{
 258:../VCU_OUT/State_1.c **** 		//if voltage is within range then do not turn on 48V battery as well as DC to DC converter
 259:../VCU_OUT/State_1.c **** 		digital_io_setoutputlow(&AUX_EFUSE_3_OUT_D);
 1058              	 .loc 3 259 0
 1059 0066 0448     	 ldr r0,.L54+4
 1060 0068 FFF7FEFF 	 bl digital_io_setoutputlow
 260:../VCU_OUT/State_1.c **** 		DIGITAL_IO_SetOutputLow(&DC_DC_EN_OUT_D);
 1061              	 .loc 3 260 0
 1062 006c 0348     	 ldr r0,.L54+8
 1063 006e FFF7FEFF 	 bl DIGITAL_IO_SetOutputLow
 1064              	.L44:
 261:../VCU_OUT/State_1.c **** 	}
 262:../VCU_OUT/State_1.c **** }
 1065              	 .loc 3 262 0
 1066 0072 80BD     	 pop {r7,pc}
 1067              	.L55:
 1068              	 .align 2
 1069              	.L54:
 1070 0074 00000000 	 .word DROPPED_IN_12V
 1071 0078 00000000 	 .word AUX_EFUSE_3_OUT_D
 1072 007c 00000000 	 .word DC_DC_EN_OUT_D
 1073 0080 00000000 	 .word dc_dc_started.14026
 1074              	 .cfi_endproc
 1075              	.LFE616:
 1077              	 .section .bss.dc_dc_started.14026,"aw",%nobits
 1080              	dc_dc_started.14026:
 1081 0000 00       	 .space 1
 1082              	 .text
 1083              	.Letext0:
 1084              	 .file 4 "c:\\infineon\\tools\\dave ide\\4.5.0.202105191637\\eclipse\\arm-gcc-49\\arm-none-eabi\\include\\machine\\_default_types.h"
 1085              	 .file 5 "c:\\infineon\\tools\\dave ide\\4.5.0.202105191637\\eclipse\\arm-gcc-49\\arm-none-eabi\\include\\stdint.h"
 1086              	 .file 6 "D:/Projects/VCU Firmware Main/IRP/Git Repo/VCU14_29bit_overCAN_withIRP_new4g_proto26_adding_All10sec_data/Libraries/XMCLib/inc/xmc4_gpio.h"
 1087              	 .file 7 "D:/Projects/VCU Firmware Main/IRP/Git Repo/VCU14_29bit_overCAN_withIRP_new4g_proto26_adding_All10sec_data/Libraries/XMCLib/inc/xmc_usic.h"
 1088              	 .file 8 "c:\\infineon\\tools\\dave ide\\4.5.0.202105191637\\eclipse\\arm-gcc-49\\arm-none-eabi\\include\\sys\\types.h"
 1089              	 .file 9 "D:/Projects/VCU Firmware Main/IRP/Git Repo/VCU14_29bit_overCAN_withIRP_new4g_proto26_adding_All10sec_data/Libraries/XMCLib/inc/xmc_rtc.h"
 1090              	 .file 10 "D:/Projects/VCU Firmware Main/IRP/Git Repo/VCU14_29bit_overCAN_withIRP_new4g_proto26_adding_All10sec_data/Libraries/XMCLib/inc/xmc_spi.h"
 1091              	 .file 11 "D:/Projects/VCU Firmware Main/IRP/Git Repo/VCU14_29bit_overCAN_withIRP_new4g_proto26_adding_All10sec_data/Vcu_Config.h"
 1092              	 .file 12 "D:/Projects/VCU Firmware Main/IRP/Git Repo/VCU14_29bit_overCAN_withIRP_new4g_proto26_adding_All10sec_data/Vcu_Init.h"
 1093              	 .file 13 "D:/Projects/VCU Firmware Main/IRP/Git Repo/VCU14_29bit_overCAN_withIRP_new4g_proto26_adding_All10sec_data/can_matrix.h"
 1094              	 .file 14 "../VCU_OUT/ADS7961_LIB_2.h"
 1095              	 .file 15 "D:/Projects/VCU Firmware Main/IRP/Git Repo/VCU14_29bit_overCAN_withIRP_new4g_proto26_adding_All10sec_data/Libraries/CMSIS/Include/cmsis_gcc.h"
 1096              	 .file 16 "D:/Projects/VCU Firmware Main/IRP/Git Repo/VCU14_29bit_overCAN_withIRP_new4g_proto26_adding_All10sec_data/Libraries/CMSIS/Include/core_cm4.h"
 1097              	 .file 17 "D:/Projects/VCU Firmware Main/IRP/Git Repo/VCU14_29bit_overCAN_withIRP_new4g_proto26_adding_All10sec_data/Libraries/CMSIS/Infineon/XMC4700_series/Include/system_XMC4700.h"
 1098              	 .file 18 "D:/Projects/VCU Firmware Main/IRP/Git Repo/VCU14_29bit_overCAN_withIRP_new4g_proto26_adding_All10sec_data/Dave/Generated/DIGITAL_IO/digital_io_extern.h"