   1              	 .syntax unified
   2              	 .cpu cortex-m4
   3              	 .eabi_attribute 27,3
   4              	 .fpu fpv4-sp-d16
   5              	 .eabi_attribute 20,1
   6              	 .eabi_attribute 21,1
   7              	 .eabi_attribute 23,3
   8              	 .eabi_attribute 24,1
   9              	 .eabi_attribute 25,1
  10              	 .eabi_attribute 26,1
  11              	 .eabi_attribute 30,6
  12              	 .eabi_attribute 34,1
  13              	 .eabi_attribute 18,4
  14              	 .thumb
  15              	 .file "4g_data_process.c"
  16              	 .text
  17              	.Ltext0:
  18              	 .cfi_sections .debug_frame
  19              	 .comm cluster_door_in,4,4
  20              	 .comm Vcu_OutPuts,3,4
  21              	 .comm Combi_Switch_IN,8,4
  22              	 .comm Seat_Switch_IN,3,4
  23              	 .comm Door_Switch_IN,7,4
  24              	 .comm Relay_Control_Switch_OUT,47,4
  25              	 .comm Hvac_IN,24,4
  26              	 .comm Switch_Ios_IN,20,4
  27              	 .comm Motor_controller_OUT,5,4
  28              	 .comm Lights_OUT,8,4
  29              	 .comm Sensors_OUT,8,4
  30              	 .comm Aux_Inputs,6,4
  31              	 .comm Instrument_Cluster_OUT,18,4
  32              	 .comm Seat_Belt_OUT,3,4
  33              	 .comm Gear_OUT,4,4
  34              	 .comm Instrumetcluster_DriveMode_OUT,4,4
  35              	 .comm Door_Switch_OUT,7,4
  36              	 .comm instrument_cluster_doorsvar,7,4
  37              	 .comm cluster_door_out,4,4
  38              	 .comm current_time,8,4
  39              	 .comm timeval,8,4
  40              	 .comm GPS_data_val,16,4
  41              	 .comm epoch,4,4
  42              	 .comm ambient_temp,1,1
  43              	 .comm BMS_SOC,1,1
  44              	 .comm CAN_MSG_DB_HVAC,60,4
  45              	 .comm eps_status,4,4
  46              	 .comm instrument_clustor_doors,1,1
  47              	 .comm CAN_BMS_29bit,132,4
  48              	 .comm CAN_IRP_29bit,132,4
  49              	 .comm charge_complete,1,1
  50              	 .comm charging_started,1,1
  51              	 .comm Bms_SOC,2,2
  52              	 .comm Bms_SOH,2,2
  53              	 .comm Mapped_BMS_SOC,1,1
  54              	 .comm Bms_minTemp,2,2
  55              	 .comm Bms_maxTemp,2,2
  56              	 .comm PackCurrent,4,4
  57              	 .comm PackVoltage,4,4
  58              	 .comm RegenerativeCurrentLimit,2,2
  59              	 .comm ChargeCurrentLimit,2,2
  60              	 .comm DischargeCurrentLimit,2,2
  61              	 .comm HvBatteryPower,4,4
  62              	 .comm bmsFault1,4,4
  63              	 .comm bmsFault2,4,4
  64              	 .comm GtakeFaults,4,4
  65              	 .comm allFault_indicator,3,4
  66              	 .comm cluster_Fault_Indicator,4,4
  67              	 .comm Mcu_Temp,4,4
  68              	 .comm Motor_Temp,4,4
  69              	 .comm VehicleSpeedglb,2,2
  70              	 .comm OBDII_CAN,60,4
  71              	 .comm OBD_data,2,2
  72              	 .comm Irp_Mcu_drive_states_29bit,4,4
  73              	 .comm Irp_Mcu_BMS_states_29bit,4,4
  74              	 .comm Irp_Mcu_Torques_29bit,4,4
  75              	 .comm Irp_Mcu_BMS_Currents_29bit,4,4
  76              	 .comm Irp_MCU_Status_29bit,4,4
  77              	 .comm Irp_MCU_Faults_29bit,4,4
  78              	 .comm DC_Current_irp,2,2
  79              	 .comm MotorPower_Irp,2,2
  80              	 .comm Torque_Estimation,2,2
  81              	 .comm DC_Voltage_irp,2,2
  82              	 .comm Mcu_Temp_Irp,2,2
  83              	 .comm Motor_Temp_Irp,2,2
  84              	 .comm RPM,2,2
  85              	 .comm Regenration_flag,1,1
  86              	 .comm hv_count,2,2
  87              	 .comm BMS_Avg_temp,4,4
  88              	 .comm AC_ON_4g,1,1
  89              	 .comm speed_4g,2,2
  90              	 .comm gb_isMqttConnected,1,1
  91              	 .global Distance
  92              	 .section .data.Distance,"aw",%progbits
  93              	 .align 1
  96              	Distance:
  97 0000 0100     	 .short 1
  98              	 .global starttime
  99              	 .section .bss.starttime,"aw",%nobits
 100              	 .align 2
 103              	starttime:
 104 0000 00000000 	 .space 4
 105              	 .global RTC_Day
 106              	 .section .bss.RTC_Day,"aw",%nobits
 109              	RTC_Day:
 110 0000 00       	 .space 1
 111              	 .comm TD1,100,4
 112              	 .global Eventbuffer_4Gcomm
 113              	 .section .bss.Eventbuffer_4Gcomm,"aw",%nobits
 114              	 .align 2
 117              	Eventbuffer_4Gcomm:
 118 0000 00000000 	 .space 512
 118      00000000 
 118      00000000 
 118      00000000 
 118      00000000 
 119              	 .section .text.Process_4G_Event_Data,"ax",%progbits
 120              	 .align 2
 121              	 .global Process_4G_Event_Data
 122              	 .thumb
 123              	 .thumb_func
 125              	Process_4G_Event_Data:
 126              	.LFB605:
 127              	 .file 1 "../4g_module/4g_data_process.c"
   1:../4g_module/4g_data_process.c **** 
   2:../4g_module/4g_data_process.c **** #include "VCU_PROCESS/Vcu_Process.h"
   3:../4g_module/4g_data_process.c **** #include "InputCapture/InputCapture.h"
   4:../4g_module/4g_data_process.c **** #include "Vcu_Config.h"
   5:../4g_module/4g_data_process.c **** #include "can_matrix.h"
   6:../4g_module/4g_data_process.c **** #include "string.h"
   7:../4g_module/4g_data_process.c **** #include "4g_data_process.h"
   8:../4g_module/4g_data_process.c **** #include "4g_module/mdm_handler.h"
   9:../4g_module/4g_data_process.c **** 
  10:../4g_module/4g_data_process.c **** uint16_t Distance = 1;
  11:../4g_module/4g_data_process.c **** time_t starttime = 0;
  12:../4g_module/4g_data_process.c **** uint8_t RTC_Day = 0;
  13:../4g_module/4g_data_process.c **** 
  14:../4g_module/4g_data_process.c **** vcu_fleet_fleet_10_sec TD1;
  15:../4g_module/4g_data_process.c **** uint8_t Eventbuffer_4Gcomm[512]={0};
  16:../4g_module/4g_data_process.c **** 
  17:../4g_module/4g_data_process.c **** void Process_4G_Event_Data(void)
  18:../4g_module/4g_data_process.c **** {
 128              	 .loc 1 18 0
 129              	 .cfi_startproc
 130              	 
 131              	 
 132 0000 80B5     	 push {r7,lr}
 133              	.LCFI0:
 134              	 .cfi_def_cfa_offset 8
 135              	 .cfi_offset 7,-8
 136              	 .cfi_offset 14,-4
 137 0002 00AF     	 add r7,sp,#0
 138              	.LCFI1:
 139              	 .cfi_def_cfa_register 7
  19:../4g_module/4g_data_process.c **** 
  20:../4g_module/4g_data_process.c **** 	memset(&TD1,0,sizeof(TD1));
 140              	 .loc 1 20 0
 141 0004 5F48     	 ldr r0,.L2
 142 0006 0021     	 movs r1,#0
 143 0008 6422     	 movs r2,#100
 144 000a FFF7FEFF 	 bl memset
  21:../4g_module/4g_data_process.c **** 	TD1.car_id = 10;
 145              	 .loc 1 21 0
 146 000e 5D4B     	 ldr r3,.L2
 147 0010 0022     	 movs r2,#0
 148 0012 42F00A02 	 orr r2,r2,#10
 149 0016 1A70     	 strb r2,[r3]
 150 0018 0022     	 movs r2,#0
 151 001a 5A70     	 strb r2,[r3,#1]
 152 001c 0022     	 movs r2,#0
 153 001e 9A70     	 strb r2,[r3,#2]
 154 0020 0022     	 movs r2,#0
 155 0022 DA70     	 strb r2,[r3,#3]
  22:../4g_module/4g_data_process.c **** 	TD1.trip_id = 81050;
 156              	 .loc 1 22 0
 157 0024 574B     	 ldr r3,.L2
 158 0026 0022     	 movs r2,#0
 159 0028 62F06502 	 orn r2,r2,#101
 160 002c 1A71     	 strb r2,[r3,#4]
 161 002e 0022     	 movs r2,#0
 162 0030 42F03C02 	 orr r2,r2,#60
 163 0034 5A71     	 strb r2,[r3,#5]
 164 0036 0022     	 movs r2,#0
 165 0038 42F00102 	 orr r2,r2,#1
 166 003c 9A71     	 strb r2,[r3,#6]
 167 003e 0022     	 movs r2,#0
 168 0040 DA71     	 strb r2,[r3,#7]
  23:../4g_module/4g_data_process.c **** 	TD1.identifier = 318;
 169              	 .loc 1 23 0
 170 0042 504B     	 ldr r3,.L2
 171 0044 0022     	 movs r2,#0
 172 0046 42F03E02 	 orr r2,r2,#62
 173 004a 83F86020 	 strb r2,[r3,#96]
 174 004e 0022     	 movs r2,#0
 175 0050 42F00102 	 orr r2,r2,#1
 176 0054 83F86120 	 strb r2,[r3,#97]
 177 0058 0022     	 movs r2,#0
 178 005a 83F86220 	 strb r2,[r3,#98]
 179 005e 0022     	 movs r2,#0
 180 0060 83F86320 	 strb r2,[r3,#99]
  24:../4g_module/4g_data_process.c **** //	TD1.rtc.month = current_time.month;
  25:../4g_module/4g_data_process.c **** //	TD1.rtc.days = current_time.days;
  26:../4g_module/4g_data_process.c **** //	TD1.rtc.day_of_week = current_time.daysofweek;
  27:../4g_module/4g_data_process.c **** //	TD1.rtc.hours = current_time.hours;
  28:../4g_module/4g_data_process.c **** //	TD1.rtc.minutes = current_time.minutes;
  29:../4g_module/4g_data_process.c **** //	TD1.rtc.seconds = current_time.seconds;
  30:../4g_module/4g_data_process.c **** 	TD1.hv_soc_calculated =Mapped_BMS_SOC;
 181              	 .loc 1 30 0
 182 0064 484B     	 ldr r3,.L2+4
 183 0066 1B78     	 ldrb r3,[r3]
 184 0068 1A46     	 mov r2,r3
 185 006a 464B     	 ldr r3,.L2
 186 006c 9A61     	 str r2,[r3,#24]
  31:../4g_module/4g_data_process.c **** 	TD1.soc = ((int)(CAN_BMS_29bit[CAN_0X180FA7F3].CAN_Data[1] << 8) | CAN_BMS_29bit[CAN_0X180FA7F3].C
 187              	 .loc 1 31 0
 188 006e 474B     	 ldr r3,.L2+8
 189 0070 5B7C     	 ldrb r3,[r3,#17]
 190 0072 1B02     	 lsls r3,r3,#8
 191 0074 454A     	 ldr r2,.L2+8
 192 0076 127C     	 ldrb r2,[r2,#16]
 193 0078 1343     	 orrs r3,r3,r2
 194 007a 1A46     	 mov r2,r3
 195 007c 414B     	 ldr r3,.L2
 196 007e 5A61     	 str r2,[r3,#20]
  32:../4g_module/4g_data_process.c **** 	TD1.battery_temp=BMS_Avg_temp;
 197              	 .loc 1 32 0
 198 0080 434B     	 ldr r3,.L2+12
 199 0082 1B68     	 ldr r3,[r3]
 200 0084 1A46     	 mov r2,r3
 201 0086 3F4B     	 ldr r3,.L2
 202 0088 DA61     	 str r2,[r3,#28]
  33:../4g_module/4g_data_process.c **** 	TD1.odometer = CalOdometer();//52;//will get from cluster
 203              	 .loc 1 33 0
 204 008a FFF7FEFF 	 bl CalOdometer
 205 008e 0246     	 mov r2,r0
 206 0090 3C4B     	 ldr r3,.L2
 207 0092 9A62     	 str r2,[r3,#40]
  34:../4g_module/4g_data_process.c **** 	TD1.charging_indicator = Vcu_InPuts.charger_connect_IN;
 208              	 .loc 1 34 0
 209 0094 3F4B     	 ldr r3,.L2+16
 210 0096 9B78     	 ldrb r3,[r3,#2]
 211 0098 1A46     	 mov r2,r3
 212 009a 3A4B     	 ldr r3,.L2
 213 009c 9A63     	 str r2,[r3,#56]
  35:../4g_module/4g_data_process.c **** 	TD1.dte = ((TD1.soc)*2);
 214              	 .loc 1 35 0
 215 009e 394B     	 ldr r3,.L2
 216 00a0 5B69     	 ldr r3,[r3,#20]
 217 00a2 5B00     	 lsls r3,r3,#1
 218 00a4 374A     	 ldr r2,.L2
 219 00a6 D363     	 str r3,[r2,#60]
  36:../4g_module/4g_data_process.c **** 	TD1.mcu_temp_1=Mcu_Temp_Irp;
 220              	 .loc 1 36 0
 221 00a8 3B4B     	 ldr r3,.L2+20
 222 00aa 1B88     	 ldrh r3,[r3]
 223 00ac 1A46     	 mov r2,r3
 224 00ae 354B     	 ldr r3,.L2
 225 00b0 1A62     	 str r2,[r3,#32]
  37:../4g_module/4g_data_process.c **** 	TD1.ac_status = AC_ON_4g;//CAN_MSG_DB_HVAC[CAN_0x100].CAN_Data[2];
 226              	 .loc 1 37 0
 227 00b2 3A4B     	 ldr r3,.L2+24
 228 00b4 1B78     	 ldrb r3,[r3]
 229 00b6 1A46     	 mov r2,r3
 230 00b8 324B     	 ldr r3,.L2
 231 00ba 1A64     	 str r2,[r3,#64]
  38:../4g_module/4g_data_process.c **** 	TD1.min_cell_temp = ((int)((CAN_BMS_29bit[CAN_0X180CA7F3].CAN_Data[3] << 8) | CAN_BMS_29bit[CAN_0X
 232              	 .loc 1 38 0
 233 00bc 334B     	 ldr r3,.L2+8
 234 00be 93F85B30 	 ldrb r3,[r3,#91]
 235 00c2 1B02     	 lsls r3,r3,#8
 236 00c4 314A     	 ldr r2,.L2+8
 237 00c6 92F85A20 	 ldrb r2,[r2,#90]
 238 00ca 1343     	 orrs r3,r3,r2
 239 00cc 1A46     	 mov r2,r3
 240 00ce 2D4B     	 ldr r3,.L2
 241 00d0 5A64     	 str r2,[r3,#68]
  39:../4g_module/4g_data_process.c **** 	TD1.max_cell_temp = ((int)((CAN_BMS_29bit[CAN_0X180CA7F3].CAN_Data[3] << 8) | CAN_BMS_29bit[CAN_0X
 242              	 .loc 1 39 0
 243 00d2 2E4B     	 ldr r3,.L2+8
 244 00d4 93F85B30 	 ldrb r3,[r3,#91]
 245 00d8 1B02     	 lsls r3,r3,#8
 246 00da 2C4A     	 ldr r2,.L2+8
 247 00dc 92F85A20 	 ldrb r2,[r2,#90]
 248 00e0 1343     	 orrs r3,r3,r2
 249 00e2 1A46     	 mov r2,r3
 250 00e4 274B     	 ldr r3,.L2
 251 00e6 9A64     	 str r2,[r3,#72]
  40:../4g_module/4g_data_process.c **** 	TD1.min_cell_voltage = ((int)((CAN_BMS_29bit[CAN_0X1808A7F3].CAN_Data[3] << 8) | CAN_BMS_29bit[CAN
 252              	 .loc 1 40 0
 253 00e8 284B     	 ldr r3,.L2+8
 254 00ea 93F86730 	 ldrb r3,[r3,#103]
 255 00ee 1B02     	 lsls r3,r3,#8
 256 00f0 264A     	 ldr r2,.L2+8
 257 00f2 92F86620 	 ldrb r2,[r2,#102]
 258 00f6 1343     	 orrs r3,r3,r2
 259 00f8 1A46     	 mov r2,r3
 260 00fa 224B     	 ldr r3,.L2
 261 00fc DA64     	 str r2,[r3,#76]
  41:../4g_module/4g_data_process.c **** 	TD1.max_cell_voltage = ((int)((CAN_BMS_29bit[CAN_0X1808A7F3].CAN_Data[1] << 8) | CAN_BMS_29bit[CAN
 262              	 .loc 1 41 0
 263 00fe 234B     	 ldr r3,.L2+8
 264 0100 93F86530 	 ldrb r3,[r3,#101]
 265 0104 1B02     	 lsls r3,r3,#8
 266 0106 214A     	 ldr r2,.L2+8
 267 0108 92F86420 	 ldrb r2,[r2,#100]
 268 010c 1343     	 orrs r3,r3,r2
 269 010e 1A46     	 mov r2,r3
 270 0110 1C4B     	 ldr r3,.L2
 271 0112 1A65     	 str r2,[r3,#80]
  42:../4g_module/4g_data_process.c **** 	TD1.pack_voltage = ((int)((CAN_BMS_29bit[CAN_0X180FA7F3].CAN_Data[7] << 8) | CAN_BMS_29bit[CAN_0X1
 272              	 .loc 1 42 0
 273 0114 1D4B     	 ldr r3,.L2+8
 274 0116 DB7D     	 ldrb r3,[r3,#23]
 275 0118 1B02     	 lsls r3,r3,#8
 276 011a 1C4A     	 ldr r2,.L2+8
 277 011c 927D     	 ldrb r2,[r2,#22]
 278 011e 1343     	 orrs r3,r3,r2
 279 0120 1A46     	 mov r2,r3
 280 0122 184B     	 ldr r3,.L2
 281 0124 1A63     	 str r2,[r3,#48]
  43:../4g_module/4g_data_process.c **** 	TD1.pack_current = PackCurrent;//((int)((CAN_BMS_29bit[CAN_0X180EA7F3].CAN_Data[1] << 8) | CAN_BMS
 282              	 .loc 1 43 0
 283 0126 1E4B     	 ldr r3,.L2+28
 284 0128 1B68     	 ldr r3,[r3]
 285 012a 164A     	 ldr r2,.L2
 286 012c 5363     	 str r3,[r2,#52]
  44:../4g_module/4g_data_process.c **** 	TD1.longitude = GPS_data_val.longitude;
 287              	 .loc 1 44 0
 288 012e 1D4B     	 ldr r3,.L2+32
 289 0130 1B68     	 ldr r3,[r3]
 290 0132 144A     	 ldr r2,.L2
 291 0134 1361     	 str r3,[r2,#16]
  45:../4g_module/4g_data_process.c **** 	TD1.latitude = GPS_data_val.latitude ;
 292              	 .loc 1 45 0
 293 0136 1B4B     	 ldr r3,.L2+32
 294 0138 5B68     	 ldr r3,[r3,#4]
 295 013a 124A     	 ldr r2,.L2
 296 013c D360     	 str r3,[r2,#12]
  46:../4g_module/4g_data_process.c **** 	TD1.altitude = GPS_data_val.altitude ;
 297              	 .loc 1 46 0
 298 013e 194B     	 ldr r3,.L2+32
 299 0140 9B68     	 ldr r3,[r3,#8]
 300 0142 1A46     	 mov r2,r3
 301 0144 0F4B     	 ldr r3,.L2
 302 0146 5A65     	 str r2,[r3,#84]
  47:../4g_module/4g_data_process.c **** 	TD1.direction = GPS_data_val.direction;
 303              	 .loc 1 47 0
 304 0148 164B     	 ldr r3,.L2+32
 305 014a DB68     	 ldr r3,[r3,#12]
 306 014c 1A46     	 mov r2,r3
 307 014e 0D4B     	 ldr r3,.L2
 308 0150 9A65     	 str r2,[r3,#88]
  48:../4g_module/4g_data_process.c **** 	TD1.speed = speed_4g;
 309              	 .loc 1 48 0
 310 0152 154B     	 ldr r3,.L2+36
 311 0154 1B88     	 ldrh r3,[r3]
 312 0156 1A46     	 mov r2,r3
 313 0158 0A4B     	 ldr r3,.L2
 314 015a 5A62     	 str r2,[r3,#36]
  49:../4g_module/4g_data_process.c **** 	TD1.soh = (int)((CAN_BMS_29bit[CAN_0X180FA7F3].CAN_Data[3] << 8) | CAN_BMS_29bit[CAN_0X180FA7F3].C
 315              	 .loc 1 49 0
 316 015c 0B4B     	 ldr r3,.L2+8
 317 015e DB7C     	 ldrb r3,[r3,#19]
 318 0160 1B02     	 lsls r3,r3,#8
 319 0162 0A4A     	 ldr r2,.L2+8
 320 0164 927C     	 ldrb r2,[r2,#18]
 321 0166 1343     	 orrs r3,r3,r2
 322 0168 1A46     	 mov r2,r3
 323 016a 064B     	 ldr r3,.L2
 324 016c DA65     	 str r2,[r3,#92]
  50:../4g_module/4g_data_process.c ****     TD1.timestamp = epoch;
 325              	 .loc 1 50 0
 326 016e 0F4B     	 ldr r3,.L2+40
 327 0170 1B68     	 ldr r3,[r3]
 328 0172 044A     	 ldr r2,.L2
 329 0174 9360     	 str r3,[r2,#8]
  51:../4g_module/4g_data_process.c ****     TD1.ambient_temp=  ambient_temp;
 330              	 .loc 1 51 0
 331 0176 0E4B     	 ldr r3,.L2+44
 332 0178 1B78     	 ldrb r3,[r3]
 333 017a 1A46     	 mov r2,r3
 334 017c 014B     	 ldr r3,.L2
 335 017e DA62     	 str r2,[r3,#44]
  52:../4g_module/4g_data_process.c **** }
 336              	 .loc 1 52 0
 337 0180 80BD     	 pop {r7,pc}
 338              	.L3:
 339 0182 00BF     	 .align 2
 340              	.L2:
 341 0184 00000000 	 .word TD1
 342 0188 00000000 	 .word Mapped_BMS_SOC
 343 018c 00000000 	 .word CAN_BMS_29bit
 344 0190 00000000 	 .word BMS_Avg_temp
 345 0194 00000000 	 .word Vcu_InPuts
 346 0198 00000000 	 .word Mcu_Temp_Irp
 347 019c 00000000 	 .word AC_ON_4g
 348 01a0 00000000 	 .word PackCurrent
 349 01a4 00000000 	 .word GPS_data_val
 350 01a8 00000000 	 .word speed_4g
 351 01ac 00000000 	 .word epoch
 352 01b0 00000000 	 .word ambient_temp
 353              	 .cfi_endproc
 354              	.LFE605:
 356              	 .section .text.set_RTC,"ax",%progbits
 357              	 .align 2
 358              	 .global set_RTC
 359              	 .thumb
 360              	 .thumb_func
 362              	set_RTC:
 363              	.LFB606:
  53:../4g_module/4g_data_process.c **** 
  54:../4g_module/4g_data_process.c **** 
  55:../4g_module/4g_data_process.c **** 	//Process_4G_Event_Data(0);
  56:../4g_module/4g_data_process.c **** 	//memset(Eventbuffer_4Gcomm, 0, 512);//change to 512
  57:../4g_module/4g_data_process.c **** 
  58:../4g_module/4g_data_process.c **** 	//pb_ostream_t stream1;
  59:../4g_module/4g_data_process.c **** 
  60:../4g_module/4g_data_process.c **** 	//stream1 =  pb_ostream_from_buffer(Eventbuffer_4Gcomm,sizeof(Eventbuffer_4Gcomm));
  61:../4g_module/4g_data_process.c **** 	//pb_encode(&stream1,vcu_fleet_fleet_10_sec_fields, &TD1);
  62:../4g_module/4g_data_process.c **** void set_RTC(void)
  63:../4g_module/4g_data_process.c **** {
 364              	 .loc 1 63 0
 365              	 .cfi_startproc
 366              	 
 367              	 
 368 0000 80B5     	 push {r7,lr}
 369              	.LCFI2:
 370              	 .cfi_def_cfa_offset 8
 371              	 .cfi_offset 7,-8
 372              	 .cfi_offset 14,-4
 373 0002 8AB0     	 sub sp,sp,#40
 374              	.LCFI3:
 375              	 .cfi_def_cfa_offset 48
 376 0004 00AF     	 add r7,sp,#0
 377              	.LCFI4:
 378              	 .cfi_def_cfa_register 7
  64:../4g_module/4g_data_process.c **** 	uint8_t Timebuf[35]={0};
 379              	 .loc 1 64 0
 380 0006 3B1D     	 adds r3,r7,#4
 381 0008 0022     	 movs r2,#0
 382 000a 1A60     	 str r2,[r3]
 383 000c 0433     	 adds r3,r3,#4
 384 000e 0022     	 movs r2,#0
 385 0010 1A60     	 str r2,[r3]
 386 0012 0433     	 adds r3,r3,#4
 387 0014 0022     	 movs r2,#0
 388 0016 1A60     	 str r2,[r3]
 389 0018 0433     	 adds r3,r3,#4
 390 001a 0022     	 movs r2,#0
 391 001c 1A60     	 str r2,[r3]
 392 001e 0433     	 adds r3,r3,#4
 393 0020 0022     	 movs r2,#0
 394 0022 1A60     	 str r2,[r3]
 395 0024 0433     	 adds r3,r3,#4
 396 0026 0022     	 movs r2,#0
 397 0028 1A60     	 str r2,[r3]
 398 002a 0433     	 adds r3,r3,#4
 399 002c 0022     	 movs r2,#0
 400 002e 1A60     	 str r2,[r3]
 401 0030 0433     	 adds r3,r3,#4
 402 0032 0022     	 movs r2,#0
 403 0034 1A60     	 str r2,[r3]
 404 0036 0433     	 adds r3,r3,#4
 405 0038 0022     	 movs r2,#0
 406 003a 1A80     	 strh r2,[r3]
 407 003c 0233     	 adds r3,r3,#2
 408 003e 0022     	 movs r2,#0
 409 0040 1A70     	 strb r2,[r3]
 410 0042 0133     	 adds r3,r3,#1
  65:../4g_module/4g_data_process.c **** 	mod_getCurrentTime(Timebuf);
 411              	 .loc 1 65 0
 412 0044 3B1D     	 adds r3,r7,#4
 413 0046 1846     	 mov r0,r3
 414 0048 FFF7FEFF 	 bl mod_getCurrentTime
  66:../4g_module/4g_data_process.c **** 	timeval.year = (((Timebuf[0]-'0')*10)+(Timebuf[1]-'0'));
 415              	 .loc 1 66 0
 416 004c 3B79     	 ldrb r3,[r7,#4]
 417 004e 303B     	 subs r3,r3,#48
 418 0050 9BB2     	 uxth r3,r3
 419 0052 1A46     	 mov r2,r3
 420 0054 9200     	 lsls r2,r2,#2
 421 0056 1344     	 add r3,r3,r2
 422 0058 5B00     	 lsls r3,r3,#1
 423 005a 9AB2     	 uxth r2,r3
 424 005c 7B79     	 ldrb r3,[r7,#5]
 425 005e 9BB2     	 uxth r3,r3
 426 0060 1344     	 add r3,r3,r2
 427 0062 9BB2     	 uxth r3,r3
 428 0064 303B     	 subs r3,r3,#48
 429 0066 9AB2     	 uxth r2,r3
 430 0068 3B4B     	 ldr r3,.L5
 431 006a DA80     	 strh r2,[r3,#6]
  67:../4g_module/4g_data_process.c **** 	timeval.month = (((Timebuf[3]-'0')*10)+(Timebuf[4]-'0'));
 432              	 .loc 1 67 0
 433 006c FB79     	 ldrb r3,[r7,#7]
 434 006e 303B     	 subs r3,r3,#48
 435 0070 DBB2     	 uxtb r3,r3
 436 0072 1A46     	 mov r2,r3
 437 0074 9200     	 lsls r2,r2,#2
 438 0076 1344     	 add r3,r3,r2
 439 0078 5B00     	 lsls r3,r3,#1
 440 007a DAB2     	 uxtb r2,r3
 441 007c 3B7A     	 ldrb r3,[r7,#8]
 442 007e 1344     	 add r3,r3,r2
 443 0080 DBB2     	 uxtb r3,r3
 444 0082 303B     	 subs r3,r3,#48
 445 0084 DBB2     	 uxtb r3,r3
 446 0086 03F00F03 	 and r3,r3,#15
 447 008a D9B2     	 uxtb r1,r3
 448 008c 324A     	 ldr r2,.L5
 449 008e 5379     	 ldrb r3,[r2,#5]
 450 0090 61F30303 	 bfi r3,r1,#0,#4
 451 0094 5371     	 strb r3,[r2,#5]
  68:../4g_module/4g_data_process.c **** 	timeval.days = (((Timebuf[6]-'0')*10)+(Timebuf[7]-'0'));
 452              	 .loc 1 68 0
 453 0096 BB7A     	 ldrb r3,[r7,#10]
 454 0098 303B     	 subs r3,r3,#48
 455 009a DBB2     	 uxtb r3,r3
 456 009c 1A46     	 mov r2,r3
 457 009e 9200     	 lsls r2,r2,#2
 458 00a0 1344     	 add r3,r3,r2
 459 00a2 5B00     	 lsls r3,r3,#1
 460 00a4 DAB2     	 uxtb r2,r3
 461 00a6 FB7A     	 ldrb r3,[r7,#11]
 462 00a8 1344     	 add r3,r3,r2
 463 00aa DBB2     	 uxtb r3,r3
 464 00ac 303B     	 subs r3,r3,#48
 465 00ae DBB2     	 uxtb r3,r3
 466 00b0 03F01F03 	 and r3,r3,#31
 467 00b4 D9B2     	 uxtb r1,r3
 468 00b6 284A     	 ldr r2,.L5
 469 00b8 D378     	 ldrb r3,[r2,#3]
 470 00ba 61F30403 	 bfi r3,r1,#0,#5
 471 00be D370     	 strb r3,[r2,#3]
  69:../4g_module/4g_data_process.c **** 	timeval.hours = (((Timebuf[9]-'0')*10)+(Timebuf[10]-'0'));
 472              	 .loc 1 69 0
 473 00c0 7B7B     	 ldrb r3,[r7,#13]
 474 00c2 303B     	 subs r3,r3,#48
 475 00c4 DBB2     	 uxtb r3,r3
 476 00c6 1A46     	 mov r2,r3
 477 00c8 9200     	 lsls r2,r2,#2
 478 00ca 1344     	 add r3,r3,r2
 479 00cc 5B00     	 lsls r3,r3,#1
 480 00ce DAB2     	 uxtb r2,r3
 481 00d0 BB7B     	 ldrb r3,[r7,#14]
 482 00d2 1344     	 add r3,r3,r2
 483 00d4 DBB2     	 uxtb r3,r3
 484 00d6 303B     	 subs r3,r3,#48
 485 00d8 DBB2     	 uxtb r3,r3
 486 00da 03F01F03 	 and r3,r3,#31
 487 00de D9B2     	 uxtb r1,r3
 488 00e0 1D4A     	 ldr r2,.L5
 489 00e2 9378     	 ldrb r3,[r2,#2]
 490 00e4 61F30403 	 bfi r3,r1,#0,#5
 491 00e8 9370     	 strb r3,[r2,#2]
  70:../4g_module/4g_data_process.c **** 	timeval.minutes = (((Timebuf[12]-'0')*10)+(Timebuf[13]-'0'));
 492              	 .loc 1 70 0
 493 00ea 3B7C     	 ldrb r3,[r7,#16]
 494 00ec 303B     	 subs r3,r3,#48
 495 00ee DBB2     	 uxtb r3,r3
 496 00f0 1A46     	 mov r2,r3
 497 00f2 9200     	 lsls r2,r2,#2
 498 00f4 1344     	 add r3,r3,r2
 499 00f6 5B00     	 lsls r3,r3,#1
 500 00f8 DAB2     	 uxtb r2,r3
 501 00fa 7B7C     	 ldrb r3,[r7,#17]
 502 00fc 1344     	 add r3,r3,r2
 503 00fe DBB2     	 uxtb r3,r3
 504 0100 303B     	 subs r3,r3,#48
 505 0102 DBB2     	 uxtb r3,r3
 506 0104 03F03F03 	 and r3,r3,#63
 507 0108 D9B2     	 uxtb r1,r3
 508 010a 134A     	 ldr r2,.L5
 509 010c 5378     	 ldrb r3,[r2,#1]
 510 010e 61F30503 	 bfi r3,r1,#0,#6
 511 0112 5370     	 strb r3,[r2,#1]
  71:../4g_module/4g_data_process.c **** 	timeval.seconds = (((Timebuf[15]-'0')*10)+(Timebuf[16]-'0'));
 512              	 .loc 1 71 0
 513 0114 FB7C     	 ldrb r3,[r7,#19]
 514 0116 303B     	 subs r3,r3,#48
 515 0118 DBB2     	 uxtb r3,r3
 516 011a 1A46     	 mov r2,r3
 517 011c 9200     	 lsls r2,r2,#2
 518 011e 1344     	 add r3,r3,r2
 519 0120 5B00     	 lsls r3,r3,#1
 520 0122 DAB2     	 uxtb r2,r3
 521 0124 3B7D     	 ldrb r3,[r7,#20]
 522 0126 1344     	 add r3,r3,r2
 523 0128 DBB2     	 uxtb r3,r3
 524 012a 303B     	 subs r3,r3,#48
 525 012c DBB2     	 uxtb r3,r3
 526 012e 03F03F03 	 and r3,r3,#63
 527 0132 D9B2     	 uxtb r1,r3
 528 0134 084A     	 ldr r2,.L5
 529 0136 1378     	 ldrb r3,[r2]
 530 0138 61F30503 	 bfi r3,r1,#0,#6
 531 013c 1370     	 strb r3,[r2]
  72:../4g_module/4g_data_process.c **** 	RTC_Day = timeval.days;
 532              	 .loc 1 72 0
 533 013e 064B     	 ldr r3,.L5
 534 0140 DB78     	 ldrb r3,[r3,#3]
 535 0142 C3F30403 	 ubfx r3,r3,#0,#5
 536 0146 DBB2     	 uxtb r3,r3
 537 0148 1A46     	 mov r2,r3
 538 014a 044B     	 ldr r3,.L5+4
 539 014c 1A70     	 strb r2,[r3]
  73:../4g_module/4g_data_process.c **** 	RTC_init();
 540              	 .loc 1 73 0
 541 014e FFF7FEFF 	 bl RTC_init
  74:../4g_module/4g_data_process.c **** }
 542              	 .loc 1 74 0
 543 0152 2837     	 adds r7,r7,#40
 544              	.LCFI5:
 545              	 .cfi_def_cfa_offset 8
 546 0154 BD46     	 mov sp,r7
 547              	.LCFI6:
 548              	 .cfi_def_cfa_register 13
 549              	 
 550 0156 80BD     	 pop {r7,pc}
 551              	.L6:
 552              	 .align 2
 553              	.L5:
 554 0158 00000000 	 .word timeval
 555 015c 00000000 	 .word RTC_Day
 556              	 .cfi_endproc
 557              	.LFE606:
 559              	 .section .text.epoch_time,"ax",%progbits
 560              	 .align 2
 561              	 .global epoch_time
 562              	 .thumb
 563              	 .thumb_func
 565              	epoch_time:
 566              	.LFB607:
  75:../4g_module/4g_data_process.c **** 
  76:../4g_module/4g_data_process.c **** void epoch_time(void)
  77:../4g_module/4g_data_process.c **** {	struct tm my_tm;
 567              	 .loc 1 77 0
 568              	 .cfi_startproc
 569              	 
 570              	 
 571 0000 80B5     	 push {r7,lr}
 572              	.LCFI7:
 573              	 .cfi_def_cfa_offset 8
 574              	 .cfi_offset 7,-8
 575              	 .cfi_offset 14,-4
 576 0002 8AB0     	 sub sp,sp,#40
 577              	.LCFI8:
 578              	 .cfi_def_cfa_offset 48
 579 0004 00AF     	 add r7,sp,#0
 580              	.LCFI9:
 581              	 .cfi_def_cfa_register 7
  78:../4g_module/4g_data_process.c **** 	memset(&my_tm, 0, sizeof(my_tm));
 582              	 .loc 1 78 0
 583 0006 3B1D     	 adds r3,r7,#4
 584 0008 1846     	 mov r0,r3
 585 000a 0021     	 movs r1,#0
 586 000c 2422     	 movs r2,#36
 587 000e FFF7FEFF 	 bl memset
  79:../4g_module/4g_data_process.c **** 	RTC_GetTime(&current_time);
 588              	 .loc 1 79 0
 589 0012 1A48     	 ldr r0,.L8
 590 0014 FFF7FEFF 	 bl RTC_GetTime
  80:../4g_module/4g_data_process.c **** 	my_tm.tm_year =(2000 + current_time.year)-1900;
 591              	 .loc 1 80 0
 592 0018 184B     	 ldr r3,.L8
 593 001a DB88     	 ldrh r3,[r3,#6]
 594 001c 6433     	 adds r3,r3,#100
 595 001e BB61     	 str r3,[r7,#24]
  81:../4g_module/4g_data_process.c **** 	my_tm.tm_mon = current_time.month;
 596              	 .loc 1 81 0
 597 0020 164B     	 ldr r3,.L8
 598 0022 5B79     	 ldrb r3,[r3,#5]
 599 0024 C3F30303 	 ubfx r3,r3,#0,#4
 600 0028 DBB2     	 uxtb r3,r3
 601 002a 7B61     	 str r3,[r7,#20]
  82:../4g_module/4g_data_process.c **** 	my_tm.tm_mday = current_time.days;
 602              	 .loc 1 82 0
 603 002c 134B     	 ldr r3,.L8
 604 002e DB78     	 ldrb r3,[r3,#3]
 605 0030 C3F30403 	 ubfx r3,r3,#0,#5
 606 0034 DBB2     	 uxtb r3,r3
 607 0036 3B61     	 str r3,[r7,#16]
  83:../4g_module/4g_data_process.c **** 	my_tm.tm_hour = current_time.hours;
 608              	 .loc 1 83 0
 609 0038 104B     	 ldr r3,.L8
 610 003a 9B78     	 ldrb r3,[r3,#2]
 611 003c C3F30403 	 ubfx r3,r3,#0,#5
 612 0040 DBB2     	 uxtb r3,r3
 613 0042 FB60     	 str r3,[r7,#12]
  84:../4g_module/4g_data_process.c **** 	my_tm.tm_min = current_time.minutes;
 614              	 .loc 1 84 0
 615 0044 0D4B     	 ldr r3,.L8
 616 0046 5B78     	 ldrb r3,[r3,#1]
 617 0048 C3F30503 	 ubfx r3,r3,#0,#6
 618 004c DBB2     	 uxtb r3,r3
 619 004e BB60     	 str r3,[r7,#8]
  85:../4g_module/4g_data_process.c **** 	my_tm.tm_sec = current_time.seconds;
 620              	 .loc 1 85 0
 621 0050 0A4B     	 ldr r3,.L8
 622 0052 1B78     	 ldrb r3,[r3]
 623 0054 C3F30503 	 ubfx r3,r3,#0,#6
 624 0058 DBB2     	 uxtb r3,r3
 625 005a 7B60     	 str r3,[r7,#4]
  86:../4g_module/4g_data_process.c **** 	my_tm.tm_isdst = -1;
 626              	 .loc 1 86 0
 627 005c 4FF0FF33 	 mov r3,#-1
 628 0060 7B62     	 str r3,[r7,#36]
  87:../4g_module/4g_data_process.c **** 	my_tm.tm_mon -= 1;
 629              	 .loc 1 87 0
 630 0062 7B69     	 ldr r3,[r7,#20]
 631 0064 013B     	 subs r3,r3,#1
 632 0066 7B61     	 str r3,[r7,#20]
  88:../4g_module/4g_data_process.c **** 
  89:../4g_module/4g_data_process.c **** 	epoch = mktime(&my_tm);
 633              	 .loc 1 89 0
 634 0068 3B1D     	 adds r3,r7,#4
 635 006a 1846     	 mov r0,r3
 636 006c FFF7FEFF 	 bl mktime
 637 0070 0246     	 mov r2,r0
 638 0072 034B     	 ldr r3,.L8+4
 639 0074 1A60     	 str r2,[r3]
  90:../4g_module/4g_data_process.c **** }
 640              	 .loc 1 90 0
 641 0076 2837     	 adds r7,r7,#40
 642              	.LCFI10:
 643              	 .cfi_def_cfa_offset 8
 644 0078 BD46     	 mov sp,r7
 645              	.LCFI11:
 646              	 .cfi_def_cfa_register 13
 647              	 
 648 007a 80BD     	 pop {r7,pc}
 649              	.L9:
 650              	 .align 2
 651              	.L8:
 652 007c 00000000 	 .word current_time
 653 0080 00000000 	 .word epoch
 654              	 .cfi_endproc
 655              	.LFE607:
 657              	 .section .text.CalOdometer,"ax",%progbits
 658              	 .align 2
 659              	 .global CalOdometer
 660              	 .thumb
 661              	 .thumb_func
 663              	CalOdometer:
 664              	.LFB608:
  91:../4g_module/4g_data_process.c **** 
  92:../4g_module/4g_data_process.c **** uint32_t CalOdometer()//For testing only
  93:../4g_module/4g_data_process.c **** 	{
 665              	 .loc 1 93 0
 666              	 .cfi_startproc
 667              	 
 668              	 
 669              	 
 670 0000 80B4     	 push {r7}
 671              	.LCFI12:
 672              	 .cfi_def_cfa_offset 4
 673              	 .cfi_offset 7,-4
 674 0002 87B0     	 sub sp,sp,#28
 675              	.LCFI13:
 676              	 .cfi_def_cfa_offset 32
 677 0004 00AF     	 add r7,sp,#0
 678              	.LCFI14:
 679              	 .cfi_def_cfa_register 7
  94:../4g_module/4g_data_process.c **** 		float pi = 3.14;
 680              	 .loc 1 94 0
 681 0006 184B     	 ldr r3,.L12
 682 0008 7B61     	 str r3,[r7,#20]
  95:../4g_module/4g_data_process.c **** 		float rad = 0.279;
 683              	 .loc 1 95 0
 684 000a 184B     	 ldr r3,.L12+4
 685 000c 3B61     	 str r3,[r7,#16]
  96:../4g_module/4g_data_process.c **** 		float GRatio = 0.10084; //  1/9.916;
 686              	 .loc 1 96 0
 687 000e 184B     	 ldr r3,.L12+8
 688 0010 FB60     	 str r3,[r7,#12]
  97:../4g_module/4g_data_process.c **** 		float mintosec = 0.0166;
 689              	 .loc 1 97 0
 690 0012 184B     	 ldr r3,.L12+12
 691 0014 BB60     	 str r3,[r7,#8]
  98:../4g_module/4g_data_process.c **** 		uint16_t DistanceM = 1;
 692              	 .loc 1 98 0
 693 0016 0123     	 movs r3,#1
 694 0018 FB80     	 strh r3,[r7,#6]
  99:../4g_module/4g_data_process.c **** 
 100:../4g_module/4g_data_process.c **** 		uint16_t timeDiff = epoch - starttime;
 695              	 .loc 1 100 0
 696 001a 174B     	 ldr r3,.L12+16
 697 001c 1B68     	 ldr r3,[r3]
 698 001e 9AB2     	 uxth r2,r3
 699 0020 164B     	 ldr r3,.L12+20
 700 0022 1B68     	 ldr r3,[r3]
 701 0024 9BB2     	 uxth r3,r3
 702 0026 D31A     	 subs r3,r2,r3
 703 0028 BB80     	 strh r3,[r7,#4]
 101:../4g_module/4g_data_process.c **** 		uint8_t rotations = 3;
 704              	 .loc 1 101 0
 705 002a 0323     	 movs r3,#3
 706 002c FB70     	 strb r3,[r7,#3]
 102:../4g_module/4g_data_process.c **** 
 103:../4g_module/4g_data_process.c **** 		//Distance = (2 * pi * rad * rotations);
 104:../4g_module/4g_data_process.c **** 		//Distance += (2 * pi * rad * N/(rpm) * GRatio * mintosec * TimeSec);
 105:../4g_module/4g_data_process.c **** 		DistanceM = (vspeed * (timeDiff/3600));// KM/hr
 707              	 .loc 1 105 0
 708 002e BB88     	 ldrh r3,[r7,#4]
 709 0030 134A     	 ldr r2,.L12+24
 710 0032 A2FB0323 	 umull r2,r3,r2,r3
 711 0036 DB0A     	 lsrs r3,r3,#11
 712 0038 9AB2     	 uxth r2,r3
 713 003a 124B     	 ldr r3,.L12+28
 714 003c 1B88     	 ldrh r3,[r3]
 715 003e 12FB03F3 	 smulbb r3,r2,r3
 716 0042 FB80     	 strh r3,[r7,#6]
 106:../4g_module/4g_data_process.c **** 		Distance += (DistanceM/8);//3600
 717              	 .loc 1 106 0
 718 0044 FB88     	 ldrh r3,[r7,#6]
 719 0046 DB08     	 lsrs r3,r3,#3
 720 0048 9AB2     	 uxth r2,r3
 721 004a 0F4B     	 ldr r3,.L12+32
 722 004c 1B88     	 ldrh r3,[r3]
 723 004e 1344     	 add r3,r3,r2
 724 0050 9AB2     	 uxth r2,r3
 725 0052 0D4B     	 ldr r3,.L12+32
 726 0054 1A80     	 strh r2,[r3]
 107:../4g_module/4g_data_process.c **** 
 108:../4g_module/4g_data_process.c **** 		return Distance;
 727              	 .loc 1 108 0
 728 0056 0C4B     	 ldr r3,.L12+32
 729 0058 1B88     	 ldrh r3,[r3]
 109:../4g_module/4g_data_process.c **** 	}
 730              	 .loc 1 109 0
 731 005a 1846     	 mov r0,r3
 732 005c 1C37     	 adds r7,r7,#28
 733              	.LCFI15:
 734              	 .cfi_def_cfa_offset 4
 735 005e BD46     	 mov sp,r7
 736              	.LCFI16:
 737              	 .cfi_def_cfa_register 13
 738              	 
 739 0060 5DF8047B 	 ldr r7,[sp],#4
 740              	.LCFI17:
 741              	 .cfi_restore 7
 742              	 .cfi_def_cfa_offset 0
 743 0064 7047     	 bx lr
 744              	.L13:
 745 0066 00BF     	 .align 2
 746              	.L12:
 747 0068 C3F54840 	 .word 1078523331
 748 006c 17D98E3E 	 .word 1049549079
 749 0070 3485CE3D 	 .word 1036944692
 750 0074 B9FC873C 	 .word 1015545017
 751 0078 00000000 	 .word epoch
 752 007c 00000000 	 .word starttime
 753 0080 C5B3A291 	 .word -1851608123
 754 0084 00000000 	 .word vspeed
 755 0088 00000000 	 .word Distance
 756              	 .cfi_endproc
 757              	.LFE608:
 759              	 .section .rodata
 760              	 .align 2
 761              	.LC0:
 762 0000 6361725F 	 .ascii "car_id = %u\012\000"
 762      6964203D 
 762      2025750A 
 762      00
 763 000d 000000   	 .align 2
 764              	.LC1:
 765 0010 74726970 	 .ascii "trip_id = %u\012\000"
 765      5F696420 
 765      3D202575 
 765      0A00
 766 001e 0000     	 .align 2
 767              	.LC2:
 768 0020 74696D65 	 .ascii "timestamp = %lld\012\000"
 768      7374616D 
 768      70203D20 
 768      256C6C64 
 768      0A00
 769 0032 0000     	 .align 2
 770              	.LC3:
 771 0034 6C617469 	 .ascii "latitude = %u\012\000"
 771      74756465 
 771      203D2025 
 771      750A00
 772 0043 00       	 .align 2
 773              	.LC4:
 774 0044 6C6F6E67 	 .ascii "longitude = %u\012\000"
 774      69747564 
 774      65203D20 
 774      25750A00 
 775              	 .align 2
 776              	.LC5:
 777 0054 736F6320 	 .ascii "soc = %u\012\000"
 777      3D202575 
 777      0A00
 778 005e 0000     	 .align 2
 779              	.LC6:
 780 0060 68765F73 	 .ascii "hv_soc_calculated = %u\012\000"
 780      6F635F63 
 780      616C6375 
 780      6C617465 
 780      64203D20 
 781              	 .align 2
 782              	.LC7:
 783 0078 62617474 	 .ascii "battery_temp = %u\012\000"
 783      6572795F 
 783      74656D70 
 783      203D2025 
 783      750A00
 784 008b 00       	 .align 2
 785              	.LC8:
 786 008c 6D63755F 	 .ascii "mcu_temp_1 = %d\012\000"
 786      74656D70 
 786      5F31203D 
 786      2025640A 
 786      00
 787 009d 000000   	 .align 2
 788              	.LC9:
 789 00a0 73706565 	 .ascii "speed = %u\012\000"
 789      64203D20 
 789      25750A00 
 790              	 .align 2
 791              	.LC10:
 792 00ac 6F646F6D 	 .ascii "odometer = %u\012\000"
 792      65746572 
 792      203D2025 
 792      750A00
 793 00bb 00       	 .align 2
 794              	.LC11:
 795 00bc 616D6269 	 .ascii "ambient_temp = %u\012\000"
 795      656E745F 
 795      74656D70 
 795      203D2025 
 795      750A00
 796 00cf 00       	 .align 2
 797              	.LC12:
 798 00d0 7061636B 	 .ascii "pack_voltage = %u\012\000"
 798      5F766F6C 
 798      74616765 
 798      203D2025 
 798      750A00
 799 00e3 00       	 .align 2
 800              	.LC13:
 801 00e4 7061636B 	 .ascii "pack_current = %u\012\000"
 801      5F637572 
 801      72656E74 
 801      203D2025 
 801      750A00
 802 00f7 00       	 .align 2
 803              	.LC14:
 804 00f8 63686172 	 .ascii "charging_indicator = %u\012\000"
 804      67696E67 
 804      5F696E64 
 804      69636174 
 804      6F72203D 
 805 0111 000000   	 .align 2
 806              	.LC15:
 807 0114 64746520 	 .ascii "dte = %u\012\000"
 807      3D202575 
 807      0A00
 808 011e 0000     	 .align 2
 809              	.LC16:
 810 0120 61635F73 	 .ascii "ac_status = %u\012\000"
 810      74617475 
 810      73203D20 
 810      25750A00 
 811              	 .align 2
 812              	.LC17:
 813 0130 6D696E5F 	 .ascii "min_cell_temp = %u\012\000"
 813      63656C6C 
 813      5F74656D 
 813      70203D20 
 813      25750A00 
 814              	 .align 2
 815              	.LC18:
 816 0144 6D61785F 	 .ascii "max_cell_temp = %u\012\000"
 816      63656C6C 
 816      5F74656D 
 816      70203D20 
 816      25750A00 
 817              	 .align 2
 818              	.LC19:
 819 0158 6D696E5F 	 .ascii "min_cell_voltage = %u\012\000"
 819      63656C6C 
 819      5F766F6C 
 819      74616765 
 819      203D2025 
 820 016f 00       	 .align 2
 821              	.LC20:
 822 0170 6D61785F 	 .ascii "max_cell_voltage = %u\012\000"
 822      63656C6C 
 822      5F766F6C 
 822      74616765 
 822      203D2025 
 823 0187 00       	 .align 2
 824              	.LC21:
 825 0188 616C7469 	 .ascii "altitude = %u\012\000"
 825      74756465 
 825      203D2025 
 825      750A00
 826 0197 00       	 .align 2
 827              	.LC22:
 828 0198 64697265 	 .ascii "direction = %u\012\000"
 828      6374696F 
 828      6E203D20 
 828      25750A00 
 829              	 .align 2
 830              	.LC23:
 831 01a8 736F6820 	 .ascii "soh = %u\012\000"
 831      3D202575 
 831      0A00
 832 01b2 0000     	 .align 2
 833              	.LC24:
 834 01b4 6964656E 	 .ascii "identifier = %d\012\000"
 834      74696669 
 834      6572203D 
 834      2025640A 
 834      00
 835 01c5 000000   	 .section .text.print_struct_uart,"ax",%progbits
 836              	 .align 2
 837              	 .global print_struct_uart
 838              	 .thumb
 839              	 .thumb_func
 841              	print_struct_uart:
 842              	.LFB609:
 110:../4g_module/4g_data_process.c **** 
 111:../4g_module/4g_data_process.c **** void print_struct_uart(vcu_fleet_fleet_10_sec *TD1) {
 843              	 .loc 1 111 0
 844              	 .cfi_startproc
 845              	 
 846              	 
 847 0000 80B5     	 push {r7,lr}
 848              	.LCFI18:
 849              	 .cfi_def_cfa_offset 8
 850              	 .cfi_offset 7,-8
 851              	 .cfi_offset 14,-4
 852 0002 C2B0     	 sub sp,sp,#264
 853              	.LCFI19:
 854              	 .cfi_def_cfa_offset 272
 855 0004 00AF     	 add r7,sp,#0
 856              	.LCFI20:
 857              	 .cfi_def_cfa_register 7
 858 0006 3B1D     	 adds r3,r7,#4
 859 0008 1860     	 str r0,[r3]
 112:../4g_module/4g_data_process.c ****     char buffer[256];
 113:../4g_module/4g_data_process.c **** 
 114:../4g_module/4g_data_process.c ****     snprintf(buffer, sizeof(buffer), "car_id = %u\n", TD1->car_id);
 860              	 .loc 1 114 0
 861 000a 3B1D     	 adds r3,r7,#4
 862 000c 1B68     	 ldr r3,[r3]
 863 000e 1B68     	 ldr r3,[r3]
 864 0010 07F10802 	 add r2,r7,#8
 865 0014 1046     	 mov r0,r2
 866 0016 4FF48071 	 mov r1,#256
 867 001a C64A     	 ldr r2,.L15
 868 001c FFF7FEFF 	 bl snprintf
 115:../4g_module/4g_data_process.c ****     uart_debugg4g(buffer);
 869              	 .loc 1 115 0
 870 0020 07F10803 	 add r3,r7,#8
 871 0024 1846     	 mov r0,r3
 872 0026 FFF7FEFF 	 bl uart_debugg4g
 116:../4g_module/4g_data_process.c **** 
 117:../4g_module/4g_data_process.c ****     snprintf(buffer, sizeof(buffer), "trip_id = %u\n", TD1->trip_id);
 873              	 .loc 1 117 0
 874 002a 3B1D     	 adds r3,r7,#4
 875 002c 1B68     	 ldr r3,[r3]
 876 002e 5B68     	 ldr r3,[r3,#4]
 877 0030 07F10802 	 add r2,r7,#8
 878 0034 1046     	 mov r0,r2
 879 0036 4FF48071 	 mov r1,#256
 880 003a BF4A     	 ldr r2,.L15+4
 881 003c FFF7FEFF 	 bl snprintf
 118:../4g_module/4g_data_process.c ****     uart_debugg4g(buffer);
 882              	 .loc 1 118 0
 883 0040 07F10803 	 add r3,r7,#8
 884 0044 1846     	 mov r0,r3
 885 0046 FFF7FEFF 	 bl uart_debugg4g
 119:../4g_module/4g_data_process.c **** 
 120:../4g_module/4g_data_process.c ****     snprintf(buffer, sizeof(buffer), "timestamp = %lld\n", TD1->timestamp);
 886              	 .loc 1 120 0
 887 004a 3B1D     	 adds r3,r7,#4
 888 004c 1B68     	 ldr r3,[r3]
 889 004e 9B68     	 ldr r3,[r3,#8]
 890 0050 07F10802 	 add r2,r7,#8
 891 0054 1046     	 mov r0,r2
 892 0056 4FF48071 	 mov r1,#256
 893 005a B84A     	 ldr r2,.L15+8
 894 005c FFF7FEFF 	 bl snprintf
 121:../4g_module/4g_data_process.c ****     uart_debugg4g(buffer);
 895              	 .loc 1 121 0
 896 0060 07F10803 	 add r3,r7,#8
 897 0064 1846     	 mov r0,r3
 898 0066 FFF7FEFF 	 bl uart_debugg4g
 122:../4g_module/4g_data_process.c **** 
 123:../4g_module/4g_data_process.c ****     snprintf(buffer, sizeof(buffer), "latitude = %u\n", TD1->latitude);
 899              	 .loc 1 123 0
 900 006a 3B1D     	 adds r3,r7,#4
 901 006c 1B68     	 ldr r3,[r3]
 902 006e DB68     	 ldr r3,[r3,#12]
 903 0070 07F10802 	 add r2,r7,#8
 904 0074 1046     	 mov r0,r2
 905 0076 4FF48071 	 mov r1,#256
 906 007a B14A     	 ldr r2,.L15+12
 907 007c FFF7FEFF 	 bl snprintf
 124:../4g_module/4g_data_process.c ****     uart_debugg4g(buffer);
 908              	 .loc 1 124 0
 909 0080 07F10803 	 add r3,r7,#8
 910 0084 1846     	 mov r0,r3
 911 0086 FFF7FEFF 	 bl uart_debugg4g
 125:../4g_module/4g_data_process.c **** 
 126:../4g_module/4g_data_process.c ****     snprintf(buffer, sizeof(buffer), "longitude = %u\n", TD1->longitude);
 912              	 .loc 1 126 0
 913 008a 3B1D     	 adds r3,r7,#4
 914 008c 1B68     	 ldr r3,[r3]
 915 008e 1B69     	 ldr r3,[r3,#16]
 916 0090 07F10802 	 add r2,r7,#8
 917 0094 1046     	 mov r0,r2
 918 0096 4FF48071 	 mov r1,#256
 919 009a AA4A     	 ldr r2,.L15+16
 920 009c FFF7FEFF 	 bl snprintf
 127:../4g_module/4g_data_process.c ****     uart_debugg4g(buffer);
 921              	 .loc 1 127 0
 922 00a0 07F10803 	 add r3,r7,#8
 923 00a4 1846     	 mov r0,r3
 924 00a6 FFF7FEFF 	 bl uart_debugg4g
 128:../4g_module/4g_data_process.c **** 
 129:../4g_module/4g_data_process.c ****     snprintf(buffer, sizeof(buffer), "soc = %u\n", TD1->soc);
 925              	 .loc 1 129 0
 926 00aa 3B1D     	 adds r3,r7,#4
 927 00ac 1B68     	 ldr r3,[r3]
 928 00ae 5B69     	 ldr r3,[r3,#20]
 929 00b0 07F10802 	 add r2,r7,#8
 930 00b4 1046     	 mov r0,r2
 931 00b6 4FF48071 	 mov r1,#256
 932 00ba A34A     	 ldr r2,.L15+20
 933 00bc FFF7FEFF 	 bl snprintf
 130:../4g_module/4g_data_process.c ****     uart_debugg4g(buffer);
 934              	 .loc 1 130 0
 935 00c0 07F10803 	 add r3,r7,#8
 936 00c4 1846     	 mov r0,r3
 937 00c6 FFF7FEFF 	 bl uart_debugg4g
 131:../4g_module/4g_data_process.c **** 
 132:../4g_module/4g_data_process.c ****     snprintf(buffer, sizeof(buffer), "hv_soc_calculated = %u\n", TD1->hv_soc_calculated);
 938              	 .loc 1 132 0
 939 00ca 3B1D     	 adds r3,r7,#4
 940 00cc 1B68     	 ldr r3,[r3]
 941 00ce 9B69     	 ldr r3,[r3,#24]
 942 00d0 07F10802 	 add r2,r7,#8
 943 00d4 1046     	 mov r0,r2
 944 00d6 4FF48071 	 mov r1,#256
 945 00da 9C4A     	 ldr r2,.L15+24
 946 00dc FFF7FEFF 	 bl snprintf
 133:../4g_module/4g_data_process.c ****     uart_debugg4g(buffer);
 947              	 .loc 1 133 0
 948 00e0 07F10803 	 add r3,r7,#8
 949 00e4 1846     	 mov r0,r3
 950 00e6 FFF7FEFF 	 bl uart_debugg4g
 134:../4g_module/4g_data_process.c **** 
 135:../4g_module/4g_data_process.c ****     snprintf(buffer, sizeof(buffer), "battery_temp = %u\n", TD1->battery_temp);
 951              	 .loc 1 135 0
 952 00ea 3B1D     	 adds r3,r7,#4
 953 00ec 1B68     	 ldr r3,[r3]
 954 00ee DB69     	 ldr r3,[r3,#28]
 955 00f0 07F10802 	 add r2,r7,#8
 956 00f4 1046     	 mov r0,r2
 957 00f6 4FF48071 	 mov r1,#256
 958 00fa 954A     	 ldr r2,.L15+28
 959 00fc FFF7FEFF 	 bl snprintf
 136:../4g_module/4g_data_process.c ****     uart_debugg4g(buffer);
 960              	 .loc 1 136 0
 961 0100 07F10803 	 add r3,r7,#8
 962 0104 1846     	 mov r0,r3
 963 0106 FFF7FEFF 	 bl uart_debugg4g
 137:../4g_module/4g_data_process.c **** 
 138:../4g_module/4g_data_process.c ****     snprintf(buffer, sizeof(buffer), "mcu_temp_1 = %d\n", TD1->mcu_temp_1);
 964              	 .loc 1 138 0
 965 010a 3B1D     	 adds r3,r7,#4
 966 010c 1B68     	 ldr r3,[r3]
 967 010e 1B6A     	 ldr r3,[r3,#32]
 968 0110 07F10802 	 add r2,r7,#8
 969 0114 1046     	 mov r0,r2
 970 0116 4FF48071 	 mov r1,#256
 971 011a 8E4A     	 ldr r2,.L15+32
 972 011c FFF7FEFF 	 bl snprintf
 139:../4g_module/4g_data_process.c ****     uart_debugg4g(buffer);
 973              	 .loc 1 139 0
 974 0120 07F10803 	 add r3,r7,#8
 975 0124 1846     	 mov r0,r3
 976 0126 FFF7FEFF 	 bl uart_debugg4g
 140:../4g_module/4g_data_process.c **** 
 141:../4g_module/4g_data_process.c ****     snprintf(buffer, sizeof(buffer), "speed = %u\n", TD1->speed);
 977              	 .loc 1 141 0
 978 012a 3B1D     	 adds r3,r7,#4
 979 012c 1B68     	 ldr r3,[r3]
 980 012e 5B6A     	 ldr r3,[r3,#36]
 981 0130 07F10802 	 add r2,r7,#8
 982 0134 1046     	 mov r0,r2
 983 0136 4FF48071 	 mov r1,#256
 984 013a 874A     	 ldr r2,.L15+36
 985 013c FFF7FEFF 	 bl snprintf
 142:../4g_module/4g_data_process.c ****     uart_debugg4g(buffer);
 986              	 .loc 1 142 0
 987 0140 07F10803 	 add r3,r7,#8
 988 0144 1846     	 mov r0,r3
 989 0146 FFF7FEFF 	 bl uart_debugg4g
 143:../4g_module/4g_data_process.c **** 
 144:../4g_module/4g_data_process.c ****     snprintf(buffer, sizeof(buffer), "odometer = %u\n", TD1->odometer);
 990              	 .loc 1 144 0
 991 014a 3B1D     	 adds r3,r7,#4
 992 014c 1B68     	 ldr r3,[r3]
 993 014e 9B6A     	 ldr r3,[r3,#40]
 994 0150 07F10802 	 add r2,r7,#8
 995 0154 1046     	 mov r0,r2
 996 0156 4FF48071 	 mov r1,#256
 997 015a 804A     	 ldr r2,.L15+40
 998 015c FFF7FEFF 	 bl snprintf
 145:../4g_module/4g_data_process.c ****     uart_debugg4g(buffer);
 999              	 .loc 1 145 0
 1000 0160 07F10803 	 add r3,r7,#8
 1001 0164 1846     	 mov r0,r3
 1002 0166 FFF7FEFF 	 bl uart_debugg4g
 146:../4g_module/4g_data_process.c **** 
 147:../4g_module/4g_data_process.c ****     snprintf(buffer, sizeof(buffer), "ambient_temp = %u\n", TD1->ambient_temp);
 1003              	 .loc 1 147 0
 1004 016a 3B1D     	 adds r3,r7,#4
 1005 016c 1B68     	 ldr r3,[r3]
 1006 016e DB6A     	 ldr r3,[r3,#44]
 1007 0170 07F10802 	 add r2,r7,#8
 1008 0174 1046     	 mov r0,r2
 1009 0176 4FF48071 	 mov r1,#256
 1010 017a 794A     	 ldr r2,.L15+44
 1011 017c FFF7FEFF 	 bl snprintf
 148:../4g_module/4g_data_process.c ****     uart_debugg4g(buffer);
 1012              	 .loc 1 148 0
 1013 0180 07F10803 	 add r3,r7,#8
 1014 0184 1846     	 mov r0,r3
 1015 0186 FFF7FEFF 	 bl uart_debugg4g
 149:../4g_module/4g_data_process.c **** 
 150:../4g_module/4g_data_process.c ****     snprintf(buffer, sizeof(buffer), "pack_voltage = %u\n", TD1->pack_voltage);
 1016              	 .loc 1 150 0
 1017 018a 3B1D     	 adds r3,r7,#4
 1018 018c 1B68     	 ldr r3,[r3]
 1019 018e 1B6B     	 ldr r3,[r3,#48]
 1020 0190 07F10802 	 add r2,r7,#8
 1021 0194 1046     	 mov r0,r2
 1022 0196 4FF48071 	 mov r1,#256
 1023 019a 724A     	 ldr r2,.L15+48
 1024 019c FFF7FEFF 	 bl snprintf
 151:../4g_module/4g_data_process.c ****     uart_debugg4g(buffer);
 1025              	 .loc 1 151 0
 1026 01a0 07F10803 	 add r3,r7,#8
 1027 01a4 1846     	 mov r0,r3
 1028 01a6 FFF7FEFF 	 bl uart_debugg4g
 152:../4g_module/4g_data_process.c **** 
 153:../4g_module/4g_data_process.c ****     snprintf(buffer, sizeof(buffer), "pack_current = %u\n", TD1->pack_current);
 1029              	 .loc 1 153 0
 1030 01aa 3B1D     	 adds r3,r7,#4
 1031 01ac 1B68     	 ldr r3,[r3]
 1032 01ae 5B6B     	 ldr r3,[r3,#52]
 1033 01b0 07F10802 	 add r2,r7,#8
 1034 01b4 1046     	 mov r0,r2
 1035 01b6 4FF48071 	 mov r1,#256
 1036 01ba 6B4A     	 ldr r2,.L15+52
 1037 01bc FFF7FEFF 	 bl snprintf
 154:../4g_module/4g_data_process.c ****     uart_debugg4g(buffer);
 1038              	 .loc 1 154 0
 1039 01c0 07F10803 	 add r3,r7,#8
 1040 01c4 1846     	 mov r0,r3
 1041 01c6 FFF7FEFF 	 bl uart_debugg4g
 155:../4g_module/4g_data_process.c **** 
 156:../4g_module/4g_data_process.c ****     snprintf(buffer, sizeof(buffer), "charging_indicator = %u\n", TD1->charging_indicator);
 1042              	 .loc 1 156 0
 1043 01ca 3B1D     	 adds r3,r7,#4
 1044 01cc 1B68     	 ldr r3,[r3]
 1045 01ce 9B6B     	 ldr r3,[r3,#56]
 1046 01d0 07F10802 	 add r2,r7,#8
 1047 01d4 1046     	 mov r0,r2
 1048 01d6 4FF48071 	 mov r1,#256
 1049 01da 644A     	 ldr r2,.L15+56
 1050 01dc FFF7FEFF 	 bl snprintf
 157:../4g_module/4g_data_process.c ****     uart_debugg4g(buffer);
 1051              	 .loc 1 157 0
 1052 01e0 07F10803 	 add r3,r7,#8
 1053 01e4 1846     	 mov r0,r3
 1054 01e6 FFF7FEFF 	 bl uart_debugg4g
 158:../4g_module/4g_data_process.c **** 
 159:../4g_module/4g_data_process.c ****     snprintf(buffer, sizeof(buffer), "dte = %u\n", TD1->dte);
 1055              	 .loc 1 159 0
 1056 01ea 3B1D     	 adds r3,r7,#4
 1057 01ec 1B68     	 ldr r3,[r3]
 1058 01ee DB6B     	 ldr r3,[r3,#60]
 1059 01f0 07F10802 	 add r2,r7,#8
 1060 01f4 1046     	 mov r0,r2
 1061 01f6 4FF48071 	 mov r1,#256
 1062 01fa 5D4A     	 ldr r2,.L15+60
 1063 01fc FFF7FEFF 	 bl snprintf
 160:../4g_module/4g_data_process.c ****     uart_debugg4g(buffer);
 1064              	 .loc 1 160 0
 1065 0200 07F10803 	 add r3,r7,#8
 1066 0204 1846     	 mov r0,r3
 1067 0206 FFF7FEFF 	 bl uart_debugg4g
 161:../4g_module/4g_data_process.c **** 
 162:../4g_module/4g_data_process.c ****     snprintf(buffer, sizeof(buffer), "ac_status = %u\n", TD1->ac_status);
 1068              	 .loc 1 162 0
 1069 020a 3B1D     	 adds r3,r7,#4
 1070 020c 1B68     	 ldr r3,[r3]
 1071 020e 1B6C     	 ldr r3,[r3,#64]
 1072 0210 07F10802 	 add r2,r7,#8
 1073 0214 1046     	 mov r0,r2
 1074 0216 4FF48071 	 mov r1,#256
 1075 021a 564A     	 ldr r2,.L15+64
 1076 021c FFF7FEFF 	 bl snprintf
 163:../4g_module/4g_data_process.c ****     uart_debugg4g(buffer);
 1077              	 .loc 1 163 0
 1078 0220 07F10803 	 add r3,r7,#8
 1079 0224 1846     	 mov r0,r3
 1080 0226 FFF7FEFF 	 bl uart_debugg4g
 164:../4g_module/4g_data_process.c **** 
 165:../4g_module/4g_data_process.c ****     snprintf(buffer, sizeof(buffer), "min_cell_temp = %u\n", TD1->min_cell_temp);
 1081              	 .loc 1 165 0
 1082 022a 3B1D     	 adds r3,r7,#4
 1083 022c 1B68     	 ldr r3,[r3]
 1084 022e 5B6C     	 ldr r3,[r3,#68]
 1085 0230 07F10802 	 add r2,r7,#8
 1086 0234 1046     	 mov r0,r2
 1087 0236 4FF48071 	 mov r1,#256
 1088 023a 4F4A     	 ldr r2,.L15+68
 1089 023c FFF7FEFF 	 bl snprintf
 166:../4g_module/4g_data_process.c ****     uart_debugg4g(buffer);
 1090              	 .loc 1 166 0
 1091 0240 07F10803 	 add r3,r7,#8
 1092 0244 1846     	 mov r0,r3
 1093 0246 FFF7FEFF 	 bl uart_debugg4g
 167:../4g_module/4g_data_process.c **** 
 168:../4g_module/4g_data_process.c ****     snprintf(buffer, sizeof(buffer), "max_cell_temp = %u\n", TD1->max_cell_temp);
 1094              	 .loc 1 168 0
 1095 024a 3B1D     	 adds r3,r7,#4
 1096 024c 1B68     	 ldr r3,[r3]
 1097 024e 9B6C     	 ldr r3,[r3,#72]
 1098 0250 07F10802 	 add r2,r7,#8
 1099 0254 1046     	 mov r0,r2
 1100 0256 4FF48071 	 mov r1,#256
 1101 025a 484A     	 ldr r2,.L15+72
 1102 025c FFF7FEFF 	 bl snprintf
 169:../4g_module/4g_data_process.c ****     uart_debugg4g(buffer);
 1103              	 .loc 1 169 0
 1104 0260 07F10803 	 add r3,r7,#8
 1105 0264 1846     	 mov r0,r3
 1106 0266 FFF7FEFF 	 bl uart_debugg4g
 170:../4g_module/4g_data_process.c **** 
 171:../4g_module/4g_data_process.c ****     snprintf(buffer, sizeof(buffer), "min_cell_voltage = %u\n", TD1->min_cell_voltage);
 1107              	 .loc 1 171 0
 1108 026a 3B1D     	 adds r3,r7,#4
 1109 026c 1B68     	 ldr r3,[r3]
 1110 026e DB6C     	 ldr r3,[r3,#76]
 1111 0270 07F10802 	 add r2,r7,#8
 1112 0274 1046     	 mov r0,r2
 1113 0276 4FF48071 	 mov r1,#256
 1114 027a 414A     	 ldr r2,.L15+76
 1115 027c FFF7FEFF 	 bl snprintf
 172:../4g_module/4g_data_process.c ****     uart_debugg4g(buffer);
 1116              	 .loc 1 172 0
 1117 0280 07F10803 	 add r3,r7,#8
 1118 0284 1846     	 mov r0,r3
 1119 0286 FFF7FEFF 	 bl uart_debugg4g
 173:../4g_module/4g_data_process.c **** 
 174:../4g_module/4g_data_process.c ****     snprintf(buffer, sizeof(buffer), "max_cell_voltage = %u\n", TD1->max_cell_voltage);
 1120              	 .loc 1 174 0
 1121 028a 3B1D     	 adds r3,r7,#4
 1122 028c 1B68     	 ldr r3,[r3]
 1123 028e 1B6D     	 ldr r3,[r3,#80]
 1124 0290 07F10802 	 add r2,r7,#8
 1125 0294 1046     	 mov r0,r2
 1126 0296 4FF48071 	 mov r1,#256
 1127 029a 3A4A     	 ldr r2,.L15+80
 1128 029c FFF7FEFF 	 bl snprintf
 175:../4g_module/4g_data_process.c ****     uart_debugg4g(buffer);
 1129              	 .loc 1 175 0
 1130 02a0 07F10803 	 add r3,r7,#8
 1131 02a4 1846     	 mov r0,r3
 1132 02a6 FFF7FEFF 	 bl uart_debugg4g
 176:../4g_module/4g_data_process.c **** 
 177:../4g_module/4g_data_process.c ****     snprintf(buffer, sizeof(buffer), "altitude = %u\n", TD1->altitude);
 1133              	 .loc 1 177 0
 1134 02aa 3B1D     	 adds r3,r7,#4
 1135 02ac 1B68     	 ldr r3,[r3]
 1136 02ae 5B6D     	 ldr r3,[r3,#84]
 1137 02b0 07F10802 	 add r2,r7,#8
 1138 02b4 1046     	 mov r0,r2
 1139 02b6 4FF48071 	 mov r1,#256
 1140 02ba 334A     	 ldr r2,.L15+84
 1141 02bc FFF7FEFF 	 bl snprintf
 178:../4g_module/4g_data_process.c ****     uart_debugg4g(buffer);
 1142              	 .loc 1 178 0
 1143 02c0 07F10803 	 add r3,r7,#8
 1144 02c4 1846     	 mov r0,r3
 1145 02c6 FFF7FEFF 	 bl uart_debugg4g
 179:../4g_module/4g_data_process.c **** 
 180:../4g_module/4g_data_process.c ****     snprintf(buffer, sizeof(buffer), "direction = %u\n", TD1->direction);
 1146              	 .loc 1 180 0
 1147 02ca 3B1D     	 adds r3,r7,#4
 1148 02cc 1B68     	 ldr r3,[r3]
 1149 02ce 9B6D     	 ldr r3,[r3,#88]
 1150 02d0 07F10802 	 add r2,r7,#8
 1151 02d4 1046     	 mov r0,r2
 1152 02d6 4FF48071 	 mov r1,#256
 1153 02da 2C4A     	 ldr r2,.L15+88
 1154 02dc FFF7FEFF 	 bl snprintf
 181:../4g_module/4g_data_process.c ****     uart_debugg4g(buffer);
 1155              	 .loc 1 181 0
 1156 02e0 07F10803 	 add r3,r7,#8
 1157 02e4 1846     	 mov r0,r3
 1158 02e6 FFF7FEFF 	 bl uart_debugg4g
 182:../4g_module/4g_data_process.c **** 
 183:../4g_module/4g_data_process.c ****     snprintf(buffer, sizeof(buffer), "soh = %u\n", TD1->soh);
 1159              	 .loc 1 183 0
 1160 02ea 3B1D     	 adds r3,r7,#4
 1161 02ec 1B68     	 ldr r3,[r3]
 1162 02ee DB6D     	 ldr r3,[r3,#92]
 1163 02f0 07F10802 	 add r2,r7,#8
 1164 02f4 1046     	 mov r0,r2
 1165 02f6 4FF48071 	 mov r1,#256
 1166 02fa 254A     	 ldr r2,.L15+92
 1167 02fc FFF7FEFF 	 bl snprintf
 184:../4g_module/4g_data_process.c ****     uart_debugg4g(buffer);
 1168              	 .loc 1 184 0
 1169 0300 07F10803 	 add r3,r7,#8
 1170 0304 1846     	 mov r0,r3
 1171 0306 FFF7FEFF 	 bl uart_debugg4g
 185:../4g_module/4g_data_process.c **** 
 186:../4g_module/4g_data_process.c ****     snprintf(buffer, sizeof(buffer), "identifier = %d\n", TD1->identifier);
 1172              	 .loc 1 186 0
 1173 030a 3B1D     	 adds r3,r7,#4
 1174 030c 1B68     	 ldr r3,[r3]
 1175 030e 1B6E     	 ldr r3,[r3,#96]
 1176 0310 07F10802 	 add r2,r7,#8
 1177 0314 1046     	 mov r0,r2
 1178 0316 4FF48071 	 mov r1,#256
 1179 031a 1E4A     	 ldr r2,.L15+96
 1180 031c FFF7FEFF 	 bl snprintf
 187:../4g_module/4g_data_process.c ****     uart_debugg4g(buffer);
 1181              	 .loc 1 187 0
 1182 0320 07F10803 	 add r3,r7,#8
 1183 0324 1846     	 mov r0,r3
 1184 0326 FFF7FEFF 	 bl uart_debugg4g
 188:../4g_module/4g_data_process.c **** }
 1185              	 .loc 1 188 0
 1186 032a 07F58477 	 add r7,r7,#264
 1187              	.LCFI21:
 1188              	 .cfi_def_cfa_offset 8
 1189 032e BD46     	 mov sp,r7
 1190              	.LCFI22:
 1191              	 .cfi_def_cfa_register 13
 1192              	 
 1193 0330 80BD     	 pop {r7,pc}
 1194              	.L16:
 1195 0332 00BF     	 .align 2
 1196              	.L15:
 1197 0334 00000000 	 .word .LC0
 1198 0338 10000000 	 .word .LC1
 1199 033c 20000000 	 .word .LC2
 1200 0340 34000000 	 .word .LC3
 1201 0344 44000000 	 .word .LC4
 1202 0348 54000000 	 .word .LC5
 1203 034c 60000000 	 .word .LC6
 1204 0350 78000000 	 .word .LC7
 1205 0354 8C000000 	 .word .LC8
 1206 0358 A0000000 	 .word .LC9
 1207 035c AC000000 	 .word .LC10
 1208 0360 BC000000 	 .word .LC11
 1209 0364 D0000000 	 .word .LC12
 1210 0368 E4000000 	 .word .LC13
 1211 036c F8000000 	 .word .LC14
 1212 0370 14010000 	 .word .LC15
 1213 0374 20010000 	 .word .LC16
 1214 0378 30010000 	 .word .LC17
 1215 037c 44010000 	 .word .LC18
 1216 0380 58010000 	 .word .LC19
 1217 0384 70010000 	 .word .LC20
 1218 0388 88010000 	 .word .LC21
 1219 038c 98010000 	 .word .LC22
 1220 0390 A8010000 	 .word .LC23
 1221 0394 B4010000 	 .word .LC24
 1222              	 .cfi_endproc
 1223              	.LFE609:
 1225              	 .text
 1226              	.Letext0:
 1227              	 .file 2 "c:\\infineon\\tools\\dave ide\\4.5.0.202105191637\\eclipse\\arm-gcc-49\\arm-none-eabi\\include\\machine\\_default_types.h"
 1228              	 .file 3 "c:\\infineon\\tools\\dave ide\\4.5.0.202105191637\\eclipse\\arm-gcc-49\\arm-none-eabi\\include\\stdint.h"
 1229              	 .file 4 "D:/Projects/VCU Firmware Main/IRP/Git Repo/VCU14_29bit_overCAN_withIRP_new4g_proto26_adding_All10sec_data/Libraries/XMCLib/inc/xmc_usic.h"
 1230              	 .file 5 "c:\\infineon\\tools\\dave ide\\4.5.0.202105191637\\eclipse\\arm-gcc-49\\arm-none-eabi\\include\\sys\\types.h"
 1231              	 .file 6 "c:\\infineon\\tools\\dave ide\\4.5.0.202105191637\\eclipse\\arm-gcc-49\\arm-none-eabi\\include\\time.h"
 1232              	 .file 7 "D:/Projects/VCU Firmware Main/IRP/Git Repo/VCU14_29bit_overCAN_withIRP_new4g_proto26_adding_All10sec_data/Libraries/XMCLib/inc/xmc_rtc.h"
 1233              	 .file 8 "D:/Projects/VCU Firmware Main/IRP/Git Repo/VCU14_29bit_overCAN_withIRP_new4g_proto26_adding_All10sec_data/Libraries/XMCLib/inc/xmc_spi.h"
 1234              	 .file 9 "D:/Projects/VCU Firmware Main/IRP/Git Repo/VCU14_29bit_overCAN_withIRP_new4g_proto26_adding_All10sec_data/Vcu_Config.h"
 1235              	 .file 10 "D:/Projects/VCU Firmware Main/IRP/Git Repo/VCU14_29bit_overCAN_withIRP_new4g_proto26_adding_All10sec_data/can_matrix.h"
 1236              	 .file 11 "../4g_module/V26_10sec_fleet.pb.h"
 1237              	 .file 12 "D:/Projects/VCU Firmware Main/IRP/Git Repo/VCU14_29bit_overCAN_withIRP_new4g_proto26_adding_All10sec_data/Libraries/CMSIS/Include/cmsis_gcc.h"
 1238              	 .file 13 "D:/Projects/VCU Firmware Main/IRP/Git Repo/VCU14_29bit_overCAN_withIRP_new4g_proto26_adding_All10sec_data/Libraries/CMSIS/Include/core_cm4.h"
 1239              	 .file 14 "D:/Projects/VCU Firmware Main/IRP/Git Repo/VCU14_29bit_overCAN_withIRP_new4g_proto26_adding_All10sec_data/Libraries/CMSIS/Infineon/XMC4700_series/Include/system_XMC4700.h"
 1240              	 .file 15 "D:/Projects/VCU Firmware Main/IRP/Git Repo/VCU14_29bit_overCAN_withIRP_new4g_proto26_adding_All10sec_data/4g_module/mdm_handler.h"